 ray

 Timestamp is 58ceee0c (Sun Mar 19 15:46:04 2017)

 Preferred load address is 00400000

 Start         Length     Name                   Class
 0001:00000000 00000180H .text$di                CODE
 0001:00000180 00086720H .text$mn                CODE
 0001:000868a0 000044c0H .text$x                 CODE
 0001:0008ad60 00000b74H .text$yd                CODE
 0002:00000000 000007b0H .idata$5                DATA
 0002:000007b0 00000004H .00cfg                  DATA
 0002:000007b4 00000004H .CRT$XCA                DATA
 0002:000007b8 00000004H .CRT$XCAA               DATA
 0002:000007bc 00000004H .CRT$XCL                DATA
 0002:000007c0 00000028H .CRT$XCU                DATA
 0002:000007e8 00000004H .CRT$XCZ                DATA
 0002:000007ec 00000004H .CRT$XIA                DATA
 0002:000007f0 00000004H .CRT$XIAA               DATA
 0002:000007f4 00000004H .CRT$XIAC               DATA
 0002:000007f8 00000004H .CRT$XIC                DATA
 0002:000007fc 00000004H .CRT$XIZ                DATA
 0002:00000800 00000004H .CRT$XLA                DATA
 0002:00000804 00000004H .CRT$XLZ                DATA
 0002:00000808 00000004H .CRT$XPA                DATA
 0002:0000080c 00000004H .CRT$XPZ                DATA
 0002:00000810 00000004H .CRT$XTA                DATA
 0002:00000814 0000000cH .CRT$XTZ                DATA
 0002:00000820 00027434H .rdata                  DATA
 0002:00027c54 00000018H .rdata$T                DATA
 0002:00027c6c 00002504H .rdata$r                DATA
 0002:0002a170 00000450H .rdata$sxdata           DATA
 0002:0002a5c0 000003ecH .rdata$zzzdbg           DATA
 0002:0002a9ac 00000004H .rtc$IAA                DATA
 0002:0002a9b0 00000004H .rtc$IZZ                DATA
 0002:0002a9b4 00000004H .rtc$TAA                DATA
 0002:0002a9b8 00000008H .rtc$TZZ                DATA
 0002:0002a9c0 000043ccH .xdata$x                DATA
 0002:0002ed8c 00000000H .edata                  DATA
 0002:0002ed8c 000001e0H .idata$2                DATA
 0002:0002ef6c 00000014H .idata$3                DATA
 0002:0002ef80 000007b0H .idata$4                DATA
 0002:0002f730 0000287cH .idata$6                DATA
 0003:00000000 000028e0H .data                   DATA
 0003:000028e0 00000fd0H .data$r                 DATA
 0003:000038b0 00005710H .bss                    DATA
 0004:00000000 00000058H .gfids$y                DATA
 0005:00000000 00000004H .tls                    DATA
 0005:00000004 00000004H .tls$                   DATA
 0005:00000008 00000001H .tls$ZZZ                DATA
 0006:00000000 00000060H .rsrc$01                DATA
 0006:00000060 00000180H .rsrc$02                DATA

  Address         Publics by Value              Rva+Base       Lib:Object

 0000:00000000       ___guard_iat_table         00000000     <absolute>
 0000:00000000       ___guard_longjmp_count     00000000     <absolute>
 0000:00000000       ___guard_fids_table        00000000     <absolute>
 0000:00000000       ___guard_longjmp_table     00000000     <absolute>
 0000:00000000       ___guard_fids_count        00000000     <absolute>
 0000:00000000       ___guard_iat_count         00000000     <absolute>
 0000:00000000       ___dynamic_value_reloc_table 00000000     <absolute>
 0000:0000002c       __tls_array                0000002c     <absolute>
 0000:00000100       ___guard_flags             00000100     <absolute>
 0000:00000114       ___safe_se_handler_count   00000114     <absolute>
 0000:00000000       ___ImageBase               00400000     <linker-defined>
 0001:00000180       ?GetOption@@YAHHPAPADPAD0@Z 00401180 f   getopt.obj
 0001:00000260       ?getopt@@YAHHPAPADPAD@Z    00401260 f   getopt.obj
 0001:000002a0       ??$?6U?$char_traits@D@std@@@std@@YAAAV?$basic_ostream@DU?$char_traits@D@std@@@0@AAV10@PBD@Z 004012a0 f i main.obj
 0001:000004e0       ??$endl@DU?$char_traits@D@std@@@std@@YAAAV?$basic_ostream@DU?$char_traits@D@std@@@0@AAV10@@Z 004014e0 f i main.obj
 0001:00000510       ??0exception@std@@QAE@ABV01@@Z 00401510 f i main.obj
 0001:00000540       ??1_Sentry_base@?$basic_ostream@DU?$char_traits@D@std@@@std@@QAE@XZ 00401540 f i main.obj
 0001:00000590       ??1exception@std@@UAE@XZ   00401590 f i main.obj
 0001:000005b0       ??1sentry@?$basic_ostream@DU?$char_traits@D@std@@@std@@QAE@XZ 004015b0 f i main.obj
 0001:00000620       ??_Gexception@std@@UAEPAXI@Z 00401620 f i main.obj
 0001:00000620       ??_Eexception@std@@UAEPAXI@Z 00401620 f i main.obj
 0001:00000660       ?what@exception@std@@UBEPBDXZ 00401660 f i main.obj
 0001:00000670       _main                      00401670 f   main.obj
 0001:000007a0       ??$_Eval@V?$mersenne_twister_engine@I$0CA@$0CHA@$0BIN@$0BP@$0JJAILANP@$0L@$0PPPPPPPP@$06$0JNCMFGIA@$0P@$0OPMGAAAA@$0BC@$0GMAHIJGF@@std@@@?$normal_distribution@N@std@@AAENAAV?$mersenne_twister_engine@I$0CA@$0CHA@$0BIN@$0BP@$0JJAILANP@$0L@$0PPPPPPPP@$06$0JNCMFGIA@$0P@$0OPMGAAAA@$0BC@$0GMAHIJGF@@1@ABUparam_type@01@_N@Z 004017a0 f i RayTracer.obj
 0001:00000990       ??$generate_canonical@N$0PPPPPPPP@V?$mersenne_twister_engine@I$0CA@$0CHA@$0BIN@$0BP@$0JJAILANP@$0L@$0PPPPPPPP@$06$0JNCMFGIA@$0P@$0OPMGAAAA@$0BC@$0GMAHIJGF@@std@@@std@@YANAAV?$mersenne_twister_engine@I$0CA@$0CHA@$0BIN@$0BP@$0JJAILANP@$0L@$0PPPPPPPP@$06$0JNCMFGIA@$0P@$0OPMGAAAA@$0BC@$0GMAHIJGF@@0@@Z 00401990 f i RayTracer.obj
 0001:00000ab0       ??$use_facet@V?$codecvt@DDU_Mbstatet@@@std@@@std@@YAABV?$codecvt@DDU_Mbstatet@@@0@ABVlocale@0@@Z 00401ab0 f i RayTracer.obj
 0001:00000bb0       ??0?$basic_ifstream@DU?$char_traits@D@std@@@std@@QAE@PBDHH@Z 00401bb0 f i RayTracer.obj
 0001:00000cc0       ??0?$basic_string@DU?$char_traits@D@std@@V?$allocator@D@2@@std@@QAE@PBD@Z 00401cc0 f i RayTracer.obj
 0001:00000d20       ??0?$fpos@U_Mbstatet@@@std@@QAE@U_Mbstatet@@_J@Z 00401d20 f i RayTracer.obj
 0001:00000d50       ??0?$mersenne_twister_engine@I$0CA@$0CHA@$0BIN@$0BP@$0JJAILANP@$0L@$0PPPPPPPP@$06$0JNCMFGIA@$0P@$0OPMGAAAA@$0BC@$0GMAHIJGF@@std@@QAE@I@Z 00401d50 f i RayTracer.obj
 0001:00000da0       ??0Parser@@QAE@AAVTokenizer@@V?$basic_string@DU?$char_traits@D@std@@V?$allocator@D@2@@std@@@Z 00401da0 f i RayTracer.obj
 0001:00000e50       ??0RayTracer@@QAE@XZ       00401e50 f   RayTracer.obj
 0001:00000ed0       ??0bad_cast@std@@QAE@ABV01@@Z 00401ed0 f i RayTracer.obj
 0001:00000f10       ??1?$basic_filebuf@DU?$char_traits@D@std@@@std@@UAE@XZ 00401f10 f i RayTracer.obj
 0001:00000f90       ??1?$basic_ifstream@DU?$char_traits@D@std@@@std@@UAE@XZ 00401f90 f i RayTracer.obj
 0001:00001040       ??1?$basic_string@DU?$char_traits@D@std@@V?$allocator@D@2@@std@@QAE@XZ 00402040 f i RayTracer.obj
 0001:00001080       ??1?$map@V?$basic_string@DU?$char_traits@D@std@@V?$allocator@D@2@@std@@VMaterial@@U?$less@V?$basic_string@DU?$char_traits@D@std@@V?$allocator@D@2@@std@@@2@V?$allocator@U?$pair@$$CBV?$basic_string@DU?$char_traits@D@std@@V?$allocator@D@2@@std@@VMaterial@@@std@@@2@@std@@QAE@XZ 00402080 f i RayTracer.obj
 0001:000010e0       ??1Parser@@QAE@XZ          004020e0 f i RayTracer.obj
 0001:00001180       ??1RayTracer@@QAE@XZ       00402180 f   RayTracer.obj
 0001:000011a0       ??1TextureMapException@@QAE@XZ 004021a0 f i RayTracer.obj
 0001:000011e0       ??1Tokenizer@@QAE@XZ       004021e0 f i RayTracer.obj
 0001:00001220       ??1bad_cast@std@@UAE@XZ    00402220 f i RayTracer.obj
 0001:00001240       ??1isect@@QAE@XZ           00402240 f i RayTracer.obj
 0001:00001260       ??1locale@std@@QAE@XZ      00402260 f i RayTracer.obj
 0001:000012b0       ??4?$basic_string@DU?$char_traits@D@std@@V?$allocator@D@2@@std@@QAEAAV01@$$QAV01@@Z 004022b0 f i RayTracer.obj
 0001:00001330       ??E?$_Tree_unchecked_const_iterator@V?$_Tree_val@U?$_Tree_simple_types@U?$pair@$$CBV?$basic_string@DU?$char_traits@D@std@@V?$allocator@D@2@@std@@VMaterial@@@std@@@std@@@std@@U_Iterator_base0@2@@std@@QAEAAV01@XZ 00402330 f i RayTracer.obj
 0001:00001380       ??_D?$basic_ifstream@DU?$char_traits@D@std@@@std@@QAEXXZ 00402380 f i RayTracer.obj
 0001:00001394       ??_E?$basic_ifstream@DU?$char_traits@D@std@@@std@@$4PPPPPPPM@A@AEPAXI@Z 00402394 f i RayTracer.obj
 0001:000013a0       ??_E?$basic_filebuf@DU?$char_traits@D@std@@@std@@UAEPAXI@Z 004023a0 f i RayTracer.obj
 0001:000013a0       ??_G?$basic_filebuf@DU?$char_traits@D@std@@@std@@UAEPAXI@Z 004023a0 f i RayTracer.obj
 0001:00001440       ??_G?$basic_ifstream@DU?$char_traits@D@std@@@std@@UAEPAXI@Z 00402440 f i RayTracer.obj
 0001:00001440       ??_E?$basic_ifstream@DU?$char_traits@D@std@@@std@@UAEPAXI@Z 00402440 f i RayTracer.obj
 0001:00001480       ??_Ebad_cast@std@@UAEPAXI@Z 00402480 f i RayTracer.obj
 0001:00001480       ??_Gbad_cast@std@@UAEPAXI@Z 00402480 f i RayTracer.obj
 0001:000014c0       ?_Assign_rv@?$basic_string@DU?$char_traits@D@std@@V?$allocator@D@2@@std@@QAEX$$QAV12@@Z 004024c0 f i RayTracer.obj
 0001:00001530       ?_Buyheadnode@?$_Tree_comp_alloc@V?$_Tmap_traits@V?$basic_string@DU?$char_traits@D@std@@V?$allocator@D@2@@std@@VMaterial@@U?$less@V?$basic_string@DU?$char_traits@D@std@@V?$allocator@D@2@@std@@@2@V?$allocator@U?$pair@$$CBV?$basic_string@DU?$char_traits@D@std@@V?$allocator@D@2@@std@@VMaterial@@@std@@@2@$0A@@std@@@std@@QAEPAU?$_Tree_node@U?$pair@$$CBV?$basic_string@DU?$char_traits@D@std@@V?$allocator@D@2@@std@@VMaterial@@@std@@PAX@2@XZ 00402530 f i RayTracer.obj
 0001:00001570       ?_Chassign@?$basic_string@DU?$char_traits@D@std@@V?$allocator@D@2@@std@@QAEXIID@Z 00402570 f i RayTracer.obj
 0001:000015c0       ?_Copy@?$basic_string@DU?$char_traits@D@std@@V?$allocator@D@2@@std@@QAEXII@Z 004025c0 f i RayTracer.obj
 0001:00001770       ?_Deallocate@std@@YAXPAXII@Z 00402770 f i RayTracer.obj
 0001:000017e0       ?_Endwrite@?$basic_filebuf@DU?$char_traits@D@std@@@std@@IAE_NXZ 004027e0 f i RayTracer.obj
 0001:00001950       ?_Erase@?$_Tree@V?$_Tmap_traits@V?$basic_string@DU?$char_traits@D@std@@V?$allocator@D@2@@std@@VMaterial@@U?$less@V?$basic_string@DU?$char_traits@D@std@@V?$allocator@D@2@@std@@@2@V?$allocator@U?$pair@$$CBV?$basic_string@DU?$char_traits@D@std@@V?$allocator@D@2@@std@@VMaterial@@@std@@@2@$0A@@std@@@std@@IAEXPAU?$_Tree_node@U?$pair@$$CBV?$basic_string@DU?$char_traits@D@std@@V?$allocator@D@2@@std@@VMaterial@@@std@@PAX@2@@Z 00402950 f i RayTracer.obj
 0001:00001a00       ?_Init@?$basic_filebuf@DU?$char_traits@D@std@@@std@@IAEXPAU_iobuf@@W4_Initfl@12@@Z 00402a00 f i RayTracer.obj
 0001:00001a90       ?_Lock@?$basic_filebuf@DU?$char_traits@D@std@@@std@@UAEXXZ 00402a90 f i RayTracer.obj
 0001:00001aa0       ?_Lrotate@?$_Tree@V?$_Tmap_traits@V?$basic_string@DU?$char_traits@D@std@@V?$allocator@D@2@@std@@VMaterial@@U?$less@V?$basic_string@DU?$char_traits@D@std@@V?$allocator@D@2@@std@@@2@V?$allocator@U?$pair@$$CBV?$basic_string@DU?$char_traits@D@std@@V?$allocator@D@2@@std@@VMaterial@@@std@@@2@$0A@@std@@@std@@IAEXPAU?$_Tree_node@U?$pair@$$CBV?$basic_string@DU?$char_traits@D@std@@V?$allocator@D@2@@std@@VMaterial@@@std@@PAX@2@@Z 00402aa0 f i RayTracer.obj
 0001:00001b00       ?_Myptr@?$_String_alloc@U?$_String_base_types@DV?$allocator@D@std@@@std@@@std@@QBEPBDXZ 00402b00 f i RayTracer.obj
 0001:00001b10       ?_Refill_lower@?$mersenne_twister@I$0CA@$0CHA@$0BIN@$0BP@$0JJAILANP@$0L@$06$0JNCMFGIA@$0P@$0OPMGAAAA@$0BC@@std@@IAEXXZ 00402b10 f i RayTracer.obj
 0001:00001be0       ?_Refill_upper@?$mersenne_twister@I$0CA@$0CHA@$0BIN@$0BP@$0JJAILANP@$0L@$06$0JNCMFGIA@$0P@$0OPMGAAAA@$0BC@@std@@IAEXXZ 00402be0 f i RayTracer.obj
 0001:00001c30       ?_Reset_back@?$basic_filebuf@DU?$char_traits@D@std@@@std@@AAEXXZ 00402c30 f i RayTracer.obj
 0001:00001c60       ?_Rrotate@?$_Tree@V?$_Tmap_traits@V?$basic_string@DU?$char_traits@D@std@@V?$allocator@D@2@@std@@VMaterial@@U?$less@V?$basic_string@DU?$char_traits@D@std@@V?$allocator@D@2@@std@@@2@V?$allocator@U?$pair@$$CBV?$basic_string@DU?$char_traits@D@std@@V?$allocator@D@2@@std@@VMaterial@@@std@@@2@$0A@@std@@@std@@IAEXPAU?$_Tree_node@U?$pair@$$CBV?$basic_string@DU?$char_traits@D@std@@V?$allocator@D@2@@std@@VMaterial@@@std@@PAX@2@@Z 00402c60 f i RayTracer.obj
 0001:00001cc0       ?_Set_back@?$basic_filebuf@DU?$char_traits@D@std@@@std@@AAEXXZ 00402cc0 f i RayTracer.obj
 0001:00001d00       ?_Unlock@?$basic_filebuf@DU?$char_traits@D@std@@@std@@UAEXXZ 00402d00 f i RayTracer.obj
 0001:00001d10       ?allocate@?$_Wrap_alloc@V?$allocator@D@std@@@std@@QAEPADI@Z 00402d10 f i RayTracer.obj
 0001:00001d70       ?append@?$basic_string@DU?$char_traits@D@std@@V?$allocator@D@2@@std@@QAEAAV12@ABV12@II@Z 00402d70 f i RayTracer.obj
 0001:00001e60       ?append@?$basic_string@DU?$char_traits@D@std@@V?$allocator@D@2@@std@@QAEAAV12@ID@Z 00402e60 f i RayTracer.obj
 0001:00001f10       ?append@?$basic_string@DU?$char_traits@D@std@@V?$allocator@D@2@@std@@QAEAAV12@PBDI@Z 00402f10 f i RayTracer.obj
 0001:00002030       ?aspectRatio@RayTracer@@QAENXZ 00403030 f   RayTracer.obj
 0001:00002070       ?assign@?$basic_string@DU?$char_traits@D@std@@V?$allocator@D@2@@std@@QAEAAV12@ABV12@II@Z 00403070 f i RayTracer.obj
 0001:00002190       ?assign@?$basic_string@DU?$char_traits@D@std@@V?$allocator@D@2@@std@@QAEAAV12@PBDI@Z 00403190 f i RayTracer.obj
 0001:00002290       ?close@?$basic_filebuf@DU?$char_traits@D@std@@@std@@QAEPAV12@XZ 00403290 f i RayTracer.obj
 0001:00002300       ?erase@?$_Tree@V?$_Tmap_traits@V?$basic_string@DU?$char_traits@D@std@@V?$allocator@D@2@@std@@VMaterial@@U?$less@V?$basic_string@DU?$char_traits@D@std@@V?$allocator@D@2@@std@@@2@V?$allocator@U?$pair@$$CBV?$basic_string@DU?$char_traits@D@std@@V?$allocator@D@2@@std@@VMaterial@@@std@@@2@$0A@@std@@@std@@QAE?AV?$_Tree_iterator@V?$_Tree_val@U?$_Tree_simple_types@U?$pair@$$CBV?$basic_string@DU?$char_traits@D@std@@V?$allocator@D@2@@std@@VMaterial@@@std@@@std@@@std@@@2@V?$_Tree_const_iterator@V?$_Tree_val@U?$_Tree_simple_types@U?$pair@$$CBV?$basic_string@DU?$char_traits@D@std@@V?$allocator@D@2@@std@@VMaterial@@@std@@@std@@@std@@@2@0@Z 00403300 f i RayTracer.obj
 0001:000023f0       ?erase@?$_Tree@V?$_Tmap_traits@V?$basic_string@DU?$char_traits@D@std@@V?$allocator@D@2@@std@@VMaterial@@U?$less@V?$basic_string@DU?$char_traits@D@std@@V?$allocator@D@2@@std@@@2@V?$allocator@U?$pair@$$CBV?$basic_string@DU?$char_traits@D@std@@V?$allocator@D@2@@std@@VMaterial@@@std@@@2@$0A@@std@@@std@@QAE?AV?$_Tree_iterator@V?$_Tree_val@U?$_Tree_simple_types@U?$pair@$$CBV?$basic_string@DU?$char_traits@D@std@@V?$allocator@D@2@@std@@VMaterial@@@std@@@std@@@std@@@2@V?$_Tree_const_iterator@V?$_Tree_val@U?$_Tree_simple_types@U?$pair@$$CBV?$basic_string@DU?$char_traits@D@std@@V?$allocator@D@2@@std@@VMaterial@@@std@@@std@@@std@@@2@@Z 004033f0 f i RayTracer.obj
 0001:000026e0       ?erase@?$basic_string@DU?$char_traits@D@std@@V?$allocator@D@2@@std@@QAEAAV12@II@Z 004036e0 f i RayTracer.obj
 0001:00002780       ?find_last_of@?$basic_string@DU?$char_traits@D@std@@V?$allocator@D@2@@std@@QBEIPBDII@Z 00403780 f i RayTracer.obj
 0001:00002800       ?formattedMessage@SyntaxErrorException@@QBE?AV?$basic_string@DU?$char_traits@D@std@@V?$allocator@D@2@@std@@XZ 00403800 f i RayTracer.obj
 0001:00002840       ?getBuffer@RayTracer@@QAEXAAPAEAAH1@Z 00403840 f   RayTracer.obj
 0001:00002860       ?imbue@?$basic_filebuf@DU?$char_traits@D@std@@@std@@MAEXABVlocale@2@@Z 00403860 f i RayTracer.obj
 0001:000028a0       ?loadScene@RayTracer@@QAE_NPAD@Z 004038a0 f   RayTracer.obj
 0001:00002cf0       ?message@TextureMapException@@QAE?AV?$basic_string@DU?$char_traits@D@std@@V?$allocator@D@2@@std@@XZ 00403cf0 f i RayTracer.obj
 0001:00002d30       ?open@?$basic_filebuf@DU?$char_traits@D@std@@@std@@QAEPAV12@PBDHH@Z 00403d30 f i RayTracer.obj
 0001:00002e10       ?overflow@?$basic_filebuf@DU?$char_traits@D@std@@@std@@MAEHH@Z 00403e10 f i RayTracer.obj
 0001:00003020       ?pbackfail@?$basic_filebuf@DU?$char_traits@D@std@@@std@@MAEHH@Z 00404020 f i RayTracer.obj
 0001:000030b0       ?reflectVector@@YA?AV?$Vec3@N@@ABV1@0@Z 004040b0 f   RayTracer.obj
 0001:00003180       ?seekoff@?$basic_filebuf@DU?$char_traits@D@std@@@std@@MAE?AV?$fpos@U_Mbstatet@@@2@_JHH@Z 00404180 f i RayTracer.obj
 0001:00003280       ?seekpos@?$basic_filebuf@DU?$char_traits@D@std@@@std@@MAE?AV?$fpos@U_Mbstatet@@@2@V32@H@Z 00404280 f i RayTracer.obj
 0001:00003360       ?setKD@RayTracer@@QAEX_N@Z 00404360 f   RayTracer.obj
 0001:00003380       ?setbuf@?$basic_filebuf@DU?$char_traits@D@std@@@std@@MAEPAV?$basic_streambuf@DU?$char_traits@D@std@@@2@PAD_J@Z 00404380 f i RayTracer.obj
 0001:000033d0       ?substr@?$basic_string@DU?$char_traits@D@std@@V?$allocator@D@2@@std@@QBE?AV12@II@Z 004043d0 f i RayTracer.obj
 0001:00003410       ?sync@?$basic_filebuf@DU?$char_traits@D@std@@@std@@MAEHXZ 00404410 f i RayTracer.obj
 0001:00003440       ?trace@RayTracer@@QAE?AV?$Vec3@N@@NN@Z 00404440 f   RayTracer.obj
 0001:00003570       ?tracePixel@RayTracer@@QAEXHH@Z 00404570 f   RayTracer.obj
 0001:00003730       ?traceRay@RayTracer@@QAE?AV?$Vec3@N@@ABVray@@ABV2@H@Z 00404730 f   RayTracer.obj
 0001:00004080       ?traceSetup@RayTracer@@QAEXHHHH_N@Z 00405080 f   RayTracer.obj
 0001:00004190       ?uflow@?$basic_filebuf@DU?$char_traits@D@std@@@std@@MAEHXZ 00405190 f i RayTracer.obj
 0001:00004390       ?underflow@?$basic_filebuf@DU?$char_traits@D@std@@@std@@MAEHXZ 00405390 f i RayTracer.obj
 0001:00004470       ??$?6DU?$char_traits@D@std@@V?$allocator@D@1@@std@@YAAAV?$basic_ostream@DU?$char_traits@D@std@@@0@AAV10@ABV?$basic_string@DU?$char_traits@D@std@@V?$allocator@D@2@@0@@Z 00405470 f i CommandLineUI.obj
 0001:00004670       ??0CommandLineUI@@QAE@HPAPAD@Z 00405670 f   CommandLineUI.obj
 0001:00004800       ?alert@CommandLineUI@@UAEXABV?$basic_string@DU?$char_traits@D@std@@V?$allocator@D@2@@std@@@Z 00405800 f   CommandLineUI.obj
 0001:00004890       ?run@CommandLineUI@@UAEHXZ 00405890 f   CommandLineUI.obj
 0001:00004a00       ?setAA@TraceUI@@UAEXH@Z    00405a00 f i CommandLineUI.obj
 0001:00004a10       ?setDepth@TraceUI@@UAEXH@Z 00405a10 f i CommandLineUI.obj
 0001:00004a20       ?setKD@TraceUI@@UAEX_N@Z   00405a20 f i CommandLineUI.obj
 0001:00004a30       ?setRayTracer@TraceUI@@UAEXPAVRayTracer@@@Z 00405a30 f i CommandLineUI.obj
 0001:00004a40       ?usage@CommandLineUI@@AAEXXZ 00405a40 f   CommandLineUI.obj
 0001:00004ba0       ??$__vcrt_va_start_verify_argument_type@QBD@@YAXXZ 00405ba0 f i debuggingView.obj
 0001:00004bb0       ??0DebuggingView@@QAE@HHHHPAD@Z 00405bb0 f   debuggingView.obj
 0001:00004cb0       ??1DebuggingView@@UAE@XZ   00405cb0 f   debuggingView.obj
 0001:00004ce0       ??_GDebuggingView@@UAEPAXI@Z 00405ce0 f i debuggingView.obj
 0001:00004ce0       ??_EDebuggingView@@UAEPAXI@Z 00405ce0 f i debuggingView.obj
 0001:00004d20       ??_EFl_Gl_Window@@UAEPAXI@Z 00405d20 f i debuggingView.obj
 0001:00004d20       ??_GFl_Gl_Window@@UAEPAXI@Z 00405d20 f i debuggingView.obj
 0001:00004d50       ?_Destroy@?$vector@IV?$allocator@I@std@@@std@@IAEXPAI0@Z 00405d50 f i debuggingView.obj
 0001:00004d60       ?_Orphan_all@?$_Vector_alloc@U?$_Vec_base_types@IV?$allocator@I@std@@@std@@@std@@QAEXXZ 00405d60 f i debuggingView.obj
 0001:00004d70       ?_Reallocate@?$vector@IV?$allocator@I@std@@@std@@IAEXI@Z 00405d70 f i debuggingView.obj
 0001:00004dd0       ?_Reserve@?$vector@IV?$allocator@I@std@@@std@@IAEXI@Z 00405dd0 f i debuggingView.obj
 0001:00004e40       ?allocate@?$allocator@I@std@@QAEPAII@Z 00405e40 f i debuggingView.obj
 0001:00004eb0       ?as_gl_window@Fl_Gl_Window@@UAEPAV1@XZ 00405eb0 f i debuggingView.obj
 0001:00004ec0       ?as_group@Fl_Group@@UAEPAV1@XZ 00405ec0 f i debuggingView.obj
 0001:00004ed0       ?as_window@Fl_Window@@UAEPAV1@XZ 00405ed0 f i debuggingView.obj
 0001:00004ee0       ?checkGLError@@YAXXZ       00405ee0 f   debuggingView.obj
 0001:00004f10       ?draw@DebuggingView@@UAEXXZ 00405f10 f   debuggingView.obj
 0001:00005300       ?drawAxes@DebuggingView@@QAEXXZ 00406300 f   debuggingView.obj
 0001:000055a0       ?drawCamera@DebuggingView@@QAEXXZ 004065a0 f   debuggingView.obj
 0001:00005f50       ?drawLights@DebuggingView@@QAEXXZ 00406f50 f   debuggingView.obj
 0001:00005f90       ?drawRays@DebuggingView@@QAEXXZ 00406f90 f   debuggingView.obj
 0001:000061f0       ?drawScene@DebuggingView@@QAEXXZ 004071f0 f   debuggingView.obj
 0001:00006320       ?handle@DebuggingView@@UAEHH@Z 00407320 f   debuggingView.obj
 0001:000063e0       ?lightScene@DebuggingView@@QAEXXZ 004073e0 f   debuggingView.obj
 0001:000066a0       ?makeRasterFont@@YAXXZ     004076a0 f   debuggingView.obj
 0001:00006770       ?printString@@YAXPAD@Z     00407770 f   debuggingView.obj
 0001:000067d0       ?push_back@?$vector@IV?$allocator@I@std@@@std@@QAEX$$QAI@Z 004077d0 f i debuggingView.obj
 0001:00006840       ?resetCamera@DebuggingView@@QAEXXZ 00407840 f   debuggingView.obj
 0001:00006910       ?setRayTracer@DebuggingView@@QAEXPAVRayTracer@@@Z 00407910 f   debuggingView.obj
 0001:00006920       ___local_stdio_printf_options 00407920 f i debuggingView.obj
 0001:00006930       _printf                    00407930 f i debuggingView.obj
 0001:00006960       ?cb_Normal@DebuggingWindow@@CAXPAVFl_Menu_@@PAX@Z 00407960 f   debuggingWindow.obj
 0001:00006980       ?cb_Flat@DebuggingWindow@@CAXPAVFl_Menu_@@PAX@Z 00407980 f   debuggingWindow.obj
 0001:000069a0       ?cb_Wireframe@DebuggingWindow@@CAXPAVFl_Menu_@@PAX@Z 004079a0 f   debuggingWindow.obj
 0001:000069c0       ?cb_High@DebuggingWindow@@CAXPAVFl_Menu_@@PAX@Z 004079c0 f   debuggingWindow.obj
 0001:000069e0       ?cb_Medium@DebuggingWindow@@CAXPAVFl_Menu_@@PAX@Z 004079e0 f   debuggingWindow.obj
 0001:00006a00       ?cb_Low@DebuggingWindow@@CAXPAVFl_Menu_@@PAX@Z 00407a00 f   debuggingWindow.obj
 0001:00006a20       ?cb_Poor@DebuggingWindow@@CAXPAVFl_Menu_@@PAX@Z 00407a20 f   debuggingWindow.obj
 0001:00006a40       ?cb_Default@DebuggingWindow@@CAXPAVFl_Menu_@@PAX@Z 00407a40 f   debuggingWindow.obj
 0001:00006a60       ?cb_Scene@DebuggingWindow@@CAXPAVFl_Menu_@@PAX@Z 00407a60 f   debuggingWindow.obj
 0001:00006a80       ?cb_Use@DebuggingWindow@@CAXPAVFl_Menu_@@PAX@Z 00407a80 f   debuggingWindow.obj
 0001:00006ab0       ?cb_Geometry@DebuggingWindow@@CAXPAVFl_Menu_@@PAX@Z 00407ab0 f   debuggingWindow.obj
 0001:00006ae0       ?cb_Lights@DebuggingWindow@@CAXPAVFl_Menu_@@PAX@Z 00407ae0 f   debuggingWindow.obj
 0001:00006b10       ?cb_Camera@DebuggingWindow@@CAXPAVFl_Menu_@@PAX@Z 00407b10 f   debuggingWindow.obj
 0001:00006b40       ?cb_Axes@DebuggingWindow@@CAXPAVFl_Menu_@@PAX@Z 00407b40 f   debuggingWindow.obj
 0001:00006b70       ?cb_Normals@DebuggingWindow@@CAXPAVFl_Menu_@@PAX@Z 00407b70 f   debuggingWindow.obj
 0001:00006ba0       ?cb_Visibility@DebuggingWindow@@CAXPAVFl_Menu_@@PAX@Z 00407ba0 f   debuggingWindow.obj
 0001:00006bd0       ?cb_Reflection@DebuggingWindow@@CAXPAVFl_Menu_@@PAX@Z 00407bd0 f   debuggingWindow.obj
 0001:00006c00       ?cb_Refraction@DebuggingWindow@@CAXPAVFl_Menu_@@PAX@Z 00407c00 f   debuggingWindow.obj
 0001:00006c30       ?cb_Shadow@DebuggingWindow@@CAXPAVFl_Menu_@@PAX@Z 00407c30 f   debuggingWindow.obj
 0001:00006c60       ??0DebuggingWindow@@QAE@XZ 00407c60 f   debuggingWindow.obj
 0001:00006d80       ?hide@DebuggingWindow@@QAEXXZ 00407d80 f   debuggingWindow.obj
 0001:00006da0       ?redraw@DebuggingWindow@@QAEXXZ 00407da0 f   debuggingWindow.obj
 0001:00006db0       ?show@DebuggingWindow@@QAEXXZ 00407db0 f   debuggingWindow.obj
 0001:00006dd0       ??$_Buynode@U?$pair@HI@std@@@?$_Tree_comp_alloc@V?$_Tmap_traits@HIU?$less@H@std@@V?$allocator@U?$pair@$$CBHI@std@@@2@$0A@@std@@@std@@QAEPAU?$_Tree_node@U?$pair@$$CBHI@std@@PAX@1@$$QAU?$pair@HI@1@@Z 00407dd0 f i glObjects.obj
 0001:00006e00       ??$_Insert_at@AAU?$pair@$$CBHI@std@@PAU?$_Tree_node@U?$pair@$$CBHI@std@@PAX@2@@?$_Tree@V?$_Tmap_traits@HIU?$less@H@std@@V?$allocator@U?$pair@$$CBHI@std@@@2@$0A@@std@@@std@@IAE?AV?$_Tree_iterator@V?$_Tree_val@U?$_Tree_simple_types@U?$pair@$$CBHI@std@@@std@@@std@@@1@_NPAU?$_Tree_node@U?$pair@$$CBHI@std@@PAX@1@AAU?$pair@$$CBHI@1@1@Z 00407e00 f i glObjects.obj
 0001:00006fa0       ??$_Insert_nohint@AAU?$pair@$$CBHI@std@@PAU?$_Tree_node@U?$pair@$$CBHI@std@@PAX@2@@?$_Tree@V?$_Tmap_traits@HIU?$less@H@std@@V?$allocator@U?$pair@$$CBHI@std@@@2@$0A@@std@@@std@@IAE?AU?$pair@V?$_Tree_iterator@V?$_Tree_val@U?$_Tree_simple_types@U?$pair@$$CBHI@std@@@std@@@std@@@std@@_N@1@_NAAU?$pair@$$CBHI@1@PAU?$_Tree_node@U?$pair@$$CBHI@std@@PAX@1@@Z 00407fa0 f i glObjects.obj
 0001:000070c0       ??$destroy@PAU?$_Tree_node@U?$pair@$$CBHI@std@@PAX@std@@@?$_Wrap_alloc@V?$allocator@U?$_Tree_node@U?$pair@$$CBHI@std@@PAX@std@@@std@@@std@@QAEXPAPAU?$_Tree_node@U?$pair@$$CBHI@std@@PAX@1@@Z 004080c0 f i glObjects.obj
 0001:000070d0       ??E?$_Tree_unchecked_const_iterator@V?$_Tree_val@U?$_Tree_simple_types@U?$pair@$$CBHI@std@@@std@@@std@@U_Iterator_base0@2@@std@@QAEAAV01@XZ 004080d0 f i glObjects.obj
 0001:00007120       ??F?$_Tree_unchecked_const_iterator@V?$_Tree_val@U?$_Tree_simple_types@U?$pair@$$CBHI@std@@@std@@@std@@U_Iterator_base0@2@@std@@QAEAAV01@XZ 00408120 f i glObjects.obj
 0001:00007180       ?_Buyheadnode@?$_Tree_comp_alloc@V?$_Tmap_traits@HIU?$less@H@std@@V?$allocator@U?$pair@$$CBHI@std@@@2@$0A@@std@@@std@@QAEPAU?$_Tree_node@U?$pair@$$CBHI@std@@PAX@2@XZ 00408180 f i glObjects.obj
 0001:000071b0       ?_Buynode0@?$_Tree_comp_alloc@V?$_Tmap_traits@HIU?$less@H@std@@V?$allocator@U?$pair@$$CBHI@std@@@2@$0A@@std@@@std@@QAEPAU?$_Tree_node@U?$pair@$$CBHI@std@@PAX@2@XZ 004081b0 f i glObjects.obj
 0001:000071f0       ?_Erase@?$_Tree@V?$_Tmap_traits@HIU?$less@H@std@@V?$allocator@U?$pair@$$CBHI@std@@@2@$0A@@std@@@std@@IAEXPAU?$_Tree_node@U?$pair@$$CBHI@std@@PAX@2@@Z 004081f0 f i glObjects.obj
 0001:00007230       ?_Lrotate@?$_Tree@V?$_Tmap_traits@HIU?$less@H@std@@V?$allocator@U?$pair@$$CBHI@std@@@2@$0A@@std@@@std@@IAEXPAU?$_Tree_node@U?$pair@$$CBHI@std@@PAX@2@@Z 00408230 f i glObjects.obj
 0001:00007290       ?_Rrotate@?$_Tree@V?$_Tmap_traits@HIU?$less@H@std@@V?$allocator@U?$pair@$$CBHI@std@@@2@$0A@@std@@@std@@IAEXPAU?$_Tree_node@U?$pair@$$CBHI@std@@PAX@2@@Z 00408290 f i glObjects.obj
 0001:000072f0       ?arrow@@YAXXZ              004082f0 f   glObjects.obj
 0001:000073d0       ?clear@?$_Tree@V?$_Tmap_traits@HIU?$less@H@std@@V?$allocator@U?$pair@$$CBHI@std@@@2@$0A@@std@@@std@@QAEXXZ 004083d0 f i glObjects.obj
 0001:00007450       ?drawTesselatedSquare@@YAXH@Z 00408450 f   glObjects.obj
 0001:000075a0       ?erase@?$_Tree@V?$_Tmap_traits@HIU?$less@H@std@@V?$allocator@U?$pair@$$CBHI@std@@@2@$0A@@std@@@std@@QAE?AV?$_Tree_iterator@V?$_Tree_val@U?$_Tree_simple_types@U?$pair@$$CBHI@std@@@std@@@std@@@2@V?$_Tree_const_iterator@V?$_Tree_val@U?$_Tree_simple_types@U?$pair@$$CBHI@std@@@std@@@std@@@2@0@Z 004085a0 f i glObjects.obj
 0001:00007640       ?erase@?$_Tree@V?$_Tmap_traits@HIU?$less@H@std@@V?$allocator@U?$pair@$$CBHI@std@@@2@$0A@@std@@@std@@QAE?AV?$_Tree_iterator@V?$_Tree_val@U?$_Tree_simple_types@U?$pair@$$CBHI@std@@@std@@@std@@@2@V?$_Tree_const_iterator@V?$_Tree_val@U?$_Tree_simple_types@U?$pair@$$CBHI@std@@@std@@@std@@@2@@Z 00408640 f i glObjects.obj
 0001:000078c0       ?glDraw@DirectionalLight@@UBEXI@Z 004088c0 f   glObjects.obj
 0001:000079c0       ?glDraw@DirectionalLight@@UBEXXZ 004089c0 f   glObjects.obj
 0001:00007fc0       ?glDraw@Geometry@@UBEXH_N0@Z 00408fc0 f   glObjects.obj
 0001:00008140       ?glDraw@PointLight@@UBEXI@Z 00409140 f   glObjects.obj
 0001:00008240       ?glDraw@PointLight@@UBEXXZ 00409240 f   glObjects.obj
 0001:000084c0       ?glDraw@Scene@@QBEXH_N0@Z  004094c0 f   glObjects.obj
 0001:00008500       ?glDraw@SceneObject@@UBEXH_N0@Z 00409500 f   glObjects.obj
 0001:00008690       ?glDrawLocal@Box@@MBEXH_N0@Z 00409690 f   glObjects.obj
 0001:000089b0       ?glDrawLocal@Cone@@MBEXH_N0@Z 004099b0 f   glObjects.obj
 0001:00008b40       ?glDrawLocal@Cylinder@@MBEXH_N0@Z 00409b40 f   glObjects.obj
 0001:00008da0       ?glDrawLocal@Sphere@@MBEXH_N0@Z 00409da0 f   glObjects.obj
 0001:00008f10       ?glDrawLocal@Square@@MBEXH_N0@Z 00409f10 f   glObjects.obj
 0001:00009050       ?glDrawLocal@Trimesh@@MBEXH_N0@Z 0040a050 f   glObjects.obj
 0001:00009290       ?setGLMaterial@@YAXABVMaterial@@PBVSceneObject@@@Z 0040a290 f   glObjects.obj
 0001:000094a0       ?setMaterialProperty@@YAXIV?$Vec3@N@@@Z 0040a4a0 f   glObjects.obj
 0001:00009510       ?cb_load_scene@GraphicalUI@@CAXPAVFl_Menu_@@PAX@Z 0040a510 f   GraphicalUI.obj
 0001:000096e0       ?cb_save_image@GraphicalUI@@CAXPAVFl_Menu_@@PAX@Z 0040a6e0 f   GraphicalUI.obj
 0001:00009a90       ?cb_exit@GraphicalUI@@CAXPAVFl_Menu_@@PAX@Z 0040aa90 f   GraphicalUI.obj
 0001:00009ae0       ?cb_about@GraphicalUI@@CAXPAVFl_Menu_@@PAX@Z 0040aae0 f   GraphicalUI.obj
 0001:00009af0       ??0GraphicalUI@@QAE@XZ     0040aaf0 f   GraphicalUI.obj
 0001:0000a010       ??1Dialog2@@UAE@XZ         0040b010 f i GraphicalUI.obj
 0001:0000a020       ??1Fl_Button@@UAE@XZ       0040b020 f i GraphicalUI.obj
 0001:0000a030       ??1Fl_Int_Input@@UAE@XZ    0040b030 f i GraphicalUI.obj
 0001:0000a040       ??_EDialog2@@UAEPAXI@Z     0040b040 f i GraphicalUI.obj
 0001:0000a040       ??_GDialog2@@UAEPAXI@Z     0040b040 f i GraphicalUI.obj
 0001:0000a070       ?Button_CB@Dialog2@@CAXPAVFl_Widget@@PAX@Z 0040b070 f i GraphicalUI.obj
 0001:0000a080       ?alert@GraphicalUI@@UAEXABV?$basic_string@DU?$char_traits@D@std@@V?$allocator@D@2@@std@@@Z 0040b080 f   GraphicalUI.obj
 0001:0000a0a0       ?as_gl_window@Fl_Widget@@UAEPAVFl_Gl_Window@@XZ 0040b0a0 f i GraphicalUI.obj
 0001:0000a0b0       ?as_window@Fl_Widget@@UAEPAVFl_Window@@XZ 0040b0b0 f i GraphicalUI.obj
 0001:0000a0c0       ?cb_aaSlides@GraphicalUI@@CAXPAVFl_Widget@@PAX@Z 0040b0c0 f   GraphicalUI.obj
 0001:0000a0e0       ?cb_debuggingDisplayCheckButton@GraphicalUI@@CAXPAVFl_Widget@@PAX@Z 0040b0e0 f   GraphicalUI.obj
 0001:0000a110       ?cb_depthSlides@GraphicalUI@@CAXPAVFl_Widget@@PAX@Z 0040b110 f   GraphicalUI.obj
 0001:0000a130       ?cb_exit2@GraphicalUI@@CAXPAVFl_Widget@@PAX@Z 0040b130 f   GraphicalUI.obj
 0001:0000a180       ?cb_kdCheckButton@GraphicalUI@@CAXPAVFl_Widget@@PAX@Z 0040b180 f   GraphicalUI.obj
 0001:0000a1a0       ?cb_render@GraphicalUI@@CAXPAVFl_Widget@@PAX@Z 0040b1a0 f   GraphicalUI.obj
 0001:0000a410       ?cb_sizeSlides@GraphicalUI@@CAXPAVFl_Widget@@PAX@Z 0040b410 f   GraphicalUI.obj
 0001:0000a490       ?cb_stop@GraphicalUI@@CAXPAVFl_Widget@@PAX@Z 0040b490 f   GraphicalUI.obj
 0001:0000a4a0       ?getValue@Dialog2@@QAEHXZ  0040b4a0 f i GraphicalUI.obj
 0001:0000a620       ?run@GraphicalUI@@UAEHXZ   0040b620 f   GraphicalUI.obj
 0001:0000a640       ?setRayTracer@GraphicalUI@@UAEXPAVRayTracer@@@Z 0040b640 f   GraphicalUI.obj
 0001:0000a670       ?stopTracing@GraphicalUI@@SAXXZ 0040b670 f   GraphicalUI.obj
 0001:0000a6a0       ?whoami@GraphicalUI@@CAPAV1@PAVFl_Menu_@@@Z 0040b6a0 f   GraphicalUI.obj
 0001:0000a6b0       _sprintf                   0040b6b0 f i GraphicalUI.obj
 0001:0000a6f0       ??$makeHRotX@M@@YAXAAV?$Mat4@M@@M@Z 0040b6f0 f i ModelerCamera.obj
 0001:0000a7a0       ??$makeHRotY@M@@YAXAAV?$Mat4@M@@M@Z 0040b7a0 f i ModelerCamera.obj
 0001:0000a850       ??$makeHTrans@M@@YAXAAV?$Mat4@M@@ABV?$Vec3@M@@@Z 0040b850 f i ModelerCamera.obj
 0001:0000a8e0       ??0ModelerCamera@@QAE@XZ   0040b8e0 f   ModelerCamera.obj
 0001:0000a980       ?applyViewingTransform@ModelerCamera@@QAEXXZ 0040b980 f   ModelerCamera.obj
 0001:0000aa20       ?calculateViewingTransformParameters@ModelerCamera@@IAEXXZ 0040ba20 f   ModelerCamera.obj
 0001:0000ad70       ?clickMouse@ModelerCamera@@QAEXW4MouseAction_t@@HH@Z 0040bd70 f   ModelerCamera.obj
 0001:0000ada0       ?dragMouse@ModelerCamera@@QAEXHH@Z 0040bda0 f   ModelerCamera.obj
 0001:0000b0b0       ?releaseMouse@ModelerCamera@@QAEXHH@Z 0040c0b0 f   ModelerCamera.obj
 0001:0000b0c0       ?reset@ModelerCamera@@QAEXXZ 0040c0c0 f   ModelerCamera.obj
 0001:0000b100       ??$?6U?$char_traits@D@std@@@std@@YAAAV?$basic_ostream@DU?$char_traits@D@std@@@0@AAV10@D@Z 0040c100 f i buffer.obj
 0001:0000b310       ??$getline@DU?$char_traits@D@std@@V?$allocator@D@2@@std@@YAAAV?$basic_istream@DU?$char_traits@D@std@@@0@$$QAV10@AAV?$basic_string@DU?$char_traits@D@std@@V?$allocator@D@2@@0@D@Z 0040c310 f i buffer.obj
 0001:0000b490       ??0Buffer@@QAE@AAV?$basic_istream@DU?$char_traits@D@std@@@std@@_N1@Z 0040c490 f   buffer.obj
 0001:0000b4f0       ??1_Sentry_base@?$basic_istream@DU?$char_traits@D@std@@@std@@QAE@XZ 0040c4f0 f i buffer.obj
 0001:0000b540       ??1sentry@?$basic_istream@DU?$char_traits@D@std@@@std@@QAE@XZ 0040c540 f i buffer.obj
 0001:0000b590       ?GetCh@Buffer@@QAEDXZ      0040c590 f   buffer.obj
 0001:0000b660       ?GetLine@Buffer@@IAEXXZ    0040c660 f   buffer.obj
 0001:0000b720       ?PrintLine@Buffer@@QBEXAAV?$basic_ostream@DU?$char_traits@D@std@@@std@@@Z 0040c720 f   buffer.obj
 0001:0000b770       ??$?4G@?$CImg@E@cimg_library@@QAEAAU01@ABU?$CImg@G@1@@Z 0040c770 f i imageio.obj
 0001:0000b790       ??$__vcrt_va_start_verify_argument_type@PBD@@YAXXZ 0040c790 f i imageio.obj
 0001:0000b7a0       ??$_render_resize@II@CImgDisplay@cimg_library@@SAXPBIIIPAIII@Z 0040c7a0 f i imageio.obj
 0001:0000b9a0       ??$assign@E@?$CImgl@E@cimg_library@@QAEAAU01@ABU01@_N@Z 0040c9a0 f i imageio.obj
 0001:0000ba00       ??$assign@E@?$CImgl@E@cimg_library@@QAEAAU01@IABU?$CImg@E@1@_N@Z 0040ca00 f i imageio.obj
 0001:0000ba60       ??$assign@E@CImgDisplay@cimg_library@@QAEAAU01@ABU?$CImg@E@1@PBDII_N2@Z 0040ca60 f i imageio.obj
 0001:0000bc30       ??$assign@E@CImgStats@cimg_library@@QAEAAU01@ABU?$CImg@E@1@_N@Z 0040cc30 f i imageio.obj
 0001:0000bed0       ??$assign@G@?$CImg@E@cimg_library@@QAEAAU01@QBGIIII@Z 0040ced0 f i imageio.obj
 0001:0000bf70       ??$assign@M@CImgStats@cimg_library@@QAEAAU01@ABU?$CImg@M@1@_N@Z 0040cf70 f i imageio.obj
 0001:0000c1f0       ??$dialog@E@cimg@cimg_library@@YAHPBD0000000ABU?$CImg@E@1@_N@Z 0040d1f0 f i imageio.obj
 0001:0000dc80       ??$display@E@CImgDisplay@cimg_library@@QAEAAU01@ABU?$CImg@E@1@@Z 0040ec80 f i imageio.obj
 0001:0000dce0       ??$draw_image@EE@?$CImg@E@cimg_library@@QAEAAU01@ABU01@0HHHHEM@Z 0040ece0 f i imageio.obj
 0001:0000e3f0       ??$draw_text@E@?$CImg@E@cimg_library@@QAEAAU01@QBDHHQBE1ABU?$CImgl@E@1@M@Z 0040f3f0 f i imageio.obj
 0001:0000ea20       ??$endian_swap@F@cimg@cimg_library@@YAXQAFI@Z 0040fa20 f i imageio.obj
 0001:0000ea50       ??$endian_swap@G@cimg@cimg_library@@YAXQAGI@Z 0040fa50 f i imageio.obj
 0001:0000ea80       ??$endian_swap@H@cimg@cimg_library@@YAXQAHI@Z 0040fa80 f i imageio.obj
 0001:0000eaa0       ??$endian_swap@I@cimg@cimg_library@@YAXQAII@Z 0040faa0 f i imageio.obj
 0001:0000eac0       ??$endian_swap@J@cimg@cimg_library@@YAXQAJI@Z 0040fac0 f i imageio.obj
 0001:0000eae0       ??$endian_swap@K@cimg@cimg_library@@YAXQAKI@Z 0040fae0 f i imageio.obj
 0001:0000eb00       ??$endian_swap@M@cimg@cimg_library@@YAXQAMI@Z 0040fb00 f i imageio.obj
 0001:0000eb20       ??$endian_swap@N@cimg@cimg_library@@YAXQANI@Z 0040fb20 f i imageio.obj
 0001:0000eba0       ??$fread@D@cimg@cimg_library@@YAHPADIPAU_iobuf@@@Z 0040fba0 f i imageio.obj
 0001:0000ec30       ??$fread@E@cimg@cimg_library@@YAHPAEIPAU_iobuf@@@Z 0040fc30 f i imageio.obj
 0001:0000ecc0       ??$fread@F@cimg@cimg_library@@YAHPAFIPAU_iobuf@@@Z 0040fcc0 f i imageio.obj
 0001:0000ed50       ??$fread@G@cimg@cimg_library@@YAHPAGIPAU_iobuf@@@Z 0040fd50 f i imageio.obj
 0001:0000ede0       ??$fread@H@cimg@cimg_library@@YAHPAHIPAU_iobuf@@@Z 0040fde0 f i imageio.obj
 0001:0000ee70       ??$fread@I@cimg@cimg_library@@YAHPAIIPAU_iobuf@@@Z 0040fe70 f i imageio.obj
 0001:0000ef00       ??$fread@J@cimg@cimg_library@@YAHPAJIPAU_iobuf@@@Z 0040ff00 f i imageio.obj
 0001:0000efa0       ??$fread@K@cimg@cimg_library@@YAHPAKIPAU_iobuf@@@Z 0040ffa0 f i imageio.obj
 0001:0000f030       ??$fread@M@cimg@cimg_library@@YAHPAMIPAU_iobuf@@@Z 00410030 f i imageio.obj
 0001:0000f0c0       ??$fread@N@cimg@cimg_library@@YAHPANIPAU_iobuf@@@Z 004100c0 f i imageio.obj
 0001:0000f150       ??$fwrite@E@cimg@cimg_library@@YAHPBEIPAU_iobuf@@@Z 00410150 f i imageio.obj
 0001:0000f1f0       ??$fwrite@G@cimg@cimg_library@@YAHPBGIPAU_iobuf@@@Z 004101f0 f i imageio.obj
 0001:0000f290       ??$render@E@CImgDisplay@cimg_library@@QAEAAU01@ABU?$CImg@E@1@@Z 00410290 f i imageio.obj
 0001:0000f5d0       ??0?$CImg@E@cimg_library@@QAE@ABU01@@Z 004105d0 f i imageio.obj
 0001:0000f670       ??0?$CImg@E@cimg_library@@QAE@IIII@Z 00410670 f i imageio.obj
 0001:0000f6f0       ??0?$CImg@E@cimg_library@@QAE@IIIIABE@Z 004106f0 f i imageio.obj
 0001:0000f7a0       ??0?$CImg@E@cimg_library@@QAE@QBD@Z 004107a0 f i imageio.obj
 0001:0000f840       ??0?$CImg@E@cimg_library@@QAE@QBEIIII_N@Z 00410840 f i imageio.obj
 0001:0000f8e0       ??0?$CImg@E@cimg_library@@QAE@XZ 004108e0 f i imageio.obj
 0001:0000f910       ??0?$CImg@G@cimg_library@@QAE@IIII@Z 00410910 f i imageio.obj
 0001:0000f9a0       ??0?$CImg@I@cimg_library@@QAE@ABU01@@Z 004109a0 f i imageio.obj
 0001:0000fa60       ??0?$CImg@I@cimg_library@@QAE@IIII@Z 00410a60 f i imageio.obj
 0001:0000faf0       ??0?$CImg@I@cimg_library@@QAE@XZ 00410af0 f i imageio.obj
 0001:0000fb20       ??0?$CImg@M@cimg_library@@QAE@ABU01@@Z 00410b20 f i imageio.obj
 0001:0000fbe0       ??0?$CImg@M@cimg_library@@QAE@IIII@Z 00410be0 f i imageio.obj
 0001:0000fc70       ??0?$CImg@M@cimg_library@@QAE@XZ 00410c70 f i imageio.obj
 0001:0000fca0       ??0?$CImgl@E@cimg_library@@QAE@ABU01@@Z 00410ca0 f i imageio.obj
 0001:0000fcd0       ??0?$CImgl@E@cimg_library@@QAE@I@Z 00410cd0 f i imageio.obj
 0001:0000fd90       ??0CImgArgumentException@cimg_library@@QAA@PBDZZ 00410d90 f i imageio.obj
 0001:0000fe80       ??0CImgIOException@cimg_library@@QAA@PBDZZ 00410e80 f i imageio.obj
 0001:0000ff70       ??0CImgInstanceException@cimg_library@@QAA@PBDZZ 00410f70 f i imageio.obj
 0001:00010060       ??1?$CImg@E@cimg_library@@QAE@XZ 00411060 f i imageio.obj
 0001:00010080       ??1?$CImg@G@cimg_library@@QAE@XZ 00411080 f i imageio.obj
 0001:000100a0       ??1?$CImg@I@cimg_library@@QAE@XZ 004110a0 f i imageio.obj
 0001:000100c0       ??1?$CImg@M@cimg_library@@QAE@XZ 004110c0 f i imageio.obj
 0001:000100e0       ??1?$CImgl@E@cimg_library@@QAE@XZ 004110e0 f i imageio.obj
 0001:00010150       ??1?$CImgl@I@cimg_library@@QAE@XZ 00411150 f i imageio.obj
 0001:000101c0       ??1?$CImgl@M@cimg_library@@QAE@XZ 004111c0 f i imageio.obj
 0001:00010230       ??1CImgDisplay@cimg_library@@QAE@XZ 00411230 f i imageio.obj
 0001:00010240       ??4?$CImg@E@cimg_library@@QAEAAU01@ABU01@@Z 00411240 f i imageio.obj
 0001:00010260       ??_E?$CImg@E@cimg_library@@QAEPAXI@Z 00411260 f i imageio.obj
 0001:00010310       ??_E?$CImg@I@cimg_library@@QAEPAXI@Z 00411310 f i imageio.obj
 0001:000103c0       ??_E?$CImg@M@cimg_library@@QAEPAXI@Z 004113c0 f i imageio.obj
 0001:00010470       ?Win32attr@cimg@cimg_library@@YAAAUWin32info@12@XZ 00411470 f i imageio.obj
 0001:000104d0       ?_events_thread@CImgDisplay@cimg_library@@SGKPAX@Z 004114d0 f i imageio.obj
 0001:000107d0       ?_handle_events@CImgDisplay@cimg_library@@SGJPAUHWND__@@IIJ@Z 004117d0 f i imageio.obj
 0001:00010ac0       ?_init_fullscreen@CImgDisplay@cimg_library@@QAEXXZ 00411ac0 f i imageio.obj
 0001:00010c90       ?_load_inr@?$CImg@E@cimg_library@@SAXPAU_iobuf@@QAHPAM@Z 00411c90 f i imageio.obj
 0001:000110d0       ?assign@?$CImg@E@cimg_library@@QAEAAU12@IIII@Z 004120d0 f i imageio.obj
 0001:000111e0       ?assign@?$CImg@E@cimg_library@@QAEAAU12@IIIIABE@Z 004121e0 f i imageio.obj
 0001:00011240       ?assign@?$CImg@E@cimg_library@@QAEAAU12@QBEIIII@Z 00412240 f i imageio.obj
 0001:000112c0       ?assign@?$CImg@E@cimg_library@@QAEAAU12@QBEIIII_N@Z 004122c0 f i imageio.obj
 0001:00011370       ?assign@?$CImg@I@cimg_library@@QAEAAU12@IIII@Z 00412370 f i imageio.obj
 0001:00011490       ?assign@?$CImg@I@cimg_library@@QAEAAU12@QBIIIII@Z 00412490 f i imageio.obj
 0001:00011520       ?assign@?$CImg@M@cimg_library@@QAEAAU12@IIII@Z 00412520 f i imageio.obj
 0001:00011640       ?assign@?$CImg@M@cimg_library@@QAEAAU12@QBMIIII@Z 00412640 f i imageio.obj
 0001:000116d0       ?assign@?$CImgl@E@cimg_library@@QAEAAU12@I@Z 004126d0 f i imageio.obj
 0001:00011820       ?assign@?$CImgl@E@cimg_library@@QAEAAU12@IIIII@Z 00412820 f i imageio.obj
 0001:00011900       ?assign@?$CImgl@E@cimg_library@@QAEAAU12@XZ 00412900 f i imageio.obj
 0001:00011990       ?assign@CImgDisplay@cimg_library@@QAEAAU12@XZ 00412990 f i imageio.obj
 0001:00011aa0       ?assign_lowlevel@CImgDisplay@cimg_library@@QAEAAU12@IIPBDII_N1@Z 00412aa0 f i imageio.obj
 0001:00011c20       ?convert_path@cimg@cimg_library@@YAPBDXZ 00412c20 f i imageio.obj
 0001:000120c0       ?cubic_pix2d@?$CImg@E@cimg_library@@QBEMMMHH@Z 004130c0 f i imageio.obj
 0001:000128b0       ?draw_image@?$CImg@E@cimg_library@@QAEAAU12@ABU12@HHHHM@Z 004138b0 f i imageio.obj
 0001:00012ef0       ?draw_line@?$CImg@E@cimg_library@@QAEAAU12@HHHHQBEIM@Z 00413ef0 f i imageio.obj
 0001:00013420       ?draw_rectangle@?$CImg@E@cimg_library@@QAEAAU12@HHHHHHQBEM@Z 00414420 f i imageio.obj
 0001:00013820       ?draw_text@?$CImg@E@cimg_library@@QAEAAU12@QBDHHQBE1IM@Z 00414820 f i imageio.obj
 0001:000138e0       ?fclose@cimg@cimg_library@@YAHPAU_iobuf@@@Z 004148e0 f i imageio.obj
 0001:00013950       ?filename_split@cimg@cimg_library@@YAPBDQBDQAD@Z 00414950 f i imageio.obj
 0001:000139f0       ?fill@?$CImg@E@cimg_library@@QAEAAU12@ABE@Z 004149f0 f i imageio.obj
 0001:00013a40       ?fill@?$CImg@I@cimg_library@@QAEAAU12@ABI00@Z 00414a40 f i imageio.obj
 0001:00013af0       ?fill@?$CImg@M@cimg_library@@QAEAAU12@ABM0000000@Z 00414af0 f i imageio.obj
 0001:00013c10       ?fill@?$CImg@M@cimg_library@@QAEAAU12@ABM@Z 00414c10 f i imageio.obj
 0001:00013c90       ?fopen@cimg@cimg_library@@YAPAU_iobuf@@QBD0@Z 00414c90 f i imageio.obj
 0001:00013d60       ?get_append@?$CImgl@E@cimg_library@@QBE?AU?$CImg@E@2@DD@Z 00414d60 f i imageio.obj
 0001:00014670       ?get_crop@?$CImg@E@cimg_library@@QBE?AU12@IIIIIIII_N@Z 00415670 f i imageio.obj
 0001:00014d00       ?get_crop@?$CImg@E@cimg_library@@QBE?AU12@IIII_N@Z 00415d00 f i imageio.obj
 0001:00014d40       ?get_crop_font@?$CImgl@E@cimg_library@@QBE?AU12@XZ 00415d40 f i imageio.obj
 0001:00015090       ?get_font@?$CImgl@E@cimg_library@@SA?AU12@I_N@Z 00416090 f i imageio.obj
 0001:00015b20       ?get_font@?$CImgl@E@cimg_library@@SA?AU12@QBIIIII_N@Z 00416b20 f i imageio.obj
 0001:00015ef0       ?get_load@?$CImg@E@cimg_library@@SA?AU12@PBD@Z 00416ef0 f i imageio.obj
 0001:000161f0       ?get_load@?$CImgl@E@cimg_library@@SA?AU12@PBD@Z 004171f0 f i imageio.obj
 0001:00016360       ?get_load_analyze@?$CImg@E@cimg_library@@SA?AU12@PBDPAM@Z 00417360 f i imageio.obj
 0001:00016b40       ?get_load_ascii@?$CImg@E@cimg_library@@SA?AU12@PBD@Z 00417b40 f i imageio.obj
 0001:00016d30       ?get_load_bmp@?$CImg@E@cimg_library@@SA?AU12@PBD@Z 00417d30 f i imageio.obj
 0001:00017720       ?get_load_cimg@?$CImg@E@cimg_library@@SA?AU12@PBDDD@Z 00418720 f i imageio.obj
 0001:000177e0       ?get_load_cimg@?$CImgl@E@cimg_library@@SA?AU12@PBD@Z 004187e0 f i imageio.obj
 0001:0001a120       ?get_load_convert@?$CImg@E@cimg_library@@SA?AU12@PBD@Z 0041b120 f i imageio.obj
 0001:0001a290       ?get_load_dicom@?$CImg@E@cimg_library@@SA?AU12@PBD@Z 0041b290 f i imageio.obj
 0001:0001a460       ?get_load_dlm@?$CImg@E@cimg_library@@SA?AU12@PBD@Z 0041b460 f i imageio.obj
 0001:0001a890       ?get_load_inr@?$CImg@E@cimg_library@@SA?AU12@PBDPAM@Z 0041b890 f i imageio.obj
 0001:0001b650       ?get_load_jpeg@?$CImg@E@cimg_library@@SA?AU12@PBD@Z 0041c650 f i imageio.obj
 0001:0001b670       ?get_load_pandore@?$CImg@E@cimg_library@@SA?AU12@PBD@Z 0041c670 f i imageio.obj
 0001:0001d740       ?get_load_parrec@?$CImg@E@cimg_library@@SA?AU12@PBDDD@Z 0041e740 f i imageio.obj
 0001:0001d7f0       ?get_load_parrec@?$CImgl@E@cimg_library@@SA?AU12@PBD@Z 0041e7f0 f i imageio.obj
 0001:0001e580       ?get_load_png@?$CImg@E@cimg_library@@SA?AU12@PBD@Z 0041f580 f i imageio.obj
 0001:0001e5a0       ?get_load_pnm@?$CImg@E@cimg_library@@SA?AU12@PBD@Z 0041f5a0 f i imageio.obj
 0001:0001ecb0       ?get_load_tiff@?$CImg@E@cimg_library@@SA?AU12@PBD@Z 0041fcb0 f i imageio.obj
 0001:0001ecd0       ?get_logo40x38@?$CImg@E@cimg_library@@SA?AU12@XZ 0041fcd0 f i imageio.obj
 0001:0001ee20       ?get_norm_pointwise@?$CImg@E@cimg_library@@QBE?AU?$CImg@M@2@H@Z 0041fe20 f i imageio.obj
 0001:0001f150       ?get_norm_pointwise@?$CImg@M@cimg_library@@QBE?AU12@H@Z 00420150 f i imageio.obj
 0001:0001f4e0       ?get_projections2d@?$CImg@E@cimg_library@@QBE?AU12@III@Z 004204e0 f i imageio.obj
 0001:0001f780       ?get_resize@?$CImg@E@cimg_library@@QBE?AU12@HHHHI@Z 00420780 f i imageio.obj
 0001:00020850       ?get_shared_channel@?$CImg@E@cimg_library@@QAE?AU12@I@Z 00421850 f i imageio.obj
 0001:00020880       ?get_shared_channels@?$CImg@E@cimg_library@@QAE?AU12@II@Z 00421880 f i imageio.obj
 0001:00020980       ?insert@?$CImgl@E@cimg_library@@QAEAAU12@ABU12@I@Z 00421980 f i imageio.obj
 0001:00020a70       ?insert@?$CImgl@E@cimg_library@@QAEAAU12@ABU?$CImg@E@2@I_N@Z 00421a70 f i imageio.obj
 0001:00020d70       ?insert@?$CImgl@I@cimg_library@@QAEAAU12@ABU?$CImg@I@2@I_N@Z 00421d70 f i imageio.obj
 0001:00021070       ?insert@?$CImgl@M@cimg_library@@QAEAAU12@ABU?$CImg@M@2@I_N@Z 00422070 f i imageio.obj
 0001:00021370       ?is_empty@?$CImg@E@cimg_library@@QBE_NXZ 00422370 f i imageio.obj
 0001:000213a0       ?is_empty@?$CImg@I@cimg_library@@QBE_NXZ 004223a0 f i imageio.obj
 0001:000213d0       ?is_empty@?$CImg@M@cimg_library@@QBE_NXZ 004223d0 f i imageio.obj
 0001:00021400       ?linear_pix4d@?$CImg@E@cimg_library@@QBEMMMMM@Z 00422400 f i imageio.obj
 0001:00021920       ?load@?$CImgl@E@cimg_library@@QAEAAU12@PBD@Z 00422920 f i imageio.obj
 0001:000219d0       ?load@@YAPAEPBDAAH1@Z      004229d0 f   imageio.obj
 0001:00021b00       ?medcon_path@cimg@cimg_library@@YAPBDXZ 00422b00 f i imageio.obj
 0001:00021bb0       ?mirror@?$CImg@E@cimg_library@@QAEAAU12@D@Z 00422bb0 f i imageio.obj
 0001:00021fc0       ?move@CImgDisplay@cimg_library@@QAEAAU12@HH@Z 00422fc0 f i imageio.obj
 0001:00022080       ?normalize@?$CImg@M@cimg_library@@QAEAAU12@ABM0@Z 00423080 f i imageio.obj
 0001:00022190       ?paint@CImgDisplay@cimg_library@@QAEAAU12@XZ 00423190 f i imageio.obj
 0001:000221e0       ?resize@?$CImg@E@cimg_library@@QAEAAU12@HHHHI@Z 004231e0 f i imageio.obj
 0001:00022340       ?resize@CImgDisplay@cimg_library@@QAEAAU12@HH_N@Z 00423340 f i imageio.obj
 0001:000225a0       ?save@@YAXPBDPBEHH0H@Z     004235a0 f   imageio.obj
 0001:000227a0       ?save_convert@?$CImg@E@cimg_library@@QBEABU12@PBDI@Z 004237a0 f i imageio.obj
 0001:00022980       ?save_pnm@?$CImg@E@cimg_library@@QBEABU12@PBD@Z 00423980 f i imageio.obj
 0001:00022e80       ?save_pnm@?$CImg@M@cimg_library@@QBEABU12@PBD@Z 00423e80 f i imageio.obj
 0001:00023390       ?show@CImgDisplay@cimg_library@@QAEAAU12@XZ 00424390 f i imageio.obj
 0001:00023490       ?strcasecmp@cimg@cimg_library@@YAHPBD0@Z 00424490 f i imageio.obj
 0001:00023500       ?strlen@cimg@cimg_library@@YAHPBD@Z 00424500 f i imageio.obj
 0001:00023520       ?strncasecmp@cimg@cimg_library@@YAHPBD0H@Z 00424520 f i imageio.obj
 0001:00023590       ?strncmp@cimg@cimg_library@@YAHPBD0H@Z 00424590 f i imageio.obj
 0001:00023740       ?swap@?$CImg@E@cimg_library@@QAEAAU12@AAU12@@Z 00424740 f i imageio.obj
 0001:000237d0       ?system@cimg@cimg_library@@YAXPBD@Z 004247d0 f i imageio.obj
 0001:00023850       ?temporary_path@cimg@cimg_library@@YAPBDXZ 00424850 f i imageio.obj
 0001:00023980       ?vector@?$CImg@I@cimg_library@@SA?AU12@ABI00@Z 00424980 f i imageio.obj
 0001:00023a10       ?vector@?$CImg@M@cimg_library@@SA?AU12@ABM0000000@Z 00424a10 f i imageio.obj
 0001:00023ab0       ?wait@cimg@cimg_library@@YAIIAAK@Z 00424ab0 f i imageio.obj
 0001:00023b70       ?warn@cimg@cimg_library@@YAX_NPBDZZ 00424b70 f i imageio.obj
 0001:00023bd0       ___local_stdio_scanf_options 00424bd0 f i imageio.obj
 0001:00023be0       _fprintf                   00424be0 f i imageio.obj
 0001:00023c10       _fscanf                    00424c10 f i imageio.obj
 0001:00023c40       _sscanf                    00424c40 f i imageio.obj
 0001:00023c70       ??0Camera@@QAE@XZ          00424c70 f   camera.obj
 0001:00023d10       ?rayThrough@Camera@@QAEXNNAAVray@@@Z 00424d10 f   camera.obj
 0001:00023e30       ?setAspectRatio@Camera@@QAEXN@Z 00424e30 f   camera.obj
 0001:00023fd0       ?setEye@Camera@@QAEXABV?$Vec3@N@@@Z 00424fd0 f   camera.obj
 0001:00024000       ?setFOV@Camera@@QAEXN@Z    00425000 f   camera.obj
 0001:000241c0       ?setLook@Camera@@QAEXABV?$Vec3@N@@0@Z 004251c0 f   camera.obj
 0001:00024400       ?setLook@Camera@@QAEXNNNN@Z 00425400 f   camera.obj
 0001:000246c0       ?setLookSimple@Camera@@QAE_NABV?$Vec3@N@@0@Z 004256c0 f   camera.obj
 0001:00024920       ?update@Camera@@AAEXXZ     00425920 f   camera.obj
 0001:00024ab0       ?distanceAttenuation@DirectionalLight@@UBENABV?$Vec3@N@@@Z 00425ab0 f   light.obj
 0001:00024ac0       ?distanceAttenuation@PointLight@@UBENABV?$Vec3@N@@@Z 00425ac0 f   light.obj
 0001:00024b60       ?getColor@DirectionalLight@@UBE?AV?$Vec3@N@@ABV2@@Z 00425b60 f   light.obj
 0001:00024b80       ?getColor@PointLight@@UBE?AV?$Vec3@N@@ABV2@@Z 00425b80 f   light.obj
 0001:00024ba0       ?getDirection@DirectionalLight@@UBE?AV?$Vec3@N@@ABV2@@Z 00425ba0 f   light.obj
 0001:00024bd0       ?getDirection@PointLight@@UBE?AV?$Vec3@N@@ABV2@@Z 00425bd0 f   light.obj
 0001:00024c60       ?shadowAttenuation@DirectionalLight@@UBE?AV?$Vec3@N@@ABVray@@ABV2@@Z 00425c60 f   light.obj
 0001:00024e80       ?shadowAttenuation@PointLight@@UBE?AV?$Vec3@N@@ABVray@@ABV2@@Z 00425e80 f   light.obj
 0001:00025290       ??0TextureMap@@QAE@V?$basic_string@DU?$char_traits@D@std@@V?$allocator@D@2@@std@@@Z 00426290 f   material.obj
 0001:00025420       ??0TextureMapException@@QAE@ABV0@@Z 00426420 f i material.obj
 0001:00025450       ?getMappedValue@TextureMap@@QBE?AV?$Vec3@N@@ABV?$Vec2@N@@@Z 00426450 f   material.obj
 0001:00025510       ?getPixelAt@TextureMap@@ABE?AV?$Vec3@N@@HH@Z 00426510 f   material.obj
 0001:000255b0       ?intensityValue@MaterialParameter@@QBENABVisect@@@Z 004265b0 f   material.obj
 0001:00025670       ?shade@Material@@UBE?AV?$Vec3@N@@PAVScene@@ABVray@@ABVisect@@@Z 00426670 f   material.obj
 0001:00025fb0       ?shininess@Material@@QBENABVisect@@@Z 00426fb0 f i material.obj
 0001:000260d0       ?value@MaterialParameter@@QBE?AV?$Vec3@N@@ABVisect@@@Z 004270d0 f   material.obj
 0001:00026120       ?getMaterial@isect@@QBEABVMaterial@@XZ 00427120 f   ray.obj
 0001:00026130       ??$?8V?$KDNode@VGeometry@@@@U?$default_delete@V?$KDNode@VGeometry@@@@@std@@@std@@YA_NABV?$unique_ptr@V?$KDNode@VGeometry@@@@U?$default_delete@V?$KDNode@VGeometry@@@@@std@@@0@$$T@Z 00427130 f i scene.obj
 0001:00026140       ??$?9V?$KDNode@VGeometry@@@@U?$default_delete@V?$KDNode@VGeometry@@@@@std@@@std@@YA_NABV?$unique_ptr@V?$KDNode@VGeometry@@@@U?$default_delete@V?$KDNode@VGeometry@@@@@std@@@0@$$T@Z 00427140 f i scene.obj
 0001:00026150       ??$_Buynode@ABUpiecewise_construct_t@std@@V?$tuple@ABV?$basic_string@DU?$char_traits@D@std@@V?$allocator@D@2@@std@@@2@V?$tuple@$$V@2@@?$_Tree_comp_alloc@V?$_Tmap_traits@V?$basic_string@DU?$char_traits@D@std@@V?$allocator@D@2@@std@@PAVTextureMap@@U?$less@V?$basic_string@DU?$char_traits@D@std@@V?$allocator@D@2@@std@@@2@V?$allocator@U?$pair@$$CBV?$basic_string@DU?$char_traits@D@std@@V?$allocator@D@2@@std@@PAVTextureMap@@@std@@@2@$0A@@std@@@std@@QAEPAU?$_Tree_node@U?$pair@$$CBV?$basic_string@DU?$char_traits@D@std@@V?$allocator@D@2@@std@@PAVTextureMap@@@std@@PAX@1@ABUpiecewise_construct_t@1@$$QAV?$tuple@ABV?$basic_string@DU?$char_traits@D@std@@V?$allocator@D@2@@std@@@1@$$QAV?$tuple@$$V@1@@Z 00427150 f i scene.obj
 0001:00026210       ??$_Destroy_range@V?$allocator@U?$pair@Vray@@Visect@@@std@@@std@@PAU?$pair@Vray@@Visect@@@2@@std@@YAXPAU?$pair@Vray@@Visect@@@0@0AAU?$_Wrap_alloc@V?$allocator@U?$pair@Vray@@Visect@@@std@@@std@@@0@@Z 00427210 f i scene.obj
 0001:00026240       ??$_Insert_at@AAU?$pair@$$CBV?$basic_string@DU?$char_traits@D@std@@V?$allocator@D@2@@std@@PAVTextureMap@@@std@@PAU?$_Tree_node@U?$pair@$$CBV?$basic_string@DU?$char_traits@D@std@@V?$allocator@D@2@@std@@PAVTextureMap@@@std@@PAX@2@@?$_Tree@V?$_Tmap_traits@V?$basic_string@DU?$char_traits@D@std@@V?$allocator@D@2@@std@@PAVTextureMap@@U?$less@V?$basic_string@DU?$char_traits@D@std@@V?$allocator@D@2@@std@@@2@V?$allocator@U?$pair@$$CBV?$basic_string@DU?$char_traits@D@std@@V?$allocator@D@2@@std@@PAVTextureMap@@@std@@@2@$0A@@std@@@std@@IAE?AV?$_Tree_iterator@V?$_Tree_val@U?$_Tree_simple_types@U?$pair@$$CBV?$basic_string@DU?$char_traits@D@std@@V?$allocator@D@2@@std@@PAVTextureMap@@@std@@@std@@@std@@@1@_NPAU?$_Tree_node@U?$pair@$$CBV?$basic_string@DU?$char_traits@D@std@@V?$allocator@D@2@@std@@PAVTextureMap@@@std@@PAX@1@AAU?$pair@$$CBV?$basic_string@DU?$char_traits@D@std@@V?$allocator@D@2@@std@@PAVTextureMap@@@1@1@Z 00427240 f i scene.obj
 0001:00026410       ??$_Insert_hint@AAU?$pair@$$CBV?$basic_string@DU?$char_traits@D@std@@V?$allocator@D@2@@std@@PAVTextureMap@@@std@@PAU?$_Tree_node@U?$pair@$$CBV?$basic_string@DU?$char_traits@D@std@@V?$allocator@D@2@@std@@PAVTextureMap@@@std@@PAX@2@@?$_Tree@V?$_Tmap_traits@V?$basic_string@DU?$char_traits@D@std@@V?$allocator@D@2@@std@@PAVTextureMap@@U?$less@V?$basic_string@DU?$char_traits@D@std@@V?$allocator@D@2@@std@@@2@V?$allocator@U?$pair@$$CBV?$basic_string@DU?$char_traits@D@std@@V?$allocator@D@2@@std@@PAVTextureMap@@@std@@@2@$0A@@std@@@std@@IAE?AV?$_Tree_iterator@V?$_Tree_val@U?$_Tree_simple_types@U?$pair@$$CBV?$basic_string@DU?$char_traits@D@std@@V?$allocator@D@2@@std@@PAVTextureMap@@@std@@@std@@@std@@@1@V?$_Tree_const_iterator@V?$_Tree_val@U?$_Tree_simple_types@U?$pair@$$CBV?$basic_string@DU?$char_traits@D@std@@V?$allocator@D@2@@std@@PAVTextureMap@@@std@@@std@@@std@@@1@AAU?$pair@$$CBV?$basic_string@DU?$char_traits@D@std@@V?$allocator@D@2@@std@@PAVTextureMap@@@1@PAU?$_Tree_node@U?$pair@$$CBV?$basic_string@DU?$char_traits@D@std@@V?$allocator@D@2@@std@@PAVTextureMap@@@std@@PAX@1@@Z 00427410 f i scene.obj
 0001:00026670       ??$_Insert_nohint@AAU?$pair@$$CBV?$basic_string@DU?$char_traits@D@std@@V?$allocator@D@2@@std@@PAVTextureMap@@@std@@PAU?$_Tree_node@U?$pair@$$CBV?$basic_string@DU?$char_traits@D@std@@V?$allocator@D@2@@std@@PAVTextureMap@@@std@@PAX@2@@?$_Tree@V?$_Tmap_traits@V?$basic_string@DU?$char_traits@D@std@@V?$allocator@D@2@@std@@PAVTextureMap@@U?$less@V?$basic_string@DU?$char_traits@D@std@@V?$allocator@D@2@@std@@@2@V?$allocator@U?$pair@$$CBV?$basic_string@DU?$char_traits@D@std@@V?$allocator@D@2@@std@@PAVTextureMap@@@std@@@2@$0A@@std@@@std@@IAE?AU?$pair@V?$_Tree_iterator@V?$_Tree_val@U?$_Tree_simple_types@U?$pair@$$CBV?$basic_string@DU?$char_traits@D@std@@V?$allocator@D@2@@std@@PAVTextureMap@@@std@@@std@@@std@@@std@@_N@1@_NAAU?$pair@$$CBV?$basic_string@DU?$char_traits@D@std@@V?$allocator@D@2@@std@@PAVTextureMap@@@1@PAU?$_Tree_node@U?$pair@$$CBV?$basic_string@DU?$char_traits@D@std@@V?$allocator@D@2@@std@@PAVTextureMap@@@std@@PAX@1@@Z 00427670 f i scene.obj
 0001:000268e0       ??$_Lbound@V?$basic_string@DU?$char_traits@D@std@@V?$allocator@D@2@@std@@@?$_Tree@V?$_Tmap_traits@V?$basic_string@DU?$char_traits@D@std@@V?$allocator@D@2@@std@@PAVTextureMap@@U?$less@V?$basic_string@DU?$char_traits@D@std@@V?$allocator@D@2@@std@@@2@V?$allocator@U?$pair@$$CBV?$basic_string@DU?$char_traits@D@std@@V?$allocator@D@2@@std@@PAVTextureMap@@@std@@@2@$0A@@std@@@std@@IBEPAU?$_Tree_node@U?$pair@$$CBV?$basic_string@DU?$char_traits@D@std@@V?$allocator@D@2@@std@@PAVTextureMap@@@std@@PAX@1@ABV?$basic_string@DU?$char_traits@D@std@@V?$allocator@D@2@@1@@Z 004278e0 f i scene.obj
 0001:000269c0       ??$_Try_emplace@ABV?$basic_string@DU?$char_traits@D@std@@V?$allocator@D@2@@std@@$$V@?$map@V?$basic_string@DU?$char_traits@D@std@@V?$allocator@D@2@@std@@PAVTextureMap@@U?$less@V?$basic_string@DU?$char_traits@D@std@@V?$allocator@D@2@@std@@@2@V?$allocator@U?$pair@$$CBV?$basic_string@DU?$char_traits@D@std@@V?$allocator@D@2@@std@@PAVTextureMap@@@std@@@2@@std@@QAE?AU?$pair@V?$_Tree_iterator@V?$_Tree_val@U?$_Tree_simple_types@U?$pair@$$CBV?$basic_string@DU?$char_traits@D@std@@V?$allocator@D@2@@std@@PAVTextureMap@@@std@@@std@@@std@@@std@@_N@1@ABV?$basic_string@DU?$char_traits@D@std@@V?$allocator@D@2@@1@@Z 004279c0 f i scene.obj
 0001:00026a70       ??$_Uninitialized_move_al_unchecked1@PAU?$pair@Vray@@Visect@@@std@@PAU12@V?$allocator@U?$pair@Vray@@Visect@@@std@@@2@@std@@YAPAU?$pair@Vray@@Visect@@@0@PAU10@00AAU?$_Wrap_alloc@V?$allocator@U?$pair@Vray@@Visect@@@std@@@std@@@0@U_General_ptr_iterator_tag@0@U_Any_tag@0@@Z 00427a70 f i scene.obj
 0001:00026bf0       ??$make_pair@ABVray@@AAVisect@@@std@@YA?AU?$pair@Vray@@Visect@@@0@ABVray@@AAVisect@@@Z 00427bf0 f i scene.obj
 0001:00026c60       ??0?$KDNode@VGeometry@@@@QAE@AAV?$vector@PAVGeometry@@V?$allocator@PAVGeometry@@@std@@@std@@IH@Z 00427c60 f i scene.obj
 0001:00027320       ??0?$vector@PAVGeometry@@V?$allocator@PAVGeometry@@@std@@@std@@QAE@ABV01@@Z 00428320 f i scene.obj
 0001:000273b0       ??0Material@@QAE@ABV0@@Z   004283b0 f i scene.obj
 0001:00027560       ??0isect@@QAE@ABV0@@Z      00428560 f i scene.obj
 0001:00027610       ??1?$pair@Vray@@Visect@@@std@@QAE@XZ 00428610 f i scene.obj
 0001:00027630       ??1?$unique_ptr@V?$KDNode@VGeometry@@@@U?$default_delete@V?$KDNode@VGeometry@@@@@std@@@std@@QAE@XZ 00428630 f i scene.obj
 0001:00027640       ??1?$vector@PAVGeometry@@V?$allocator@PAVGeometry@@@std@@@std@@QAE@XZ 00428640 f i scene.obj
 0001:00027680       ??1Scene@@UAE@XZ           00428680 f   scene.obj
 0001:00027bb0       ??1TransformNode@@QAE@XZ   00428bb0 f i scene.obj
 0001:00027c80       ??3@YAXPAX0@Z              00428c80 f i scene.obj
 0001:00027c90       ??4BoundingBox@@QAEXABV0@@Z 00428c90 f   scene.obj
 0001:00027ce0       ??4Material@@QAEAAV0@ABV0@@Z 00428ce0 f i scene.obj
 0001:00027e80       ??4isect@@QAEAAV0@ABV0@@Z  00428e80 f i scene.obj
 0001:00027f50       ??E?$_Tree_unchecked_const_iterator@V?$_Tree_val@U?$_Tree_simple_types@U?$pair@$$CBV?$basic_string@DU?$char_traits@D@std@@V?$allocator@D@2@@std@@PAVTextureMap@@@std@@@std@@@std@@U_Iterator_base0@2@@std@@QAEAAV01@XZ 00428f50 f i scene.obj
 0001:00027fa0       ??F?$_Tree_unchecked_const_iterator@V?$_Tree_val@U?$_Tree_simple_types@U?$pair@$$CBV?$basic_string@DU?$char_traits@D@std@@V?$allocator@D@2@@std@@PAVTextureMap@@@std@@@std@@@std@@U_Iterator_base0@2@@std@@QAEAAV01@XZ 00428fa0 f i scene.obj
 0001:00028000       ??R?$default_delete@V?$KDNode@VGeometry@@@@@std@@QBEXPAV?$KDNode@VGeometry@@@@@Z 00429000 f i scene.obj
 0001:00028060       ??R?$less@V?$basic_string@DU?$char_traits@D@std@@V?$allocator@D@2@@std@@@std@@QBE_NABV?$basic_string@DU?$char_traits@D@std@@V?$allocator@D@2@@1@0@Z 00429060 f i scene.obj
 0001:000280c0       ??_EScene@@UAEPAXI@Z       004290c0 f i scene.obj
 0001:000280c0       ??_GScene@@UAEPAXI@Z       004290c0 f i scene.obj
 0001:000280f0       ?_Buynode0@?$_Tree_comp_alloc@V?$_Tmap_traits@V?$basic_string@DU?$char_traits@D@std@@V?$allocator@D@2@@std@@PAVTextureMap@@U?$less@V?$basic_string@DU?$char_traits@D@std@@V?$allocator@D@2@@std@@@2@V?$allocator@U?$pair@$$CBV?$basic_string@DU?$char_traits@D@std@@V?$allocator@D@2@@std@@PAVTextureMap@@@std@@@2@$0A@@std@@@std@@QAEPAU?$_Tree_node@U?$pair@$$CBV?$basic_string@DU?$char_traits@D@std@@V?$allocator@D@2@@std@@PAVTextureMap@@@std@@PAX@2@XZ 004290f0 f i scene.obj
 0001:00028130       ?_Destroy_if_not_nil@?$_Tree@V?$_Tmap_traits@V?$basic_string@DU?$char_traits@D@std@@V?$allocator@D@2@@std@@PAVTextureMap@@U?$less@V?$basic_string@DU?$char_traits@D@std@@V?$allocator@D@2@@std@@@2@V?$allocator@U?$pair@$$CBV?$basic_string@DU?$char_traits@D@std@@V?$allocator@D@2@@std@@PAVTextureMap@@@std@@@2@$0A@@std@@@std@@IAEXPAU?$_Tree_node@U?$pair@$$CBV?$basic_string@DU?$char_traits@D@std@@V?$allocator@D@2@@std@@PAVTextureMap@@@std@@PAX@2@@Z 00429130 f i scene.obj
 0001:00028180       ?_Erase@?$_Tree@V?$_Tmap_traits@V?$basic_string@DU?$char_traits@D@std@@V?$allocator@D@2@@std@@PAVTextureMap@@U?$less@V?$basic_string@DU?$char_traits@D@std@@V?$allocator@D@2@@std@@@2@V?$allocator@U?$pair@$$CBV?$basic_string@DU?$char_traits@D@std@@V?$allocator@D@2@@std@@PAVTextureMap@@@std@@@2@$0A@@std@@@std@@IAEXPAU?$_Tree_node@U?$pair@$$CBV?$basic_string@DU?$char_traits@D@std@@V?$allocator@D@2@@std@@PAVTextureMap@@@std@@PAX@2@@Z 00429180 f i scene.obj
 0001:00028230       ?_Lrotate@?$_Tree@V?$_Tmap_traits@V?$basic_string@DU?$char_traits@D@std@@V?$allocator@D@2@@std@@PAVTextureMap@@U?$less@V?$basic_string@DU?$char_traits@D@std@@V?$allocator@D@2@@std@@@2@V?$allocator@U?$pair@$$CBV?$basic_string@DU?$char_traits@D@std@@V?$allocator@D@2@@std@@PAVTextureMap@@@std@@@2@$0A@@std@@@std@@IAEXPAU?$_Tree_node@U?$pair@$$CBV?$basic_string@DU?$char_traits@D@std@@V?$allocator@D@2@@std@@PAVTextureMap@@@std@@PAX@2@@Z 00429230 f i scene.obj
 0001:00028290       ?_Reallocate@?$vector@PAVGeometry@@V?$allocator@PAVGeometry@@@std@@@std@@IAEXI@Z 00429290 f i scene.obj
 0001:000282f0       ?_Reallocate@?$vector@U?$pair@Vray@@Visect@@@std@@V?$allocator@U?$pair@Vray@@Visect@@@std@@@2@@std@@IAEXI@Z 004292f0 f i scene.obj
 0001:00028400       ?_Reserve@?$vector@U?$pair@Vray@@Visect@@@std@@V?$allocator@U?$pair@Vray@@Visect@@@std@@@2@@std@@IAEXI@Z 00429400 f i scene.obj
 0001:000284a0       ?_Rrotate@?$_Tree@V?$_Tmap_traits@V?$basic_string@DU?$char_traits@D@std@@V?$allocator@D@2@@std@@PAVTextureMap@@U?$less@V?$basic_string@DU?$char_traits@D@std@@V?$allocator@D@2@@std@@@2@V?$allocator@U?$pair@$$CBV?$basic_string@DU?$char_traits@D@std@@V?$allocator@D@2@@std@@PAVTextureMap@@@std@@@2@$0A@@std@@@std@@IAEXPAU?$_Tree_node@U?$pair@$$CBV?$basic_string@DU?$char_traits@D@std@@V?$allocator@D@2@@std@@PAVTextureMap@@@std@@PAX@2@@Z 004294a0 f i scene.obj
 0001:00028500       ?allocate@?$allocator@PAVGeometry@@@std@@QAEPAPAVGeometry@@I@Z 00429500 f i scene.obj
 0001:00028570       ?allocate@?$allocator@U?$pair@Vray@@Visect@@@std@@@std@@QAEPAU?$pair@Vray@@Visect@@@2@I@Z 00429570 f i scene.obj
 0001:000285f0       ?buildKdTree@Scene@@QAEXXZ 004295f0 f   scene.obj
 0001:00028780       ?compare@?$char_traits@D@std@@SAHPBD0I@Z 00429780 f i scene.obj
 0001:000287f0       ?erase@?$_Tree@V?$_Tmap_traits@V?$basic_string@DU?$char_traits@D@std@@V?$allocator@D@2@@std@@PAVTextureMap@@U?$less@V?$basic_string@DU?$char_traits@D@std@@V?$allocator@D@2@@std@@@2@V?$allocator@U?$pair@$$CBV?$basic_string@DU?$char_traits@D@std@@V?$allocator@D@2@@std@@PAVTextureMap@@@std@@@2@$0A@@std@@@std@@QAE?AV?$_Tree_iterator@V?$_Tree_val@U?$_Tree_simple_types@U?$pair@$$CBV?$basic_string@DU?$char_traits@D@std@@V?$allocator@D@2@@std@@PAVTextureMap@@@std@@@std@@@std@@@2@V?$_Tree_const_iterator@V?$_Tree_val@U?$_Tree_simple_types@U?$pair@$$CBV?$basic_string@DU?$char_traits@D@std@@V?$allocator@D@2@@std@@PAVTextureMap@@@std@@@std@@@std@@@2@0@Z 004297f0 f i scene.obj
 0001:000288e0       ?erase@?$_Tree@V?$_Tmap_traits@V?$basic_string@DU?$char_traits@D@std@@V?$allocator@D@2@@std@@PAVTextureMap@@U?$less@V?$basic_string@DU?$char_traits@D@std@@V?$allocator@D@2@@std@@@2@V?$allocator@U?$pair@$$CBV?$basic_string@DU?$char_traits@D@std@@V?$allocator@D@2@@std@@PAVTextureMap@@@std@@@2@$0A@@std@@@std@@QAE?AV?$_Tree_iterator@V?$_Tree_val@U?$_Tree_simple_types@U?$pair@$$CBV?$basic_string@DU?$char_traits@D@std@@V?$allocator@D@2@@std@@PAVTextureMap@@@std@@@std@@@std@@@2@V?$_Tree_const_iterator@V?$_Tree_val@U?$_Tree_simple_types@U?$pair@$$CBV?$basic_string@DU?$char_traits@D@std@@V?$allocator@D@2@@std@@PAVTextureMap@@@std@@@std@@@std@@@2@@Z 004298e0 f i scene.obj
 0001:00028bd0       ?find@?$_Tree@V?$_Tmap_traits@V?$basic_string@DU?$char_traits@D@std@@V?$allocator@D@2@@std@@PAVTextureMap@@U?$less@V?$basic_string@DU?$char_traits@D@std@@V?$allocator@D@2@@std@@@2@V?$allocator@U?$pair@$$CBV?$basic_string@DU?$char_traits@D@std@@V?$allocator@D@2@@std@@PAVTextureMap@@@std@@@2@$0A@@std@@@std@@QAE?AV?$_Tree_iterator@V?$_Tree_val@U?$_Tree_simple_types@U?$pair@$$CBV?$basic_string@DU?$char_traits@D@std@@V?$allocator@D@2@@std@@PAVTextureMap@@@std@@@std@@@std@@@2@ABV?$basic_string@DU?$char_traits@D@std@@V?$allocator@D@2@@2@@Z 00429bd0 f i scene.obj
 0001:00028c60       ?getSplitAxis@BoundingBox@@QBEHXZ 00429c60 f   scene.obj
 0001:00028cb0       ?getTexture@Scene@@QAEPAVTextureMap@@V?$basic_string@DU?$char_traits@D@std@@V?$allocator@D@2@@std@@@Z 00429cb0 f   scene.obj
 0001:00028db0       ?hasBoundingBoxCapability@Geometry@@UBE_NXZ 00429db0 f   scene.obj
 0001:00028dc0       ?intersect@?$KDNode@VGeometry@@@@QAE_NABVray@@AAVisect@@@Z 00429dc0 f i scene.obj
 0001:00028f10       ?intersect@BoundingBox@@QBE_NABVray@@AAN1@Z 00429f10 f   scene.obj
 0001:00029040       ?intersect@Geometry@@QBE_NABVray@@AAVisect@@@Z 0042a040 f   scene.obj
 0001:000293e0       ?intersect@Scene@@QBE_NABVray@@AAVisect@@@Z 0042a3e0 f   scene.obj
 0001:00029550       ?intersects@BoundingBox@@QBE_NABV1@@Z 0042a550 f   scene.obj
 0001:000295e0       ?intersects@BoundingBox@@QBE_NABV?$Vec3@N@@@Z 0042a5e0 f   scene.obj
 0001:00029660       ?mergeBoxs@BoundingBox@@QAEXABV1@@Z 0042a660 f   scene.obj
 0001:000296e0       ?push_back@?$vector@U?$pair@Vray@@Visect@@@std@@V?$allocator@U?$pair@Vray@@Visect@@@std@@@2@@std@@QAEX$$QAU?$pair@Vray@@Visect@@@2@@Z 0042a6e0 f i scene.obj
 0001:00029840       ?intersectLocal@Box@@UBE_NABVray@@AAVisect@@@Z 0042a840 f   Box.obj
 0001:00029ad0       ?intersectLocal@Cone@@UBE_NABVray@@AAVisect@@@Z 0042aad0 f   Cone.obj
 0001:00029fe0       ?isGoodRoot@Cone@@IBE_NV?$Vec3@N@@@Z 0042afe0 f   Cone.obj
 0001:0002a010       ?intersectBody@Cylinder@@QBE_NABVray@@AAVisect@@@Z 0042b010 f   Cylinder.obj
 0001:0002a340       ?intersectCaps@Cylinder@@QBE_NABVray@@AAVisect@@@Z 0042b340 f   Cylinder.obj
 0001:0002a4c0       ?intersectLocal@Cylinder@@UBE_NABVray@@AAVisect@@@Z 0042b4c0 f   Cylinder.obj
 0001:0002a590       ?intersectLocal@Sphere@@UBE_NABVray@@AAVisect@@@Z 0042b590 f   Sphere.obj
 0001:0002a8b0       ?intersectLocal@Square@@UBE_NABVray@@AAVisect@@@Z 0042b8b0 f   Square.obj
 0001:0002a9d0       ??$?8V?$KDNode@VTrimeshFace@@@@U?$default_delete@V?$KDNode@VTrimeshFace@@@@@std@@@std@@YA_NABV?$unique_ptr@V?$KDNode@VTrimeshFace@@@@U?$default_delete@V?$KDNode@VTrimeshFace@@@@@std@@@0@$$T@Z 0042b9d0 f i trimesh.obj
 0001:0002a9e0       ??$?9V?$KDNode@VTrimeshFace@@@@U?$default_delete@V?$KDNode@VTrimeshFace@@@@@std@@@std@@YA_NABV?$unique_ptr@V?$KDNode@VTrimeshFace@@@@U?$default_delete@V?$KDNode@VTrimeshFace@@@@@std@@@0@$$T@Z 0042b9e0 f i trimesh.obj
 0001:0002a9f0       ??$_Uninitialized_default_fill_n1@PAV?$Vec3@N@@IV?$allocator@V?$Vec3@N@@@std@@@std@@YAXPAV?$Vec3@N@@IAAU?$_Wrap_alloc@V?$allocator@V?$Vec3@N@@@std@@@0@U?$integral_constant@_N$0A@@0@@Z 0042b9f0 f i trimesh.obj
 0001:0002aa20       ??$_Uninitialized_move_al_unchecked1@PAV?$Vec3@N@@PAV1@V?$allocator@V?$Vec3@N@@@std@@@std@@YAPAV?$Vec3@N@@PAV1@00AAU?$_Wrap_alloc@V?$allocator@V?$Vec3@N@@@std@@@0@U_General_ptr_iterator_tag@0@U_Any_tag@0@@Z 0042ba20 f i trimesh.obj
 0001:0002aa60       ??0?$KDNode@VTrimeshFace@@@@QAE@AAV?$vector@PAVTrimeshFace@@V?$allocator@PAVTrimeshFace@@@std@@@std@@IH@Z 0042ba60 f i trimesh.obj
 0001:0002b0b0       ??0?$vector@PAVTrimeshFace@@V?$allocator@PAVTrimeshFace@@@std@@@std@@QAE@ABV01@@Z 0042c0b0 f i trimesh.obj
 0001:0002b140       ??0TrimeshFace@@QAE@PAVScene@@PAVMaterial@@PAVTrimesh@@HHH@Z 0042c140 f i trimesh.obj
 0001:0002b210       ??1?$unique_ptr@V?$KDNode@VTrimeshFace@@@@U?$default_delete@V?$KDNode@VTrimeshFace@@@@@std@@@std@@QAE@XZ 0042c210 f i trimesh.obj
 0001:0002b220       ??1?$vector@PAVTrimeshFace@@V?$allocator@PAVTrimeshFace@@@std@@@std@@QAE@XZ 0042c220 f i trimesh.obj
 0001:0002b260       ??1MaterialSceneObject@@UAE@XZ 0042c260 f i trimesh.obj
 0001:0002b290       ??1SceneElement@@UAE@XZ    0042c290 f i trimesh.obj
 0001:0002b2a0       ??1Trimesh@@UAE@XZ         0042c2a0 f   trimesh.obj
 0001:0002b540       ??R?$default_delete@V?$KDNode@VTrimeshFace@@@@@std@@QBEXPAV?$KDNode@VTrimeshFace@@@@@Z 0042c540 f i trimesh.obj
 0001:0002b5a0       ??_GGeometry@@UAEPAXI@Z    0042c5a0 f i trimesh.obj
 0001:0002b5a0       ??_EGeometry@@UAEPAXI@Z    0042c5a0 f i trimesh.obj
 0001:0002b5d0       ??_EMaterialSceneObject@@UAEPAXI@Z 0042c5d0 f i trimesh.obj
 0001:0002b5d0       ??_GMaterialSceneObject@@UAEPAXI@Z 0042c5d0 f i trimesh.obj
 0001:0002b610       ??_ESceneElement@@UAEPAXI@Z 0042c610 f i trimesh.obj
 0001:0002b610       ??_GSceneElement@@UAEPAXI@Z 0042c610 f i trimesh.obj
 0001:0002b640       ??_GSceneObject@@UAEPAXI@Z 0042c640 f i trimesh.obj
 0001:0002b640       ??_ESceneObject@@UAEPAXI@Z 0042c640 f i trimesh.obj
 0001:0002b670       ??_ETrimesh@@UAEPAXI@Z     0042c670 f i trimesh.obj
 0001:0002b670       ??_GTrimesh@@UAEPAXI@Z     0042c670 f i trimesh.obj
 0001:0002b6a0       ??_GTrimeshFace@@UAEPAXI@Z 0042c6a0 f i trimesh.obj
 0001:0002b6a0       ??_ETrimeshFace@@UAEPAXI@Z 0042c6a0 f i trimesh.obj
 0001:0002b6e0       ?ComputeBoundingBox@Geometry@@UAEXXZ 0042c6e0 f i trimesh.obj
 0001:0002bd30       ?ComputeLocalBoundingBox@Geometry@@UAE?AVBoundingBox@@XZ 0042cd30 f i trimesh.obj
 0001:0002bd60       ?ComputeLocalBoundingBox@Trimesh@@UAE?AVBoundingBox@@XZ 0042cd60 f i trimesh.obj
 0001:0002be40       ?ComputeLocalBoundingBox@TrimeshFace@@UAE?AVBoundingBox@@XZ 0042ce40 f i trimesh.obj
 0001:0002bf60       ?_Reallocate@?$vector@PAVMaterial@@V?$allocator@PAVMaterial@@@std@@@std@@IAEXI@Z 0042cf60 f i trimesh.obj
 0001:0002bfc0       ?_Reallocate@?$vector@PAVTrimeshFace@@V?$allocator@PAVTrimeshFace@@@std@@@std@@IAEXI@Z 0042cfc0 f i trimesh.obj
 0001:0002c020       ?_Reallocate@?$vector@V?$Vec3@N@@V?$allocator@V?$Vec3@N@@@std@@@std@@IAEXI@Z 0042d020 f i trimesh.obj
 0001:0002c100       ?_Reserve@?$vector@PAVMaterial@@V?$allocator@PAVMaterial@@@std@@@std@@IAEXI@Z 0042d100 f i trimesh.obj
 0001:0002c170       ?_Reserve@?$vector@PAVTrimeshFace@@V?$allocator@PAVTrimeshFace@@@std@@@std@@IAEXI@Z 0042d170 f i trimesh.obj
 0001:0002c1e0       ?_Reserve@?$vector@V?$Vec3@N@@V?$allocator@V?$Vec3@N@@@std@@@std@@IAEXI@Z 0042d1e0 f i trimesh.obj
 0001:0002c280       ?_Tidy@?$vector@V?$Vec3@N@@V?$allocator@V?$Vec3@N@@@std@@@std@@IAEXXZ 0042d280 f i trimesh.obj
 0001:0002c2d0       ?addFace@Trimesh@@QAE_NHHH@Z 0042d2d0 f   trimesh.obj
 0001:0002c3d0       ?addMaterial@Trimesh@@QAEXPAVMaterial@@@Z 0042d3d0 f   trimesh.obj
 0001:0002c3f0       ?addNormal@Trimesh@@QAEXABV?$Vec3@N@@@Z 0042d3f0 f   trimesh.obj
 0001:0002c400       ?addVertex@Trimesh@@QAEXABV?$Vec3@N@@@Z 0042d400 f   trimesh.obj
 0001:0002c410       ?allocate@?$allocator@PAVMaterial@@@std@@QAEPAPAVMaterial@@I@Z 0042d410 f i trimesh.obj
 0001:0002c480       ?allocate@?$allocator@PAVTrimeshFace@@@std@@QAEPAPAVTrimeshFace@@I@Z 0042d480 f i trimesh.obj
 0001:0002c4f0       ?allocate@?$allocator@V?$Vec3@N@@@std@@QAEPAV?$Vec3@N@@I@Z 0042d4f0 f i trimesh.obj
 0001:0002c560       ?buildKdTree@Geometry@@UAEXXZ 0042d560 f i trimesh.obj
 0001:0002c570       ?buildKdTree@Trimesh@@UAEXXZ 0042d570 f i trimesh.obj
 0001:0002c600       ?crossProd@@YA?AV?$Vec3@N@@V1@0@Z 0042d600 f   trimesh.obj
 0001:0002c670       ?doubleCheck@Trimesh@@QAEPADXZ 0042d670 f   trimesh.obj
 0001:0002c6f0       ?generateNormals@Trimesh@@QAEXXZ 0042d6f0 f   trimesh.obj
 0001:0002c980       ?getMaterial@MaterialSceneObject@@UBEABVMaterial@@XZ 0042d980 f i trimesh.obj
 0001:0002c990       ?glDraw@SceneElement@@UBEXH_N0@Z 0042d990 f i trimesh.obj
 0001:0002c9a0       ?glDrawLocal@Geometry@@UBEXH_N0@Z 0042d9a0 f i trimesh.obj
 0001:0002c9b0       ?hasBoundingBoxCapability@Trimesh@@UBE_NXZ 0042d9b0 f i trimesh.obj
 0001:0002c9c0       ?hasBoundingBoxCapability@TrimeshFace@@UBE_NXZ 0042d9c0 f i trimesh.obj
 0001:0002c9d0       ?intersect@?$KDNode@VTrimeshFace@@@@QAE_NABVray@@AAVisect@@@Z 0042d9d0 f i trimesh.obj
 0001:0002cb20       ?intersectLocal@Trimesh@@UBE_NABVray@@AAVisect@@@Z 0042db20 f   trimesh.obj
 0001:0002cc30       ?intersectLocal@TrimeshFace@@UBE_NABVray@@AAVisect@@@Z 0042dc30 f   trimesh.obj
 0001:0002d0f0       ?isTrimesh@Geometry@@UBE_NXZ 0042e0f0 f i trimesh.obj
 0001:0002d100       ?isTrimesh@Trimesh@@UBE_NXZ 0042e100 f i trimesh.obj
 0001:0002d110       ?push_back@?$vector@PAVMaterial@@V?$allocator@PAVMaterial@@@std@@@std@@QAEXABQAVMaterial@@@Z 0042e110 f i trimesh.obj
 0001:0002d180       ?push_back@?$vector@PAVTrimeshFace@@V?$allocator@PAVTrimeshFace@@@std@@@std@@QAEXABQAVTrimeshFace@@@Z 0042e180 f i trimesh.obj
 0001:0002d1f0       ?push_back@?$vector@V?$Vec3@N@@V?$allocator@V?$Vec3@N@@@std@@@std@@QAEXABV?$Vec3@N@@@Z 0042e1f0 f i trimesh.obj
 0001:0002d2a0       ?resize@?$vector@V?$Vec3@N@@V?$allocator@V?$Vec3@N@@@std@@@std@@QAEXI@Z 0042e2a0 f i trimesh.obj
 0001:0002d3a0       ?setMaterial@MaterialSceneObject@@UAEXPAVMaterial@@@Z 0042e3a0 f i trimesh.obj
 0001:0002d3d0       ??$?DN@@YA?AV?$Mat4@N@@ABV0@0@Z 0042e3d0 f i Parser.obj
 0001:0002d730       ??$_Buynode@ABUpiecewise_construct_t@std@@V?$tuple@$$QAV?$basic_string@DU?$char_traits@D@std@@V?$allocator@D@2@@std@@@2@V?$tuple@$$V@2@@?$_Tree_comp_alloc@V?$_Tmap_traits@V?$basic_string@DU?$char_traits@D@std@@V?$allocator@D@2@@std@@VMaterial@@U?$less@V?$basic_string@DU?$char_traits@D@std@@V?$allocator@D@2@@std@@@2@V?$allocator@U?$pair@$$CBV?$basic_string@DU?$char_traits@D@std@@V?$allocator@D@2@@std@@VMaterial@@@std@@@2@$0A@@std@@@std@@QAEPAU?$_Tree_node@U?$pair@$$CBV?$basic_string@DU?$char_traits@D@std@@V?$allocator@D@2@@std@@VMaterial@@@std@@PAX@1@ABUpiecewise_construct_t@1@$$QAV?$tuple@$$QAV?$basic_string@DU?$char_traits@D@std@@V?$allocator@D@2@@std@@@1@$$QAV?$tuple@$$V@1@@Z 0042e730 f i Parser.obj
 0001:0002d780       ??$_Buynode@ABUpiecewise_construct_t@std@@V?$tuple@ABV?$basic_string@DU?$char_traits@D@std@@V?$allocator@D@2@@std@@@2@V?$tuple@$$V@2@@?$_Tree_comp_alloc@V?$_Tmap_traits@V?$basic_string@DU?$char_traits@D@std@@V?$allocator@D@2@@std@@VMaterial@@U?$less@V?$basic_string@DU?$char_traits@D@std@@V?$allocator@D@2@@std@@@2@V?$allocator@U?$pair@$$CBV?$basic_string@DU?$char_traits@D@std@@V?$allocator@D@2@@std@@VMaterial@@@std@@@2@$0A@@std@@@std@@QAEPAU?$_Tree_node@U?$pair@$$CBV?$basic_string@DU?$char_traits@D@std@@V?$allocator@D@2@@std@@VMaterial@@@std@@PAX@1@ABUpiecewise_construct_t@1@$$QAV?$tuple@ABV?$basic_string@DU?$char_traits@D@std@@V?$allocator@D@2@@std@@@1@$$QAV?$tuple@$$V@1@@Z 0042e780 f i Parser.obj
 0001:0002d840       ??$_Buynode@N@?$_List_buy@NV?$allocator@N@std@@@std@@QAEPAU?$_List_node@NPAX@1@PAU21@0$$QAN@Z 0042e840 f i Parser.obj
 0001:0002d870       ??$_Buynode@V?$Vec3@N@@@?$_List_buy@V?$Vec3@N@@V?$allocator@V?$Vec3@N@@@std@@@std@@QAEPAU?$_List_node@V?$Vec3@N@@PAX@1@PAU21@0$$QAV?$Vec3@N@@@Z 0042e870 f i Parser.obj
 0001:0002d8b0       ??$_Insert_at@AAU?$pair@$$CBV?$basic_string@DU?$char_traits@D@std@@V?$allocator@D@2@@std@@VMaterial@@@std@@PAU?$_Tree_node@U?$pair@$$CBV?$basic_string@DU?$char_traits@D@std@@V?$allocator@D@2@@std@@VMaterial@@@std@@PAX@2@@?$_Tree@V?$_Tmap_traits@V?$basic_string@DU?$char_traits@D@std@@V?$allocator@D@2@@std@@VMaterial@@U?$less@V?$basic_string@DU?$char_traits@D@std@@V?$allocator@D@2@@std@@@2@V?$allocator@U?$pair@$$CBV?$basic_string@DU?$char_traits@D@std@@V?$allocator@D@2@@std@@VMaterial@@@std@@@2@$0A@@std@@@std@@IAE?AV?$_Tree_iterator@V?$_Tree_val@U?$_Tree_simple_types@U?$pair@$$CBV?$basic_string@DU?$char_traits@D@std@@V?$allocator@D@2@@std@@VMaterial@@@std@@@std@@@std@@@1@_NPAU?$_Tree_node@U?$pair@$$CBV?$basic_string@DU?$char_traits@D@std@@V?$allocator@D@2@@std@@VMaterial@@@std@@PAX@1@AAU?$pair@$$CBV?$basic_string@DU?$char_traits@D@std@@V?$allocator@D@2@@std@@VMaterial@@@1@1@Z 0042e8b0 f i Parser.obj
 0001:0002da80       ??$_Insert_hint@AAU?$pair@$$CBV?$basic_string@DU?$char_traits@D@std@@V?$allocator@D@2@@std@@VMaterial@@@std@@PAU?$_Tree_node@U?$pair@$$CBV?$basic_string@DU?$char_traits@D@std@@V?$allocator@D@2@@std@@VMaterial@@@std@@PAX@2@@?$_Tree@V?$_Tmap_traits@V?$basic_string@DU?$char_traits@D@std@@V?$allocator@D@2@@std@@VMaterial@@U?$less@V?$basic_string@DU?$char_traits@D@std@@V?$allocator@D@2@@std@@@2@V?$allocator@U?$pair@$$CBV?$basic_string@DU?$char_traits@D@std@@V?$allocator@D@2@@std@@VMaterial@@@std@@@2@$0A@@std@@@std@@IAE?AV?$_Tree_iterator@V?$_Tree_val@U?$_Tree_simple_types@U?$pair@$$CBV?$basic_string@DU?$char_traits@D@std@@V?$allocator@D@2@@std@@VMaterial@@@std@@@std@@@std@@@1@V?$_Tree_const_iterator@V?$_Tree_val@U?$_Tree_simple_types@U?$pair@$$CBV?$basic_string@DU?$char_traits@D@std@@V?$allocator@D@2@@std@@VMaterial@@@std@@@std@@@std@@@1@AAU?$pair@$$CBV?$basic_string@DU?$char_traits@D@std@@V?$allocator@D@2@@std@@VMaterial@@@1@PAU?$_Tree_node@U?$pair@$$CBV?$basic_string@DU?$char_traits@D@std@@V?$allocator@D@2@@std@@VMaterial@@@std@@PAX@1@@Z 0042ea80 f i Parser.obj
 0001:0002dce0       ??$_Insert_nohint@AAU?$pair@$$CBV?$basic_string@DU?$char_traits@D@std@@V?$allocator@D@2@@std@@VMaterial@@@std@@PAU?$_Tree_node@U?$pair@$$CBV?$basic_string@DU?$char_traits@D@std@@V?$allocator@D@2@@std@@VMaterial@@@std@@PAX@2@@?$_Tree@V?$_Tmap_traits@V?$basic_string@DU?$char_traits@D@std@@V?$allocator@D@2@@std@@VMaterial@@U?$less@V?$basic_string@DU?$char_traits@D@std@@V?$allocator@D@2@@std@@@2@V?$allocator@U?$pair@$$CBV?$basic_string@DU?$char_traits@D@std@@V?$allocator@D@2@@std@@VMaterial@@@std@@@2@$0A@@std@@@std@@IAE?AU?$pair@V?$_Tree_iterator@V?$_Tree_val@U?$_Tree_simple_types@U?$pair@$$CBV?$basic_string@DU?$char_traits@D@std@@V?$allocator@D@2@@std@@VMaterial@@@std@@@std@@@std@@@std@@_N@1@_NAAU?$pair@$$CBV?$basic_string@DU?$char_traits@D@std@@V?$allocator@D@2@@std@@VMaterial@@@1@PAU?$_Tree_node@U?$pair@$$CBV?$basic_string@DU?$char_traits@D@std@@V?$allocator@D@2@@std@@VMaterial@@@std@@PAX@1@@Z 0042ece0 f i Parser.obj
 0001:0002df50       ??$_Lbound@V?$basic_string@DU?$char_traits@D@std@@V?$allocator@D@2@@std@@@?$_Tree@V?$_Tmap_traits@V?$basic_string@DU?$char_traits@D@std@@V?$allocator@D@2@@std@@VMaterial@@U?$less@V?$basic_string@DU?$char_traits@D@std@@V?$allocator@D@2@@std@@@2@V?$allocator@U?$pair@$$CBV?$basic_string@DU?$char_traits@D@std@@V?$allocator@D@2@@std@@VMaterial@@@std@@@2@$0A@@std@@@std@@IBEPAU?$_Tree_node@U?$pair@$$CBV?$basic_string@DU?$char_traits@D@std@@V?$allocator@D@2@@std@@VMaterial@@@std@@PAX@1@ABV?$basic_string@DU?$char_traits@D@std@@V?$allocator@D@2@@1@@Z 0042ef50 f i Parser.obj
 0001:0002e030       ??$_Try_emplace@ABV?$basic_string@DU?$char_traits@D@std@@V?$allocator@D@2@@std@@$$V@?$map@V?$basic_string@DU?$char_traits@D@std@@V?$allocator@D@2@@std@@VMaterial@@U?$less@V?$basic_string@DU?$char_traits@D@std@@V?$allocator@D@2@@std@@@2@V?$allocator@U?$pair@$$CBV?$basic_string@DU?$char_traits@D@std@@V?$allocator@D@2@@std@@VMaterial@@@std@@@2@@std@@QAE?AU?$pair@V?$_Tree_iterator@V?$_Tree_val@U?$_Tree_simple_types@U?$pair@$$CBV?$basic_string@DU?$char_traits@D@std@@V?$allocator@D@2@@std@@VMaterial@@@std@@@std@@@std@@@std@@_N@1@ABV?$basic_string@DU?$char_traits@D@std@@V?$allocator@D@2@@1@@Z 0042f030 f i Parser.obj
 0001:0002e0e0       ??$_Try_emplace@V?$basic_string@DU?$char_traits@D@std@@V?$allocator@D@2@@std@@$$V@?$map@V?$basic_string@DU?$char_traits@D@std@@V?$allocator@D@2@@std@@VMaterial@@U?$less@V?$basic_string@DU?$char_traits@D@std@@V?$allocator@D@2@@std@@@2@V?$allocator@U?$pair@$$CBV?$basic_string@DU?$char_traits@D@std@@V?$allocator@D@2@@std@@VMaterial@@@std@@@2@@std@@QAE?AU?$pair@V?$_Tree_iterator@V?$_Tree_val@U?$_Tree_simple_types@U?$pair@$$CBV?$basic_string@DU?$char_traits@D@std@@V?$allocator@D@2@@std@@VMaterial@@@std@@@std@@@std@@@std@@_N@1@$$QAV?$basic_string@DU?$char_traits@D@std@@V?$allocator@D@2@@1@@Z 0042f0e0 f i Parser.obj
 0001:0002e190       ??0?$basic_ostringstream@DU?$char_traits@D@std@@V?$allocator@D@2@@std@@QAE@H@Z 0042f190 f i Parser.obj
 0001:0002e270       ??0Material@@QAE@XZ        0042f270 f i Parser.obj
 0001:0002e340       ??0ParserException@@QAE@ABV0@@Z 0042f340 f i Parser.obj
 0001:0002e370       ??0ParserFatalException@@QAE@ABV0@@Z 0042f370 f i Parser.obj
 0001:0002e3a0       ??0Scene@@QAE@XZ           0042f3a0 f i Parser.obj
 0001:0002e540       ??0SyntaxErrorException@@QAE@ABV0@@Z 0042f540 f i Parser.obj
 0001:0002e5e0       ??0TransformNode@@IAE@PAV0@ABV?$Mat4@N@@@Z 0042f5e0 f i Parser.obj
 0001:0002e7d0       ??0Trimesh@@QAE@PAVScene@@PAVMaterial@@PAVTransformNode@@@Z 0042f7d0 f i Parser.obj
 0001:0002e8b0       ??1?$auto_ptr@VMaterial@@@std@@QAE@XZ 0042f8b0 f i Parser.obj
 0001:0002e8c0       ??1?$auto_ptr@VToken@@@std@@QAE@XZ 0042f8c0 f i Parser.obj
 0001:0002e8d0       ??1?$basic_ostringstream@DU?$char_traits@D@std@@V?$allocator@D@2@@std@@UAE@XZ 0042f8d0 f i Parser.obj
 0001:0002e920       ??1?$basic_stringbuf@DU?$char_traits@D@std@@V?$allocator@D@2@@std@@UAE@XZ 0042f920 f i Parser.obj
 0001:0002e940       ??1?$list@NV?$allocator@N@std@@@std@@QAE@XZ 0042f940 f i Parser.obj
 0001:0002e990       ??1?$list@V?$Vec3@N@@V?$allocator@V?$Vec3@N@@@std@@@std@@QAE@XZ 0042f990 f i Parser.obj
 0001:0002e9e0       ??1?$vector@PAVLight@@V?$allocator@PAVLight@@@std@@@std@@QAE@XZ 0042f9e0 f i Parser.obj
 0001:0002ea20       ??1ParserException@@QAE@XZ 0042fa20 f i Parser.obj
 0001:0002ea60       ??1ParserFatalException@@QAE@XZ 0042fa60 f i Parser.obj
 0001:0002eaa0       ??1SyntaxErrorException@@QAE@XZ 0042faa0 f i Parser.obj
 0001:0002eb10       ??1TransformRoot@@QAE@XZ   0042fb10 f i Parser.obj
 0001:0002eb20       ??F?$_Tree_unchecked_const_iterator@V?$_Tree_val@U?$_Tree_simple_types@U?$pair@$$CBV?$basic_string@DU?$char_traits@D@std@@V?$allocator@D@2@@std@@VMaterial@@@std@@@std@@@std@@U_Iterator_base0@2@@std@@QAEAAV01@XZ 0042fb20 f i Parser.obj
 0001:0002eb80       ??_D?$basic_ostringstream@DU?$char_traits@D@std@@V?$allocator@D@2@@std@@QAEXXZ 0042fb80 f i Parser.obj
 0001:0002ebca       ??_E?$basic_ostringstream@DU?$char_traits@D@std@@V?$allocator@D@2@@std@@$4PPPPPPPM@A@AEPAXI@Z 0042fbca f i Parser.obj
 0001:0002ebe0       ??_G?$basic_ostringstream@DU?$char_traits@D@std@@V?$allocator@D@2@@std@@UAEPAXI@Z 0042fbe0 f i Parser.obj
 0001:0002ebe0       ??_E?$basic_ostringstream@DU?$char_traits@D@std@@V?$allocator@D@2@@std@@UAEPAXI@Z 0042fbe0 f i Parser.obj
 0001:0002ec50       ??_E?$basic_stringbuf@DU?$char_traits@D@std@@V?$allocator@D@2@@std@@UAEPAXI@Z 0042fc50 f i Parser.obj
 0001:0002ec50       ??_G?$basic_stringbuf@DU?$char_traits@D@std@@V?$allocator@D@2@@std@@UAEPAXI@Z 0042fc50 f i Parser.obj
 0001:0002ec90       ??_EBox@@UAEPAXI@Z         0042fc90 f i Parser.obj
 0001:0002ec90       ??_GBox@@UAEPAXI@Z         0042fc90 f i Parser.obj
 0001:0002ecd0       ??_ECone@@UAEPAXI@Z        0042fcd0 f i Parser.obj
 0001:0002ecd0       ??_GCone@@UAEPAXI@Z        0042fcd0 f i Parser.obj
 0001:0002ed10       ??_GCylinder@@UAEPAXI@Z    0042fd10 f i Parser.obj
 0001:0002ed10       ??_ECylinder@@UAEPAXI@Z    0042fd10 f i Parser.obj
 0001:0002ed50       ??_GDirectionalLight@@UAEPAXI@Z 0042fd50 f i Parser.obj
 0001:0002ed50       ??_EDirectionalLight@@UAEPAXI@Z 0042fd50 f i Parser.obj
 0001:0002ed80       ??_GLight@@UAEPAXI@Z       0042fd80 f i Parser.obj
 0001:0002ed80       ??_ELight@@UAEPAXI@Z       0042fd80 f i Parser.obj
 0001:0002edb0       ??_EPointLight@@UAEPAXI@Z  0042fdb0 f i Parser.obj
 0001:0002edb0       ??_GPointLight@@UAEPAXI@Z  0042fdb0 f i Parser.obj
 0001:0002ede0       ??_GSphere@@UAEPAXI@Z      0042fde0 f i Parser.obj
 0001:0002ede0       ??_ESphere@@UAEPAXI@Z      0042fde0 f i Parser.obj
 0001:0002ee20       ??_ESquare@@UAEPAXI@Z      0042fe20 f i Parser.obj
 0001:0002ee20       ??_GSquare@@UAEPAXI@Z      0042fe20 f i Parser.obj
 0001:0002ee60       ?ComputeLocalBoundingBox@Box@@UAE?AVBoundingBox@@XZ 0042fe60 f i Parser.obj
 0001:0002eea0       ?ComputeLocalBoundingBox@Cone@@UAE?AVBoundingBox@@XZ 0042fea0 f i Parser.obj
 0001:0002ef00       ?ComputeLocalBoundingBox@Cylinder@@UAE?AVBoundingBox@@XZ 0042ff00 f i Parser.obj
 0001:0002ef40       ?ComputeLocalBoundingBox@Sphere@@UAE?AVBoundingBox@@XZ 0042ff40 f i Parser.obj
 0001:0002ef80       ?ComputeLocalBoundingBox@Square@@UAE?AVBoundingBox@@XZ 0042ff80 f i Parser.obj
 0001:0002efd0       ?_Buyheadnode@?$_Tree_comp_alloc@V?$_Tmap_traits@V?$basic_string@DU?$char_traits@D@std@@V?$allocator@D@2@@std@@PAVTextureMap@@U?$less@V?$basic_string@DU?$char_traits@D@std@@V?$allocator@D@2@@std@@@2@V?$allocator@U?$pair@$$CBV?$basic_string@DU?$char_traits@D@std@@V?$allocator@D@2@@std@@PAVTextureMap@@@std@@@2@$0A@@std@@@std@@QAEPAU?$_Tree_node@U?$pair@$$CBV?$basic_string@DU?$char_traits@D@std@@V?$allocator@D@2@@std@@PAVTextureMap@@@std@@PAX@2@XZ 0042ffd0 f i Parser.obj
 0001:0002f000       ?_Buynode0@?$_List_alloc@U?$_List_base_types@NV?$allocator@N@std@@@std@@@std@@QAEPAU?$_List_node@NPAX@2@PAU32@0@Z 00430000 f i Parser.obj
 0001:0002f040       ?_Buynode0@?$_List_alloc@U?$_List_base_types@V?$Vec3@N@@V?$allocator@V?$Vec3@N@@@std@@@std@@@std@@QAEPAU?$_List_node@V?$Vec3@N@@PAX@2@PAU32@0@Z 00430040 f i Parser.obj
 0001:0002f080       ?_Buynode0@?$_Tree_comp_alloc@V?$_Tmap_traits@V?$basic_string@DU?$char_traits@D@std@@V?$allocator@D@2@@std@@VMaterial@@U?$less@V?$basic_string@DU?$char_traits@D@std@@V?$allocator@D@2@@std@@@2@V?$allocator@U?$pair@$$CBV?$basic_string@DU?$char_traits@D@std@@V?$allocator@D@2@@std@@VMaterial@@@std@@@2@$0A@@std@@@std@@QAEPAU?$_Tree_node@U?$pair@$$CBV?$basic_string@DU?$char_traits@D@std@@V?$allocator@D@2@@std@@VMaterial@@@std@@PAX@2@XZ 00430080 f i Parser.obj
 0001:0002f0c0       ?_Destroy_if_not_nil@?$_Tree@V?$_Tmap_traits@V?$basic_string@DU?$char_traits@D@std@@V?$allocator@D@2@@std@@VMaterial@@U?$less@V?$basic_string@DU?$char_traits@D@std@@V?$allocator@D@2@@std@@@2@V?$allocator@U?$pair@$$CBV?$basic_string@DU?$char_traits@D@std@@V?$allocator@D@2@@std@@VMaterial@@@std@@@2@$0A@@std@@@std@@IAEXPAU?$_Tree_node@U?$pair@$$CBV?$basic_string@DU?$char_traits@D@std@@V?$allocator@D@2@@std@@VMaterial@@@std@@PAX@2@@Z 004300c0 f i Parser.obj
 0001:0002f110       ?_Reallocate@?$vector@PAVLight@@V?$allocator@PAVLight@@@std@@@std@@IAEXI@Z 00430110 f i Parser.obj
 0001:0002f170       ?_Reallocate@?$vector@PAVTransformNode@@V?$allocator@PAVTransformNode@@@std@@@std@@IAEXI@Z 00430170 f i Parser.obj
 0001:0002f1d0       ?_Reserve@?$vector@PAVGeometry@@V?$allocator@PAVGeometry@@@std@@@std@@IAEXI@Z 004301d0 f i Parser.obj
 0001:0002f240       ?_Reserve@?$vector@PAVLight@@V?$allocator@PAVLight@@@std@@@std@@IAEXI@Z 00430240 f i Parser.obj
 0001:0002f2b0       ?_Reserve@?$vector@PAVTransformNode@@V?$allocator@PAVTransformNode@@@std@@@std@@IAEXI@Z 004302b0 f i Parser.obj
 0001:0002f320       ?_Tidy@?$basic_stringbuf@DU?$char_traits@D@std@@V?$allocator@D@2@@std@@IAEXXZ 00430320 f i Parser.obj
 0001:0002f3a0       ?allocate@?$allocator@D@std@@QAEPADI@Z 004303a0 f i Parser.obj
 0001:0002f400       ?allocate@?$allocator@PAVLight@@@std@@QAEPAPAVLight@@I@Z 00430400 f i Parser.obj
 0001:0002f470       ?allocate@?$allocator@PAVTransformNode@@@std@@QAEPAPAVTransformNode@@I@Z 00430470 f i Parser.obj
 0001:0002f4e0       ?find@?$_Tree@V?$_Tmap_traits@V?$basic_string@DU?$char_traits@D@std@@V?$allocator@D@2@@std@@VMaterial@@U?$less@V?$basic_string@DU?$char_traits@D@std@@V?$allocator@D@2@@std@@@2@V?$allocator@U?$pair@$$CBV?$basic_string@DU?$char_traits@D@std@@V?$allocator@D@2@@std@@VMaterial@@@std@@@2@$0A@@std@@@std@@QAE?AV?$_Tree_iterator@V?$_Tree_val@U?$_Tree_simple_types@U?$pair@$$CBV?$basic_string@DU?$char_traits@D@std@@V?$allocator@D@2@@std@@VMaterial@@@std@@@std@@@std@@@2@ABV?$basic_string@DU?$char_traits@D@std@@V?$allocator@D@2@@2@@Z 004304e0 f i Parser.obj
 0001:0002f570       ?glDraw@Light@@UBEXI@Z     00430570 f i Parser.obj
 0001:0002f580       ?glDraw@Light@@UBEXXZ      00430580 f i Parser.obj
 0001:0002f590       ?hasBoundingBoxCapability@Box@@UBE_NXZ 00430590 f i Parser.obj
 0001:0002f5a0       ?hasBoundingBoxCapability@Cone@@UBE_NXZ 004305a0 f i Parser.obj
 0001:0002f5b0       ?hasBoundingBoxCapability@Cylinder@@UBE_NXZ 004305b0 f i Parser.obj
 0001:0002f5c0       ?hasBoundingBoxCapability@Sphere@@UBE_NXZ 004305c0 f i Parser.obj
 0001:0002f5d0       ?hasBoundingBoxCapability@Square@@UBE_NXZ 004305d0 f i Parser.obj
 0001:0002f5e0       ?inverse@?$Mat3@N@@QBE?AV1@XZ 004305e0 f i Parser.obj
 0001:0002f920       ?inverse@?$Mat4@N@@QBE?AV1@XZ 00430920 f i Parser.obj
 0001:0002fdd0       ?overflow@?$basic_stringbuf@DU?$char_traits@D@std@@V?$allocator@D@2@@std@@MAEHH@Z 00430dd0 f i Parser.obj
 0001:0002ffb0       ?parseAmbientLight@Parser@@AAEXPAVScene@@@Z 00430fb0 f   Parser.obj
 0001:000300f0       ?parseBoolean@Parser@@AAE_NXZ 004310f0 f   Parser.obj
 0001:000301c0       ?parseBooleanExpression@Parser@@AAE_NXZ 004311c0 f   Parser.obj
 0001:00030220       ?parseBox@Parser@@AAEXPAVScene@@PAVTransformNode@@ABVMaterial@@@Z 00431220 f   Parser.obj
 0001:00030530       ?parseCamera@Parser@@AAEXPAVScene@@@Z 00431530 f   Parser.obj
 0001:00030920       ?parseCone@Parser@@AAEXPAVScene@@PAVTransformNode@@ABVMaterial@@@Z 00431920 f   Parser.obj
 0001:00030d80       ?parseCylinder@Parser@@AAEXPAVScene@@PAVTransformNode@@ABVMaterial@@@Z 00431d80 f   Parser.obj
 0001:000310a0       ?parseDirectionalLight@Parser@@AAEPAVDirectionalLight@@PAVScene@@@Z 004320a0 f   Parser.obj
 0001:00031490       ?parseFaces@Parser@@AAEXAAV?$list@V?$Vec3@N@@V?$allocator@V?$Vec3@N@@@std@@@std@@@Z 00432490 f   Parser.obj
 0001:000315d0       ?parseGeometry@Parser@@AAEXPAVScene@@PAVTransformNode@@ABVMaterial@@@Z 004325d0 f   Parser.obj
 0001:00031780       ?parseGroup@Parser@@AAEXPAVScene@@PAVTransformNode@@ABVMaterial@@@Z 00432780 f   Parser.obj
 0001:00031970       ?parseIdent@Parser@@AAE?AV?$basic_string@DU?$char_traits@D@std@@V?$allocator@D@2@@std@@XZ 00432970 f   Parser.obj
 0001:00031a00       ?parseIdentExpression@Parser@@AAE?AV?$basic_string@DU?$char_traits@D@std@@V?$allocator@D@2@@std@@XZ 00432a00 f   Parser.obj
 0001:00031aa0       ?parseMaterial@Parser@@AAEPAVMaterial@@PAVScene@@ABV2@@Z 00432aa0 f   Parser.obj
 0001:000320a0       ?parseMaterialExpression@Parser@@AAEPAVMaterial@@PAVScene@@ABV2@@Z 004330a0 f   Parser.obj
 0001:00032100       ?parsePointLight@Parser@@AAEPAVPointLight@@PAVScene@@@Z 00433100 f   Parser.obj
 0001:00032540       ?parseRotate@Parser@@AAEXPAVScene@@PAVTransformNode@@ABVMaterial@@@Z 00433540 f   Parser.obj
 0001:00032980       ?parseScalar@Parser@@AAENXZ 00433980 f   Parser.obj
 0001:00032a00       ?parseScalarExpression@Parser@@AAENXZ 00433a00 f   Parser.obj
 0001:00032ad0       ?parseScalarList@Parser@@AAE?AV?$list@NV?$allocator@N@std@@@std@@XZ 00433ad0 f   Parser.obj
 0001:00032ce0       ?parseScalarMaterialParameter@Parser@@AAE?AVMaterialParameter@@PAVScene@@@Z 00433ce0 f   Parser.obj
 0001:00032e90       ?parseScale@Parser@@AAEXPAVScene@@PAVTransformNode@@ABVMaterial@@@Z 00433e90 f   Parser.obj
 0001:000331c0       ?parseScene@Parser@@QAEPAVScene@@XZ 004341c0 f   Parser.obj
 0001:00033580       ?parseSphere@Parser@@AAEXPAVScene@@PAVTransformNode@@ABVMaterial@@@Z 00434580 f   Parser.obj
 0001:00033890       ?parseSquare@Parser@@AAEXPAVScene@@PAVTransformNode@@ABVMaterial@@@Z 00434890 f   Parser.obj
 0001:00033ba0       ?parseTransform@Parser@@AAEXPAVScene@@PAVTransformNode@@ABVMaterial@@@Z 00434ba0 f   Parser.obj
 0001:00033d60       ?parseTransformableElement@Parser@@AAEXPAVScene@@PAVTransformNode@@ABVMaterial@@@Z 00434d60 f   Parser.obj
 0001:00033e70       ?parseTranslate@Parser@@AAEXPAVScene@@PAVTransformNode@@ABVMaterial@@@Z 00434e70 f   Parser.obj
 0001:00034160       ?parseTrimesh@Parser@@AAEXPAVScene@@PAVTransformNode@@ABVMaterial@@@Z 00435160 f   Parser.obj
 0001:00034ae0       ?parseVec3d@Parser@@AAE?AV?$Vec3@N@@XZ 00435ae0 f   Parser.obj
 0001:00034c80       ?parseVec3dExpression@Parser@@AAE?AV?$Vec3@N@@XZ 00435c80 f   Parser.obj
 0001:00034ce0       ?parseVec3dMaterialParameter@Parser@@AAE?AVMaterialParameter@@PAVScene@@@Z 00435ce0 f   Parser.obj
 0001:00034eb0       ?parseVec4d@Parser@@AAE?AV?$Vec4@N@@XZ 00435eb0 f   Parser.obj
 0001:000350b0       ?parseVec4dExpression@Parser@@AAE?AV?$Vec4@N@@XZ 004360b0 f   Parser.obj
 0001:00035110       ?pbackfail@?$basic_stringbuf@DU?$char_traits@D@std@@V?$allocator@D@2@@std@@MAEHH@Z 00436110 f i Parser.obj
 0001:00035170       ?push_back@?$vector@PAVGeometry@@V?$allocator@PAVGeometry@@@std@@@std@@QAEXABQAVGeometry@@@Z 00436170 f i Parser.obj
 0001:000351e0       ?push_back@?$vector@PAVLight@@V?$allocator@PAVLight@@@std@@@std@@QAEXABQAVLight@@@Z 004361e0 f i Parser.obj
 0001:00035250       ?push_back@?$vector@PAVTransformNode@@V?$allocator@PAVTransformNode@@@std@@@std@@QAEXABQAVTransformNode@@@Z 00436250 f i Parser.obj
 0001:000352c0       ?seekoff@?$basic_stringbuf@DU?$char_traits@D@std@@V?$allocator@D@2@@std@@MAE?AV?$fpos@U_Mbstatet@@@2@_JHH@Z 004362c0 f i Parser.obj
 0001:00035490       ?seekpos@?$basic_stringbuf@DU?$char_traits@D@std@@V?$allocator@D@2@@std@@MAE?AV?$fpos@U_Mbstatet@@@2@V32@H@Z 00436490 f i Parser.obj
 0001:000355b0       ?str@?$basic_ostringstream@DU?$char_traits@D@std@@V?$allocator@D@2@@std@@QBE?AV?$basic_string@DU?$char_traits@D@std@@V?$allocator@D@2@@2@XZ 004365b0 f i Parser.obj
 0001:000355d0       ?str@?$basic_stringbuf@DU?$char_traits@D@std@@V?$allocator@D@2@@std@@QBE?AV?$basic_string@DU?$char_traits@D@std@@V?$allocator@D@2@@2@XZ 004365d0 f i Parser.obj
 0001:00035710       ?underflow@?$basic_stringbuf@DU?$char_traits@D@std@@V?$allocator@D@2@@std@@MAEHXZ 00436710 f i Parser.obj
 0001:00035770       ??0SyntaxErrorException@@QAE@ABV?$basic_string@DU?$char_traits@D@std@@V?$allocator@D@2@@std@@ABVTokenizer@@@Z 00436770 f   ParserException.obj
 0001:00035ad0       ??$_Buynode@ABUpiecewise_construct_t@std@@V?$tuple@$$QAH@2@V?$tuple@$$V@2@@?$_Tree_comp_alloc@V?$_Tmap_traits@HV?$basic_string@DU?$char_traits@D@std@@V?$allocator@D@2@@std@@U?$less@H@2@V?$allocator@U?$pair@$$CBHV?$basic_string@DU?$char_traits@D@std@@V?$allocator@D@2@@std@@@std@@@2@$0A@@std@@@std@@QAEPAU?$_Tree_node@U?$pair@$$CBHV?$basic_string@DU?$char_traits@D@std@@V?$allocator@D@2@@std@@@std@@PAX@1@ABUpiecewise_construct_t@1@$$QAV?$tuple@$$QAH@1@$$QAV?$tuple@$$V@1@@Z 00436ad0 f i Token.obj
 0001:00035b10       ??$_Buynode@ABUpiecewise_construct_t@std@@V?$tuple@$$QAV?$basic_string@DU?$char_traits@D@std@@V?$allocator@D@2@@std@@@2@V?$tuple@$$V@2@@?$_Tree_comp_alloc@V?$_Tmap_traits@V?$basic_string@DU?$char_traits@D@std@@V?$allocator@D@2@@std@@W4SYMBOL@@U?$less@V?$basic_string@DU?$char_traits@D@std@@V?$allocator@D@2@@std@@@2@V?$allocator@U?$pair@$$CBV?$basic_string@DU?$char_traits@D@std@@V?$allocator@D@2@@std@@W4SYMBOL@@@std@@@2@$0A@@std@@@std@@QAEPAU?$_Tree_node@U?$pair@$$CBV?$basic_string@DU?$char_traits@D@std@@V?$allocator@D@2@@std@@W4SYMBOL@@@std@@PAX@1@ABUpiecewise_construct_t@1@$$QAV?$tuple@$$QAV?$basic_string@DU?$char_traits@D@std@@V?$allocator@D@2@@std@@@1@$$QAV?$tuple@$$V@1@@Z 00436b10 f i Token.obj
 0001:00035b60       ??$_Insert_at@AAU?$pair@$$CBHV?$basic_string@DU?$char_traits@D@std@@V?$allocator@D@2@@std@@@std@@PAU?$_Tree_node@U?$pair@$$CBHV?$basic_string@DU?$char_traits@D@std@@V?$allocator@D@2@@std@@@std@@PAX@2@@?$_Tree@V?$_Tmap_traits@HV?$basic_string@DU?$char_traits@D@std@@V?$allocator@D@2@@std@@U?$less@H@2@V?$allocator@U?$pair@$$CBHV?$basic_string@DU?$char_traits@D@std@@V?$allocator@D@2@@std@@@std@@@2@$0A@@std@@@std@@IAE?AV?$_Tree_iterator@V?$_Tree_val@U?$_Tree_simple_types@U?$pair@$$CBHV?$basic_string@DU?$char_traits@D@std@@V?$allocator@D@2@@std@@@std@@@std@@@std@@@1@_NPAU?$_Tree_node@U?$pair@$$CBHV?$basic_string@DU?$char_traits@D@std@@V?$allocator@D@2@@std@@@std@@PAX@1@AAU?$pair@$$CBHV?$basic_string@DU?$char_traits@D@std@@V?$allocator@D@2@@std@@@1@1@Z 00436b60 f i Token.obj
 0001:00035d30       ??$_Insert_at@AAU?$pair@$$CBV?$basic_string@DU?$char_traits@D@std@@V?$allocator@D@2@@std@@W4SYMBOL@@@std@@PAU?$_Tree_node@U?$pair@$$CBV?$basic_string@DU?$char_traits@D@std@@V?$allocator@D@2@@std@@W4SYMBOL@@@std@@PAX@2@@?$_Tree@V?$_Tmap_traits@V?$basic_string@DU?$char_traits@D@std@@V?$allocator@D@2@@std@@W4SYMBOL@@U?$less@V?$basic_string@DU?$char_traits@D@std@@V?$allocator@D@2@@std@@@2@V?$allocator@U?$pair@$$CBV?$basic_string@DU?$char_traits@D@std@@V?$allocator@D@2@@std@@W4SYMBOL@@@std@@@2@$0A@@std@@@std@@IAE?AV?$_Tree_iterator@V?$_Tree_val@U?$_Tree_simple_types@U?$pair@$$CBV?$basic_string@DU?$char_traits@D@std@@V?$allocator@D@2@@std@@W4SYMBOL@@@std@@@std@@@std@@@1@_NPAU?$_Tree_node@U?$pair@$$CBV?$basic_string@DU?$char_traits@D@std@@V?$allocator@D@2@@std@@W4SYMBOL@@@std@@PAX@1@AAU?$pair@$$CBV?$basic_string@DU?$char_traits@D@std@@V?$allocator@D@2@@std@@W4SYMBOL@@@1@1@Z 00436d30 f i Token.obj
 0001:00035f00       ??$_Insert_hint@AAU?$pair@$$CBHV?$basic_string@DU?$char_traits@D@std@@V?$allocator@D@2@@std@@@std@@PAU?$_Tree_node@U?$pair@$$CBHV?$basic_string@DU?$char_traits@D@std@@V?$allocator@D@2@@std@@@std@@PAX@2@@?$_Tree@V?$_Tmap_traits@HV?$basic_string@DU?$char_traits@D@std@@V?$allocator@D@2@@std@@U?$less@H@2@V?$allocator@U?$pair@$$CBHV?$basic_string@DU?$char_traits@D@std@@V?$allocator@D@2@@std@@@std@@@2@$0A@@std@@@std@@IAE?AV?$_Tree_iterator@V?$_Tree_val@U?$_Tree_simple_types@U?$pair@$$CBHV?$basic_string@DU?$char_traits@D@std@@V?$allocator@D@2@@std@@@std@@@std@@@std@@@1@V?$_Tree_const_iterator@V?$_Tree_val@U?$_Tree_simple_types@U?$pair@$$CBHV?$basic_string@DU?$char_traits@D@std@@V?$allocator@D@2@@std@@@std@@@std@@@std@@@1@AAU?$pair@$$CBHV?$basic_string@DU?$char_traits@D@std@@V?$allocator@D@2@@std@@@1@PAU?$_Tree_node@U?$pair@$$CBHV?$basic_string@DU?$char_traits@D@std@@V?$allocator@D@2@@std@@@std@@PAX@1@@Z 00436f00 f i Token.obj
 0001:00036130       ??$_Insert_hint@AAU?$pair@$$CBV?$basic_string@DU?$char_traits@D@std@@V?$allocator@D@2@@std@@W4SYMBOL@@@std@@PAU?$_Tree_node@U?$pair@$$CBV?$basic_string@DU?$char_traits@D@std@@V?$allocator@D@2@@std@@W4SYMBOL@@@std@@PAX@2@@?$_Tree@V?$_Tmap_traits@V?$basic_string@DU?$char_traits@D@std@@V?$allocator@D@2@@std@@W4SYMBOL@@U?$less@V?$basic_string@DU?$char_traits@D@std@@V?$allocator@D@2@@std@@@2@V?$allocator@U?$pair@$$CBV?$basic_string@DU?$char_traits@D@std@@V?$allocator@D@2@@std@@W4SYMBOL@@@std@@@2@$0A@@std@@@std@@IAE?AV?$_Tree_iterator@V?$_Tree_val@U?$_Tree_simple_types@U?$pair@$$CBV?$basic_string@DU?$char_traits@D@std@@V?$allocator@D@2@@std@@W4SYMBOL@@@std@@@std@@@std@@@1@V?$_Tree_const_iterator@V?$_Tree_val@U?$_Tree_simple_types@U?$pair@$$CBV?$basic_string@DU?$char_traits@D@std@@V?$allocator@D@2@@std@@W4SYMBOL@@@std@@@std@@@std@@@1@AAU?$pair@$$CBV?$basic_string@DU?$char_traits@D@std@@V?$allocator@D@2@@std@@W4SYMBOL@@@1@PAU?$_Tree_node@U?$pair@$$CBV?$basic_string@DU?$char_traits@D@std@@V?$allocator@D@2@@std@@W4SYMBOL@@@std@@PAX@1@@Z 00437130 f i Token.obj
 0001:00036390       ??$_Insert_nohint@AAU?$pair@$$CBHV?$basic_string@DU?$char_traits@D@std@@V?$allocator@D@2@@std@@@std@@PAU?$_Tree_node@U?$pair@$$CBHV?$basic_string@DU?$char_traits@D@std@@V?$allocator@D@2@@std@@@std@@PAX@2@@?$_Tree@V?$_Tmap_traits@HV?$basic_string@DU?$char_traits@D@std@@V?$allocator@D@2@@std@@U?$less@H@2@V?$allocator@U?$pair@$$CBHV?$basic_string@DU?$char_traits@D@std@@V?$allocator@D@2@@std@@@std@@@2@$0A@@std@@@std@@IAE?AU?$pair@V?$_Tree_iterator@V?$_Tree_val@U?$_Tree_simple_types@U?$pair@$$CBHV?$basic_string@DU?$char_traits@D@std@@V?$allocator@D@2@@std@@@std@@@std@@@std@@@std@@_N@1@_NAAU?$pair@$$CBHV?$basic_string@DU?$char_traits@D@std@@V?$allocator@D@2@@std@@@1@PAU?$_Tree_node@U?$pair@$$CBHV?$basic_string@DU?$char_traits@D@std@@V?$allocator@D@2@@std@@@std@@PAX@1@@Z 00437390 f i Token.obj
 0001:000364b0       ??$_Insert_nohint@AAU?$pair@$$CBV?$basic_string@DU?$char_traits@D@std@@V?$allocator@D@2@@std@@W4SYMBOL@@@std@@PAU?$_Tree_node@U?$pair@$$CBV?$basic_string@DU?$char_traits@D@std@@V?$allocator@D@2@@std@@W4SYMBOL@@@std@@PAX@2@@?$_Tree@V?$_Tmap_traits@V?$basic_string@DU?$char_traits@D@std@@V?$allocator@D@2@@std@@W4SYMBOL@@U?$less@V?$basic_string@DU?$char_traits@D@std@@V?$allocator@D@2@@std@@@2@V?$allocator@U?$pair@$$CBV?$basic_string@DU?$char_traits@D@std@@V?$allocator@D@2@@std@@W4SYMBOL@@@std@@@2@$0A@@std@@@std@@IAE?AU?$pair@V?$_Tree_iterator@V?$_Tree_val@U?$_Tree_simple_types@U?$pair@$$CBV?$basic_string@DU?$char_traits@D@std@@V?$allocator@D@2@@std@@W4SYMBOL@@@std@@@std@@@std@@@std@@_N@1@_NAAU?$pair@$$CBV?$basic_string@DU?$char_traits@D@std@@V?$allocator@D@2@@std@@W4SYMBOL@@@1@PAU?$_Tree_node@U?$pair@$$CBV?$basic_string@DU?$char_traits@D@std@@V?$allocator@D@2@@std@@W4SYMBOL@@@std@@PAX@1@@Z 004374b0 f i Token.obj
 0001:00036720       ??$_Lbound@V?$basic_string@DU?$char_traits@D@std@@V?$allocator@D@2@@std@@@?$_Tree@V?$_Tmap_traits@V?$basic_string@DU?$char_traits@D@std@@V?$allocator@D@2@@std@@W4SYMBOL@@U?$less@V?$basic_string@DU?$char_traits@D@std@@V?$allocator@D@2@@std@@@2@V?$allocator@U?$pair@$$CBV?$basic_string@DU?$char_traits@D@std@@V?$allocator@D@2@@std@@W4SYMBOL@@@std@@@2@$0A@@std@@@std@@IBEPAU?$_Tree_node@U?$pair@$$CBV?$basic_string@DU?$char_traits@D@std@@V?$allocator@D@2@@std@@W4SYMBOL@@@std@@PAX@1@ABV?$basic_string@DU?$char_traits@D@std@@V?$allocator@D@2@@1@@Z 00437720 f i Token.obj
 0001:00036800       ??$_Try_emplace@H$$V@?$map@HV?$basic_string@DU?$char_traits@D@std@@V?$allocator@D@2@@std@@U?$less@H@2@V?$allocator@U?$pair@$$CBHV?$basic_string@DU?$char_traits@D@std@@V?$allocator@D@2@@std@@@std@@@2@@std@@QAE?AU?$pair@V?$_Tree_iterator@V?$_Tree_val@U?$_Tree_simple_types@U?$pair@$$CBHV?$basic_string@DU?$char_traits@D@std@@V?$allocator@D@2@@std@@@std@@@std@@@std@@@std@@_N@1@$$QAH@Z 00437800 f i Token.obj
 0001:00036890       ??$_Try_emplace@V?$basic_string@DU?$char_traits@D@std@@V?$allocator@D@2@@std@@$$V@?$map@V?$basic_string@DU?$char_traits@D@std@@V?$allocator@D@2@@std@@W4SYMBOL@@U?$less@V?$basic_string@DU?$char_traits@D@std@@V?$allocator@D@2@@std@@@2@V?$allocator@U?$pair@$$CBV?$basic_string@DU?$char_traits@D@std@@V?$allocator@D@2@@std@@W4SYMBOL@@@std@@@2@@std@@QAE?AU?$pair@V?$_Tree_iterator@V?$_Tree_val@U?$_Tree_simple_types@U?$pair@$$CBV?$basic_string@DU?$char_traits@D@std@@V?$allocator@D@2@@std@@W4SYMBOL@@@std@@@std@@@std@@@std@@_N@1@$$QAV?$basic_string@DU?$char_traits@D@std@@V?$allocator@D@2@@1@@Z 00437890 f i Token.obj
 0001:00036940       ??$destroy@PAU?$_Tree_node@U?$pair@$$CBHV?$basic_string@DU?$char_traits@D@std@@V?$allocator@D@2@@std@@@std@@PAX@std@@@?$_Wrap_alloc@V?$allocator@U?$_Tree_node@U?$pair@$$CBHV?$basic_string@DU?$char_traits@D@std@@V?$allocator@D@2@@std@@@std@@PAX@std@@@std@@@std@@QAEXPAPAU?$_Tree_node@U?$pair@$$CBHV?$basic_string@DU?$char_traits@D@std@@V?$allocator@D@2@@std@@@std@@PAX@1@@Z 00437940 f i Token.obj
 0001:00036950       ??$destroy@PAU?$_Tree_node@U?$pair@$$CBV?$basic_string@DU?$char_traits@D@std@@V?$allocator@D@2@@std@@W4SYMBOL@@@std@@PAX@std@@@?$_Wrap_alloc@V?$allocator@U?$_Tree_node@U?$pair@$$CBV?$basic_string@DU?$char_traits@D@std@@V?$allocator@D@2@@std@@W4SYMBOL@@@std@@PAX@std@@@std@@@std@@QAEXPAPAU?$_Tree_node@U?$pair@$$CBV?$basic_string@DU?$char_traits@D@std@@V?$allocator@D@2@@std@@W4SYMBOL@@@std@@PAX@1@@Z 00437950 f i Token.obj
 0001:00036960       ??0?$basic_stringbuf@DU?$char_traits@D@std@@V?$allocator@D@2@@std@@QAE@ABV?$basic_string@DU?$char_traits@D@std@@V?$allocator@D@2@@1@H@Z 00437960 f i Token.obj
 0001:00036a00       ??E?$_Tree_unchecked_const_iterator@V?$_Tree_val@U?$_Tree_simple_types@U?$pair@$$CBHV?$basic_string@DU?$char_traits@D@std@@V?$allocator@D@2@@std@@@std@@@std@@@std@@U_Iterator_base0@2@@std@@QAEAAV01@XZ 00437a00 f i Token.obj
 0001:00036a50       ??E?$_Tree_unchecked_const_iterator@V?$_Tree_val@U?$_Tree_simple_types@U?$pair@$$CBV?$basic_string@DU?$char_traits@D@std@@V?$allocator@D@2@@std@@W4SYMBOL@@@std@@@std@@@std@@U_Iterator_base0@2@@std@@QAEAAV01@XZ 00437a50 f i Token.obj
 0001:00036aa0       ??F?$_Tree_unchecked_const_iterator@V?$_Tree_val@U?$_Tree_simple_types@U?$pair@$$CBHV?$basic_string@DU?$char_traits@D@std@@V?$allocator@D@2@@std@@@std@@@std@@@std@@U_Iterator_base0@2@@std@@QAEAAV01@XZ 00437aa0 f i Token.obj
 0001:00036b00       ??F?$_Tree_unchecked_const_iterator@V?$_Tree_val@U?$_Tree_simple_types@U?$pair@$$CBV?$basic_string@DU?$char_traits@D@std@@V?$allocator@D@2@@std@@W4SYMBOL@@@std@@@std@@@std@@U_Iterator_base0@2@@std@@QAEAAV01@XZ 00437b00 f i Token.obj
 0001:00036b60       ?Print@Token@@UBEXAAV?$basic_ostream@DU?$char_traits@D@std@@@std@@@Z 00437b60 f   Token.obj
 0001:00036be0       ?Print@Token@@UBEXXZ       00437be0 f   Token.obj
 0001:00036bf0       ?_Buyheadnode@?$_Tree_comp_alloc@V?$_Tmap_traits@HV?$basic_string@DU?$char_traits@D@std@@V?$allocator@D@2@@std@@U?$less@H@2@V?$allocator@U?$pair@$$CBHV?$basic_string@DU?$char_traits@D@std@@V?$allocator@D@2@@std@@@std@@@2@$0A@@std@@@std@@QAEPAU?$_Tree_node@U?$pair@$$CBHV?$basic_string@DU?$char_traits@D@std@@V?$allocator@D@2@@std@@@std@@PAX@2@XZ 00437bf0 f i Token.obj
 0001:00036c20       ?_Buyheadnode@?$_Tree_comp_alloc@V?$_Tmap_traits@V?$basic_string@DU?$char_traits@D@std@@V?$allocator@D@2@@std@@W4SYMBOL@@U?$less@V?$basic_string@DU?$char_traits@D@std@@V?$allocator@D@2@@std@@@2@V?$allocator@U?$pair@$$CBV?$basic_string@DU?$char_traits@D@std@@V?$allocator@D@2@@std@@W4SYMBOL@@@std@@@2@$0A@@std@@@std@@QAEPAU?$_Tree_node@U?$pair@$$CBV?$basic_string@DU?$char_traits@D@std@@V?$allocator@D@2@@std@@W4SYMBOL@@@std@@PAX@2@XZ 00437c20 f i Token.obj
 0001:00036c50       ?_Buynode0@?$_Tree_comp_alloc@V?$_Tmap_traits@HV?$basic_string@DU?$char_traits@D@std@@V?$allocator@D@2@@std@@U?$less@H@2@V?$allocator@U?$pair@$$CBHV?$basic_string@DU?$char_traits@D@std@@V?$allocator@D@2@@std@@@std@@@2@$0A@@std@@@std@@QAEPAU?$_Tree_node@U?$pair@$$CBHV?$basic_string@DU?$char_traits@D@std@@V?$allocator@D@2@@std@@@std@@PAX@2@XZ 00437c50 f i Token.obj
 0001:00036c90       ?_Buynode0@?$_Tree_comp_alloc@V?$_Tmap_traits@V?$basic_string@DU?$char_traits@D@std@@V?$allocator@D@2@@std@@W4SYMBOL@@U?$less@V?$basic_string@DU?$char_traits@D@std@@V?$allocator@D@2@@std@@@2@V?$allocator@U?$pair@$$CBV?$basic_string@DU?$char_traits@D@std@@V?$allocator@D@2@@std@@W4SYMBOL@@@std@@@2@$0A@@std@@@std@@QAEPAU?$_Tree_node@U?$pair@$$CBV?$basic_string@DU?$char_traits@D@std@@V?$allocator@D@2@@std@@W4SYMBOL@@@std@@PAX@2@XZ 00437c90 f i Token.obj
 0001:00036cd0       ?_Destroy_if_not_nil@?$_Tree@V?$_Tmap_traits@HV?$basic_string@DU?$char_traits@D@std@@V?$allocator@D@2@@std@@U?$less@H@2@V?$allocator@U?$pair@$$CBHV?$basic_string@DU?$char_traits@D@std@@V?$allocator@D@2@@std@@@std@@@2@$0A@@std@@@std@@IAEXPAU?$_Tree_node@U?$pair@$$CBHV?$basic_string@DU?$char_traits@D@std@@V?$allocator@D@2@@std@@@std@@PAX@2@@Z 00437cd0 f i Token.obj
 0001:00036d20       ?_Destroy_if_not_nil@?$_Tree@V?$_Tmap_traits@V?$basic_string@DU?$char_traits@D@std@@V?$allocator@D@2@@std@@W4SYMBOL@@U?$less@V?$basic_string@DU?$char_traits@D@std@@V?$allocator@D@2@@std@@@2@V?$allocator@U?$pair@$$CBV?$basic_string@DU?$char_traits@D@std@@V?$allocator@D@2@@std@@W4SYMBOL@@@std@@@2@$0A@@std@@@std@@IAEXPAU?$_Tree_node@U?$pair@$$CBV?$basic_string@DU?$char_traits@D@std@@V?$allocator@D@2@@std@@W4SYMBOL@@@std@@PAX@2@@Z 00437d20 f i Token.obj
 0001:00036d70       ?_Erase@?$_Tree@V?$_Tmap_traits@HV?$basic_string@DU?$char_traits@D@std@@V?$allocator@D@2@@std@@U?$less@H@2@V?$allocator@U?$pair@$$CBHV?$basic_string@DU?$char_traits@D@std@@V?$allocator@D@2@@std@@@std@@@2@$0A@@std@@@std@@IAEXPAU?$_Tree_node@U?$pair@$$CBHV?$basic_string@DU?$char_traits@D@std@@V?$allocator@D@2@@std@@@std@@PAX@2@@Z 00437d70 f i Token.obj
 0001:00036e20       ?_Erase@?$_Tree@V?$_Tmap_traits@V?$basic_string@DU?$char_traits@D@std@@V?$allocator@D@2@@std@@W4SYMBOL@@U?$less@V?$basic_string@DU?$char_traits@D@std@@V?$allocator@D@2@@std@@@2@V?$allocator@U?$pair@$$CBV?$basic_string@DU?$char_traits@D@std@@V?$allocator@D@2@@std@@W4SYMBOL@@@std@@@2@$0A@@std@@@std@@IAEXPAU?$_Tree_node@U?$pair@$$CBV?$basic_string@DU?$char_traits@D@std@@V?$allocator@D@2@@std@@W4SYMBOL@@@std@@PAX@2@@Z 00437e20 f i Token.obj
 0001:00036ed0       ?_Init@?$basic_stringbuf@DU?$char_traits@D@std@@V?$allocator@D@2@@std@@IAEXPBDIH@Z 00437ed0 f i Token.obj
 0001:00036f70       ?_Lrotate@?$_Tree@V?$_Tmap_traits@HV?$basic_string@DU?$char_traits@D@std@@V?$allocator@D@2@@std@@U?$less@H@2@V?$allocator@U?$pair@$$CBHV?$basic_string@DU?$char_traits@D@std@@V?$allocator@D@2@@std@@@std@@@2@$0A@@std@@@std@@IAEXPAU?$_Tree_node@U?$pair@$$CBHV?$basic_string@DU?$char_traits@D@std@@V?$allocator@D@2@@std@@@std@@PAX@2@@Z 00437f70 f i Token.obj
 0001:00036fd0       ?_Lrotate@?$_Tree@V?$_Tmap_traits@V?$basic_string@DU?$char_traits@D@std@@V?$allocator@D@2@@std@@W4SYMBOL@@U?$less@V?$basic_string@DU?$char_traits@D@std@@V?$allocator@D@2@@std@@@2@V?$allocator@U?$pair@$$CBV?$basic_string@DU?$char_traits@D@std@@V?$allocator@D@2@@std@@W4SYMBOL@@@std@@@2@$0A@@std@@@std@@IAEXPAU?$_Tree_node@U?$pair@$$CBV?$basic_string@DU?$char_traits@D@std@@V?$allocator@D@2@@std@@W4SYMBOL@@@std@@PAX@2@@Z 00437fd0 f i Token.obj
 0001:00037030       ?_Rrotate@?$_Tree@V?$_Tmap_traits@HV?$basic_string@DU?$char_traits@D@std@@V?$allocator@D@2@@std@@U?$less@H@2@V?$allocator@U?$pair@$$CBHV?$basic_string@DU?$char_traits@D@std@@V?$allocator@D@2@@std@@@std@@@2@$0A@@std@@@std@@IAEXPAU?$_Tree_node@U?$pair@$$CBHV?$basic_string@DU?$char_traits@D@std@@V?$allocator@D@2@@std@@@std@@PAX@2@@Z 00438030 f i Token.obj
 0001:00037090       ?_Rrotate@?$_Tree@V?$_Tmap_traits@V?$basic_string@DU?$char_traits@D@std@@V?$allocator@D@2@@std@@W4SYMBOL@@U?$less@V?$basic_string@DU?$char_traits@D@std@@V?$allocator@D@2@@std@@@2@V?$allocator@U?$pair@$$CBV?$basic_string@DU?$char_traits@D@std@@V?$allocator@D@2@@std@@W4SYMBOL@@@std@@@2@$0A@@std@@@std@@IAEXPAU?$_Tree_node@U?$pair@$$CBV?$basic_string@DU?$char_traits@D@std@@V?$allocator@D@2@@std@@W4SYMBOL@@@std@@PAX@2@@Z 00438090 f i Token.obj
 0001:000370f0       ?erase@?$_Tree@V?$_Tmap_traits@HV?$basic_string@DU?$char_traits@D@std@@V?$allocator@D@2@@std@@U?$less@H@2@V?$allocator@U?$pair@$$CBHV?$basic_string@DU?$char_traits@D@std@@V?$allocator@D@2@@std@@@std@@@2@$0A@@std@@@std@@QAE?AV?$_Tree_iterator@V?$_Tree_val@U?$_Tree_simple_types@U?$pair@$$CBHV?$basic_string@DU?$char_traits@D@std@@V?$allocator@D@2@@std@@@std@@@std@@@std@@@2@V?$_Tree_const_iterator@V?$_Tree_val@U?$_Tree_simple_types@U?$pair@$$CBHV?$basic_string@DU?$char_traits@D@std@@V?$allocator@D@2@@std@@@std@@@std@@@std@@@2@0@Z 004380f0 f i Token.obj
 0001:000371e0       ?erase@?$_Tree@V?$_Tmap_traits@HV?$basic_string@DU?$char_traits@D@std@@V?$allocator@D@2@@std@@U?$less@H@2@V?$allocator@U?$pair@$$CBHV?$basic_string@DU?$char_traits@D@std@@V?$allocator@D@2@@std@@@std@@@2@$0A@@std@@@std@@QAE?AV?$_Tree_iterator@V?$_Tree_val@U?$_Tree_simple_types@U?$pair@$$CBHV?$basic_string@DU?$char_traits@D@std@@V?$allocator@D@2@@std@@@std@@@std@@@std@@@2@V?$_Tree_const_iterator@V?$_Tree_val@U?$_Tree_simple_types@U?$pair@$$CBHV?$basic_string@DU?$char_traits@D@std@@V?$allocator@D@2@@std@@@std@@@std@@@std@@@2@@Z 004381e0 f i Token.obj
 0001:000374d0       ?erase@?$_Tree@V?$_Tmap_traits@V?$basic_string@DU?$char_traits@D@std@@V?$allocator@D@2@@std@@W4SYMBOL@@U?$less@V?$basic_string@DU?$char_traits@D@std@@V?$allocator@D@2@@std@@@2@V?$allocator@U?$pair@$$CBV?$basic_string@DU?$char_traits@D@std@@V?$allocator@D@2@@std@@W4SYMBOL@@@std@@@2@$0A@@std@@@std@@QAE?AV?$_Tree_iterator@V?$_Tree_val@U?$_Tree_simple_types@U?$pair@$$CBV?$basic_string@DU?$char_traits@D@std@@V?$allocator@D@2@@std@@W4SYMBOL@@@std@@@std@@@std@@@2@V?$_Tree_const_iterator@V?$_Tree_val@U?$_Tree_simple_types@U?$pair@$$CBV?$basic_string@DU?$char_traits@D@std@@V?$allocator@D@2@@std@@W4SYMBOL@@@std@@@std@@@std@@@2@0@Z 004384d0 f i Token.obj
 0001:000375c0       ?erase@?$_Tree@V?$_Tmap_traits@V?$basic_string@DU?$char_traits@D@std@@V?$allocator@D@2@@std@@W4SYMBOL@@U?$less@V?$basic_string@DU?$char_traits@D@std@@V?$allocator@D@2@@std@@@2@V?$allocator@U?$pair@$$CBV?$basic_string@DU?$char_traits@D@std@@V?$allocator@D@2@@std@@W4SYMBOL@@@std@@@2@$0A@@std@@@std@@QAE?AV?$_Tree_iterator@V?$_Tree_val@U?$_Tree_simple_types@U?$pair@$$CBV?$basic_string@DU?$char_traits@D@std@@V?$allocator@D@2@@std@@W4SYMBOL@@@std@@@std@@@std@@@2@V?$_Tree_const_iterator@V?$_Tree_val@U?$_Tree_simple_types@U?$pair@$$CBV?$basic_string@DU?$char_traits@D@std@@V?$allocator@D@2@@std@@W4SYMBOL@@@std@@@std@@@std@@@2@@Z 004385c0 f i Token.obj
 0001:000378b0       ?find@?$_Tree@V?$_Tmap_traits@V?$basic_string@DU?$char_traits@D@std@@V?$allocator@D@2@@std@@W4SYMBOL@@U?$less@V?$basic_string@DU?$char_traits@D@std@@V?$allocator@D@2@@std@@@2@V?$allocator@U?$pair@$$CBV?$basic_string@DU?$char_traits@D@std@@V?$allocator@D@2@@std@@W4SYMBOL@@@std@@@2@$0A@@std@@@std@@QAE?AV?$_Tree_iterator@V?$_Tree_val@U?$_Tree_simple_types@U?$pair@$$CBV?$basic_string@DU?$char_traits@D@std@@V?$allocator@D@2@@std@@W4SYMBOL@@@std@@@std@@@std@@@2@ABV?$basic_string@DU?$char_traits@D@std@@V?$allocator@D@2@@2@@Z 004388b0 f i Token.obj
 0001:00037940       ?getNameForToken@@YA?AV?$basic_string@DU?$char_traits@D@std@@V?$allocator@D@2@@std@@W4SYMBOL@@@Z 00438940 f   Token.obj
 0001:00038430       ?lookupReservedWord@@YA?AW4SYMBOL@@ABV?$basic_string@DU?$char_traits@D@std@@V?$allocator@D@2@@std@@@Z 00439430 f   Token.obj
 0001:00039280       ?toString@IdentToken@@UBE?AV?$basic_string@DU?$char_traits@D@std@@V?$allocator@D@2@@std@@XZ 0043a280 f   Token.obj
 0001:00039430       ?toString@ScalarToken@@UBE?AV?$basic_string@DU?$char_traits@D@std@@V?$allocator@D@2@@std@@XZ 0043a430 f   Token.obj
 0001:000395d0       ?toString@Token@@UBE?AV?$basic_string@DU?$char_traits@D@std@@V?$allocator@D@2@@std@@XZ 0043a5d0 f   Token.obj
 0001:00039600       ??0IdentToken@@QAE@V?$basic_string@DU?$char_traits@D@std@@V?$allocator@D@2@@std@@@Z 0043a600 f i Tokenizer.obj
 0001:000396a0       ??0Tokenizer@@QAE@AAV?$basic_istream@DU?$char_traits@D@std@@@std@@_N@Z 0043a6a0 f   Tokenizer.obj
 0001:000396e0       ??1Token@@UAE@XZ           0043a6e0 f i Tokenizer.obj
 0001:000396f0       ??_EIdentToken@@UAEPAXI@Z  0043a6f0 f i Tokenizer.obj
 0001:000396f0       ??_GIdentToken@@UAEPAXI@Z  0043a6f0 f i Tokenizer.obj
 0001:00039750       ??_EScalarToken@@UAEPAXI@Z 0043a750 f i Tokenizer.obj
 0001:00039750       ??_GScalarToken@@UAEPAXI@Z 0043a750 f i Tokenizer.obj
 0001:00039780       ??_EToken@@UAEPAXI@Z       0043a780 f i Tokenizer.obj
 0001:00039780       ??_GToken@@UAEPAXI@Z       0043a780 f i Tokenizer.obj
 0001:000397b0       ?CondRead@Tokenizer@@QAE_NW4SYMBOL@@@Z 0043a7b0 f   Tokenizer.obj
 0001:00039800       ?CondReadCh@Tokenizer@@IAE_ND@Z 0043a800 f   Tokenizer.obj
 0001:00039830       ?Get@Tokenizer@@QAE?AV?$auto_ptr@VToken@@@std@@XZ 0043a830 f   Tokenizer.obj
 0001:00039850       ?GetIdent@Tokenizer@@IAEPAVToken@@XZ 0043a850 f   Tokenizer.obj
 0001:00039a30       ?GetNext@Tokenizer@@IAEPAVToken@@XZ 0043aa30 f   Tokenizer.obj
 0001:00039ba0       ?GetPunct@Tokenizer@@IAEPAVToken@@XZ 0043aba0 f   Tokenizer.obj
 0001:00039e90       ?GetQuotedIdent@Tokenizer@@IAEPAVToken@@XZ 0043ae90 f   Tokenizer.obj
 0001:0003a090       ?GetScalar@Tokenizer@@IAEPAVToken@@XZ 0043b090 f   Tokenizer.obj
 0001:0003a220       ?Peek@Tokenizer@@QAEPBVToken@@XZ 0043b220 f   Tokenizer.obj
 0001:0003a240       ?Read@Tokenizer@@QAE?AV?$auto_ptr@VToken@@@std@@W4SYMBOL@@@Z 0043b240 f   Tokenizer.obj
 0001:0003a370       ?ScanProgram@Tokenizer@@QAEXXZ 0043b370 f   Tokenizer.obj
 0001:0003a3b0       ?SearchReserved@Tokenizer@@IBEPAVToken@@ABV?$basic_string@DU?$char_traits@D@std@@V?$allocator@D@2@@std@@@Z 0043b3b0 f   Tokenizer.obj
 0001:0003a480       ?SkipWhiteSpace@Tokenizer@@IAEXXZ 0043b480 f   Tokenizer.obj
 0001:0003a730       ?UnGet@Tokenizer@@IAEXPAVToken@@@Z 0043b730 f   Tokenizer.obj
 0001:0003a7e0       ?ident@IdentToken@@UBE?AV?$basic_string@DU?$char_traits@D@std@@V?$allocator@D@2@@std@@XZ 0043b7e0 f i Tokenizer.obj
 0001:0003a820       ?ident@Token@@UBE?AV?$basic_string@DU?$char_traits@D@std@@V?$allocator@D@2@@std@@XZ 0043b820 f i Tokenizer.obj
 0001:0003a8b0       ?value@ScalarToken@@UBENXZ 0043b8b0 f i Tokenizer.obj
 0001:0003a8c0       ?value@Token@@UBENXZ       0043b8c0 f i Tokenizer.obj
 0001:0003a950       ??0TraceGLWindow@@QAE@HHHHPBD@Z 0043b950 f   TraceGLWindow.obj
 0001:0003aa10       ??_ETraceGLWindow@@UAEPAXI@Z 0043ba10 f i TraceGLWindow.obj
 0001:0003aa10       ??_GTraceGLWindow@@UAEPAXI@Z 0043ba10 f i TraceGLWindow.obj
 0001:0003aa40       ?draw@TraceGLWindow@@UAEXXZ 0043ba40 f   TraceGLWindow.obj
 0001:0003ab20       ?handle@TraceGLWindow@@UAEHH@Z 0043bb20 f   TraceGLWindow.obj
 0001:0003ac40       ?refresh@TraceGLWindow@@QAEXXZ 0043bc40 f   TraceGLWindow.obj
 0001:0003ac50       ?resizeWindow@TraceGLWindow@@QAEXHH@Z 0043bc50 f   TraceGLWindow.obj
 0001:0003acc0       ?saveImage@TraceGLWindow@@QAEXPBD0H@Z 0043bcc0 f   TraceGLWindow.obj
 0001:0003ad10       ?setRayTracer@TraceGLWindow@@QAEXPAVRayTracer@@@Z 0043bd10 f   TraceGLWindow.obj
 0001:0003ad40       ??0Fl_RGB_Image@@QAE@PBEHHHH@Z 0043bd40 f i fltk:Fl.obj
 0001:0003ada0       ??0Fl_Widget_Tracker@@QAE@PAVFl_Widget@@@Z 0043bda0 f   fltk:Fl.obj
 0001:0003adc0       ??0Lf2CrlfConvert@@QAE@PBDH@Z 0043bdc0 f i fltk:Fl.obj
 0001:0003ae70       ??1Fl_Device@@UAE@XZ       0043be70 f i fltk:Fl.obj
 0001:0003ae80       ??1Fl_Graphics_Driver@@UAE@XZ 0043be80 f i fltk:Fl.obj
 0001:0003aeb0       ??1Fl_Surface_Device@@UAE@XZ 0043beb0 f i fltk:Fl.obj
 0001:0003aec0       ??1Fl_Widget_Tracker@@QAE@XZ 0043bec0 f   fltk:Fl.obj
 0001:0003aed0       ??1Lf2CrlfConvert@@QAE@XZ  0043bed0 f i fltk:Fl.obj
 0001:0003aee0       ??_EFl_Device@@UAEPAXI@Z   0043bee0 f i fltk:Fl.obj
 0001:0003aee0       ??_GFl_Device@@UAEPAXI@Z   0043bee0 f i fltk:Fl.obj
 0001:0003af10       ??_EFl_GDI_Graphics_Driver@@UAEPAXI@Z 0043bf10 f i fltk:Fl.obj
 0001:0003af10       ??_GFl_GDI_Graphics_Driver@@UAEPAXI@Z 0043bf10 f i fltk:Fl.obj
 0001:0003af60       ??_GFl_Graphics_Driver@@UAEPAXI@Z 0043bf60 f i fltk:Fl.obj
 0001:0003af60       ??_EFl_Graphics_Driver@@UAEPAXI@Z 0043bf60 f i fltk:Fl.obj
 0001:0003afb0       ??_GFl_Image@@UAEPAXI@Z    0043bfb0 f i fltk:Fl.obj
 0001:0003afb0       ??_EFl_Image@@UAEPAXI@Z    0043bfb0 f i fltk:Fl.obj
 0001:0003afe0       ??_EFl_RGB_Image@@UAEPAXI@Z 0043bfe0 f i fltk:Fl.obj
 0001:0003afe0       ??_GFl_RGB_Image@@UAEPAXI@Z 0043bfe0 f i fltk:Fl.obj
 0001:0003c170       ?XRectangleRegion@@YAPAUHRGN__@@HHHH@Z 0043d170 f   fltk:Fl.obj
 0001:0003c210       ?add_check@Fl@@SAXP6AXPAX@Z0@Z 0043d210 f   fltk:Fl.obj
 0001:0003c270       ?add_clipboard_notify@Fl@@SAXP6AXHPAX@Z0@Z 0043d270 f   fltk:Fl.obj
 0001:0003c2e0       ?add_fd@Fl@@SAXHHP6AXHPAX@Z0@Z 0043d2e0 f   fltk:Fl.obj
 0001:0003c410       ?add_fd@Fl@@SAXHP6AXHPAX@Z0@Z 0043d410 f   fltk:Fl.obj
 0001:0003c430       ?add_handler@Fl@@SAXP6AHH@Z@Z 0043d430 f   fltk:Fl.obj
 0001:0003c460       ?add_system_handler@Fl@@SAXP6AHPAX0@Z0@Z 0043d460 f   fltk:Fl.obj
 0001:0003c490       ?add_timeout@Fl@@SAXNP6AXPAX@Z0@Z 0043d490 f   fltk:Fl.obj
 0001:0003c4b0       ?belowmouse@Fl@@SAXPAVFl_Widget@@@Z 0043d4b0 f   fltk:Fl.obj
 0001:0003c520       ?check@Fl@@SAHXZ           0043d520 f   fltk:Fl.obj
 0001:0003c550       ?class_name@Fl_Device@@UAEPBDXZ 0043d550 f i fltk:Fl.obj
 0001:0003c560       ?class_name@Fl_GDI_Graphics_Driver@@UAEPBDXZ 0043d560 f i fltk:Fl.obj
 0001:0003c570       ?class_name@Fl_Graphics_Driver@@UAEPBDXZ 0043d570 f i fltk:Fl.obj
 0001:0003c580       ?clear_widget_pointer@Fl@@SAXPBVFl_Widget@@@Z 0043d580 f   fltk:Fl.obj
 0001:0003c5c0       ?clipboard_contains@Fl@@SAHPBD@Z 0043d5c0 f   fltk:Fl.obj
 0001:0003c690       ?color@Fl_Graphics_Driver@@MAEXEEE@Z 0043d690 f i fltk:Fl.obj
 0001:0003c6a0       ?color@Fl_Graphics_Driver@@MAEXI@Z 0043d6a0 f i fltk:Fl.obj
 0001:0003c6b0       ?copy@Fl@@SAXPBDHH0@Z      0043d6b0 f   fltk:Fl.obj
 0001:0003c790       ?copy@Fl@@SAXPBDHH@Z       0043d790 f   fltk:Fl.obj
 0001:0003c7b0       ?damage@Fl_Widget@@QAEXE@Z 0043d7b0 f   fltk:Fl.obj
 0001:0003c810       ?damage@Fl_Widget@@QAEXEHHHH@Z 0043d810 f   fltk:Fl.obj
 0001:0003c950       ?decorated_h@Fl_Window@@QAEHXZ 0043d950 f   fltk:Fl.obj
 0001:0003c9c0       ?decorated_w@Fl_Window@@QAEHXZ 0043d9c0 f   fltk:Fl.obj
 0001:0003ca20       ?default_icons@Fl_Window@@SAXPAUHICON__@@0@Z 0043da20 f   fltk:Fl.obj
 0001:0003ca80       ?delete_widget@Fl@@SAXPAVFl_Widget@@@Z 0043da80 f   fltk:Fl.obj
 0001:0003cb30       ?descent@Fl_Graphics_Driver@@UAEHXZ 0043db30 f i fltk:Fl.obj
 0001:0003cb40       ?disable_im@Fl@@SAXXZ      0043db40 f   fltk:Fl.obj
 0001:0003cb90       ?do_widget_deletion@Fl@@SAXXZ 0043db90 f   fltk:Fl.obj
 0001:0003cbd0       ?draw@Fl_Graphics_Driver@@MAEXHPBDHHH@Z 0043dbd0 f i fltk:Fl.obj
 0001:0003cbe0       ?draw@Fl_Graphics_Driver@@MAEXPAVFl_Bitmap@@HHHHHH@Z 0043dbe0 f i fltk:Fl.obj
 0001:0003cbf0       ?draw@Fl_Graphics_Driver@@MAEXPAVFl_Pixmap@@HHHHHH@Z 0043dbf0 f i fltk:Fl.obj
 0001:0003cc00       ?draw@Fl_Graphics_Driver@@MAEXPAVFl_RGB_Image@@HHHHHH@Z 0043dc00 f i fltk:Fl.obj
 0001:0003cc10       ?draw@Fl_Graphics_Driver@@MAEXPBDHHH@Z 0043dc10 f i fltk:Fl.obj
 0001:0003cc20       ?draw_image@Fl_Graphics_Driver@@MAEXP6AXPAXHHHPAE@Z0HHHHH@Z 0043dc20 f i fltk:Fl.obj
 0001:0003cc30       ?draw_image@Fl_Graphics_Driver@@MAEXPBEHHHHHH@Z 0043dc30 f i fltk:Fl.obj
 0001:0003cc40       ?draw_image_mono@Fl_Graphics_Driver@@MAEXP6AXPAXHHHPAE@Z0HHHHH@Z 0043dc40 f i fltk:Fl.obj
 0001:0003cc50       ?draw_image_mono@Fl_Graphics_Driver@@MAEXPBEHHHHHH@Z 0043dc50 f i fltk:Fl.obj
 0001:0003cc60       ?enable_im@Fl@@SAXXZ       0043dc60 f   fltk:Fl.obj
 0001:0003ccb0       ?event_dispatch@Fl@@SAP6AHHPAVFl_Window@@@ZXZ 0043dcb0 f   fltk:Fl.obj
 0001:0003ccc0       ?event_dispatch@Fl@@SAXP6AHHPAVFl_Window@@@Z@Z 0043dcc0 f   fltk:Fl.obj
 0001:0003ccd0       ?event_inside@Fl@@SAHHHHH@Z 0043dcd0 f   fltk:Fl.obj
 0001:0003cd00       ?event_inside@Fl@@SAHPBVFl_Widget@@@Z 0043dd00 f   fltk:Fl.obj
 0001:0003cd40       ?fake_X_wm@Fl_X@@SAHPBVFl_Window@@AAH1111@Z 0043dd40 f   fltk:Fl.obj
 0001:0003d220       ?first_window@Fl@@SAPAVFl_Window@@XZ 0043e220 f   fltk:Fl.obj
 0001:0003d230       ?first_window@Fl@@SAXPAVFl_Window@@@Z 0043e230 f   fltk:Fl.obj
 0001:0003d250       ?fl_GetDC@@YAPAUHDC__@@PAUHWND__@@@Z 0043e250 f   fltk:Fl.obj
 0001:0003d2f0       ?fl_cleanup_dc_list@@YAXXZ 0043e2f0 f   fltk:Fl.obj
 0001:0003d340       ?fl_clipboard_notify_change@@YAXXZ 0043e340 f   fltk:Fl.obj
 0001:0003d3a0       ?fl_clipboard_notify_empty@@YA_NXZ 0043e3a0 f   fltk:Fl.obj
 0001:0003d3b0       ?fl_clipboard_notify_retarget@@YAXPAUHWND__@@@Z 0043e3b0 f   fltk:Fl.obj
 0001:0003d4d0       ?fl_filename_name@@YAPBDPBD@Z 0043e4d0 f   fltk:Fl.obj
 0001:0003d510       ?fl_find@@YAPAVFl_Window@@PAUHWND__@@@Z 0043e510 f   fltk:Fl.obj
 0001:0003d560       ?fl_fix_focus@@YAXXZ       0043e560 f   fltk:Fl.obj
 0001:0003d6f0       ?fl_free_fonts@@YAXXZ      0043e6f0 f   fltk:Fl.obj
 0001:0003d760       ?fl_get_codepage@@YAXXZ    0043e760 f   fltk:Fl.obj
 0001:0003d7b0       ?fl_get_lcid_codepage@@YAIK@Z 0043e7b0 f   fltk:Fl.obj
 0001:0003d800       ?fl_open_display@@YAXXZ    0043e800 f   fltk:Fl.obj
 0001:0003d820       ?fl_ready@@YAHXZ           0043e820 f   fltk:Fl.obj
 0001:0003d8e0       ?fl_release_dc@@YAXPAUHWND__@@PAUHDC__@@@Z 0043e8e0 f   fltk:Fl.obj
 0001:0003d950       ?fl_reset_spot@@YAXXZ      0043e950 f   fltk:Fl.obj
 0001:0003d960       ?fl_save_dc@@YAXPAUHWND__@@PAUHDC__@@@Z 0043e960 f   fltk:Fl.obj
 0001:0003d9a0       ?fl_send_system_handlers@@YAHPAX@Z 0043e9a0 f   fltk:Fl.obj
 0001:0003d9e0       ?fl_set_spot@@YAXHHHHHHPAVFl_Window@@@Z 0043e9e0 f   fltk:Fl.obj
 0001:0003daa0       ?fl_set_status@@YAXHHHH@Z  0043eaa0 f   fltk:Fl.obj
 0001:0003dab0       ?fl_throw_focus@@YAXPAVFl_Widget@@@Z 0043eab0 f   fltk:Fl.obj
 0001:0003db60       ?fl_trigger_clipboard_notify@@YAXH@Z 0043eb60 f   fltk:Fl.obj
 0001:0003db90       ?fl_update_clipboard@@YAXXZ 0043eb90 f   fltk:Fl.obj
 0001:0003dc40       ?fl_wait@@YAHN@Z           0043ec40 f   fltk:Fl.obj
 0001:0003df60       ?fl_xid_@@YAPAUHWND__@@PBVFl_Window@@@Z 0043ef60 f   fltk:Fl.obj
 0001:0003df80       ?flush@Fl@@SAXXZ           0043ef80 f   fltk:Fl.obj
 0001:0003e000       ?flush@Fl_Window@@MAEXXZ   0043f000 f   fltk:Fl.obj
 0001:0003e060       ?focus@Fl@@SAXPAVFl_Widget@@@Z 0043f060 f   fltk:Fl.obj
 0001:0003e120       ?font@Fl_Graphics_Driver@@UAEXHH@Z 0043f120 f i fltk:Fl.obj
 0001:0003e140       ?fullscreen_off_x@Fl_Window@@AAEXHHHH@Z 0043f140 f   fltk:Fl.obj
 0001:0003e2a0       ?fullscreen_x@Fl_Window@@AAEXXZ 0043f2a0 f   fltk:Fl.obj
 0001:0003e390       ?get_mouse@Fl@@SAXAAH0@Z   0043f390 f   fltk:Fl.obj
 0001:0003e430       ?h@Fl@@SAHXZ               0043f430 f   fltk:Fl.obj
 0001:0003e470       ?handle@Fl@@SAHHPAVFl_Window@@@Z 0043f470 f   fltk:Fl.obj
 0001:0003e490       ?handle@Fl_Window@@UAEHH@Z 0043f490 f   fltk:Fl.obj
 0001:0003e520       ?handle_@Fl@@SAHHPAVFl_Window@@@Z 0043f520 f   fltk:Fl.obj
 0001:0003ea10       ?has_check@Fl@@SAHP6AXPAX@Z0@Z 0043fa10 f   fltk:Fl.obj
 0001:0003ea40       ?has_name@NameList@@QAEDPBD@Z 0043fa40 f i fltk:Fl.obj
 0001:0003eaa0       ?has_timeout@Fl@@SAHP6AXPAX@Z0@Z 0043faa0 f   fltk:Fl.obj
 0001:0003eaf0       ?height@Fl_Graphics_Driver@@UAEHXZ 0043faf0 f i fltk:Fl.obj
 0001:0003eb00       ?hide@Fl_Window@@UAEXXZ    0043fb00 f   fltk:Fl.obj
 0001:0003ef30       ?icons@Fl_Window@@QAEXPAUHICON__@@0@Z 0043ff30 f   fltk:Fl.obj
 0001:0003f1c0       ?label@Fl_Window@@QAEXPBD0@Z 004401c0 f   fltk:Fl.obj
 0001:0003f260       ?make@Fl_X@@SAPAV1@PAVFl_Window@@@Z 00440260 f   fltk:Fl.obj
 0001:0003f9f0       ?make_current@Fl_Window@@QAEXXZ 004409f0 f   fltk:Fl.obj
 0001:0003fa30       ?make_fullscreen@Fl_X@@QAEXHHHH@Z 00440a30 f   fltk:Fl.obj
 0001:0003ff40       ?next_window@Fl@@SAPAVFl_Window@@PBV2@@Z 00440f40 f   fltk:Fl.obj
 0001:0003ff60       ?option@Fl@@SAXW4Fl_Option@1@_N@Z 00440f60 f   fltk:Fl.obj
 0001:0003ff90       ?option@Fl@@SA_NW4Fl_Option@1@@Z 00440f90 f   fltk:Fl.obj
 0001:000401f0       ?paste@Fl@@SAXAAVFl_Widget@@@Z 004411f0 f   fltk:Fl.obj
 0001:00040210       ?paste@Fl@@SAXAAVFl_Widget@@H@Z 00441210 f   fltk:Fl.obj
 0001:00040230       ?paste@Fl@@SAXAAVFl_Widget@@HPBD@Z 00441230 f   fltk:Fl.obj
 0001:00040a10       ?position@Fl_Widget@@QAEXHH@Z 00441a10 f i fltk:Fl.obj
 0001:00040a30       ?print_window@Fl_Paged_Device@@QAEXPAVFl_Window@@HH@Z 00441a30 f   fltk:Fl.obj
 0001:00040cd0       ?pushed@Fl@@SAXPAVFl_Widget@@@Z 00441cd0 f   fltk:Fl.obj
 0001:00040ce0       ?ready@Fl@@SAHXZ           00441ce0 f   fltk:Fl.obj
 0001:00040cf0       ?redraw@Fl@@SAXXZ          00441cf0 f   fltk:Fl.obj
 0001:00040d60       ?redraw@Fl_Widget@@QAEXXZ  00441d60 f   fltk:Fl.obj
 0001:00040db0       ?redraw_label@Fl_Widget@@QAEXXZ 00441db0 f   fltk:Fl.obj
 0001:00040ff0       ?release_widget_pointer@Fl@@SAXAAPAVFl_Widget@@@Z 00441ff0 f   fltk:Fl.obj
 0001:00041030       ?remove_check@Fl@@SAXP6AXPAX@Z0@Z 00442030 f   fltk:Fl.obj
 0001:00041090       ?remove_clipboard_notify@Fl@@SAXP6AXHPAX@Z@Z 00442090 f   fltk:Fl.obj
 0001:000410d0       ?remove_fd@Fl@@SAXH@Z      004420d0 f   fltk:Fl.obj
 0001:000410f0       ?remove_fd@Fl@@SAXHH@Z     004420f0 f   fltk:Fl.obj
 0001:00041250       ?remove_handler@Fl@@SAXP6AHH@Z@Z 00442250 f   fltk:Fl.obj
 0001:000412a0       ?remove_system_handler@Fl@@SAXP6AHPAX0@Z@Z 004422a0 f   fltk:Fl.obj
 0001:000412f0       ?remove_timeout@Fl@@SAXP6AXPAX@Z0@Z 004422f0 f   fltk:Fl.obj
 0001:00041360       ?repeat_timeout@Fl@@SAXNP6AXPAX@Z0@Z 00442360 f   fltk:Fl.obj
 0001:00041510       ?resize@Fl_Window@@UAEXHHHH@Z 00442510 f   fltk:Fl.obj
 0001:000416c0       ?rtl_draw@Fl_Graphics_Driver@@MAEXPBDHHH@Z 004426c0 f i fltk:Fl.obj
 0001:000416d0       ?run@Fl@@SAHXZ             004426d0 f   fltk:Fl.obj
 0001:000417f0       ?scrollbar_size@Fl@@SAHXZ  004427f0 f   fltk:Fl.obj
 0001:00041800       ?scrollbar_size@Fl@@SAXH@Z 00442800 f   fltk:Fl.obj
 0001:00041810       ?selection@Fl@@SAXAAVFl_Widget@@PBDH@Z 00442810 f   fltk:Fl.obj
 0001:00041840       ?selection_owner@Fl@@SAXPAVFl_Widget@@@Z 00442840 f   fltk:Fl.obj
 0001:00041920       ?set_cursor@Fl_X@@QAEHPBVFl_RGB_Image@@HH@Z 00442920 f   fltk:Fl.obj
 0001:00041980       ?set_cursor@Fl_X@@QAEHW4Fl_Cursor@@@Z 00442980 f   fltk:Fl.obj
 0001:00041ac0       ?set_default_icons@Fl_X@@SAXPAUHICON__@@0@Z 00442ac0 f   fltk:Fl.obj
 0001:00041b20       ?set_default_icons@Fl_X@@SAXQAPBVFl_RGB_Image@@H@Z 00442b20 f   fltk:Fl.obj
 0001:00041bc0       ?set_icons@Fl_X@@QAEXXZ    00442bc0 f   fltk:Fl.obj
 0001:00041cd0       ?set_minmax@Fl_X@@QAEXPAUtagMINMAXINFO@@@Z 00442cd0 f   fltk:Fl.obj
 0001:00041d70       ?show@Fl_Window@@UAEXXZ    00442d70 f   fltk:Fl.obj
 0001:00041de0       ?size@Fl_Widget@@QAEXHH@Z  00442de0 f i fltk:Fl.obj
 0001:00041e00       ?size_range_@Fl_Window@@AAEXXZ 00442e00 f   fltk:Fl.obj
 0001:00041e10       ?thread_message@Fl@@SAPAXXZ 00442e10 f   fltk:Fl.obj
 0001:00041e20       ?version@Fl@@SANXZ         00442e20 f   fltk:Fl.obj
 0001:00041e30       ?w@Fl@@SAHXZ               00442e30 f   fltk:Fl.obj
 0001:00041e70       ?wait@Fl@@SAHXZ            00442e70 f   fltk:Fl.obj
 0001:00041eb0       ?wait@Fl@@SANN@Z           00442eb0 f   fltk:Fl.obj
 0001:00041ee0       ?watch_widget_pointer@Fl@@SAXAAPAVFl_Widget@@@Z 00442ee0 f   fltk:Fl.obj
 0001:00041f50       ?width@Fl_Graphics_Driver@@UAENI@Z 00442f50 f i fltk:Fl.obj
 0001:00041f70       ?width@Fl_Graphics_Driver@@UAENPBDH@Z 00442f70 f i fltk:Fl.obj
 0001:00041f80       ?x@Fl@@SAHXZ               00442f80 f   fltk:Fl.obj
 0001:00041fc0       ?y@Fl@@SAHXZ               00442fc0 f   fltk:Fl.obj
 0001:00042000       ?default_atclose@Fl@@SAXPAVFl_Window@@PAX@Z 00443000 f   fltk:Fl_Window.obj
 0001:00042020       ??0Fl_Window@@QAE@HHHHPBD@Z 00443020 f   fltk:Fl_Window.obj
 0001:000420a0       ??0Fl_Window@@QAE@HHPBD@Z  004430a0 f   fltk:Fl_Window.obj
 0001:00042120       ??1Fl_Window@@UAE@XZ       00443120 f   fltk:Fl_Window.obj
 0001:000421c0       ??_GFl_Window@@UAEPAXI@Z   004431c0 f i fltk:Fl_Window.obj
 0001:000421c0       ??_EFl_Window@@UAEPAXI@Z   004431c0 f i fltk:Fl_Window.obj
 0001:000421f0       ?_Fl_Window@Fl_Window@@AAEXXZ 004431f0 f   fltk:Fl_Window.obj
 0001:00042290       ?copy_label@Fl_Window@@QAEXPBD@Z 00443290 f   fltk:Fl_Window.obj
 0001:000422b0       ?current@Fl_Window@@SAPAV1@XZ 004432b0 f   fltk:Fl_Window.obj
 0001:000422c0       ?default_callback@Fl_Window@@SAXPAV1@PAX@Z 004432c0 f   fltk:Fl_Window.obj
 0001:000422d0       ?default_icon@Fl_Window@@SAXPBVFl_RGB_Image@@@Z 004432d0 f   fltk:Fl_Window.obj
 0001:000422f0       ?default_icons@Fl_Window@@SAXQAPBVFl_RGB_Image@@H@Z 004432f0 f   fltk:Fl_Window.obj
 0001:00042300       ?default_xclass@Fl_Window@@SAPBDXZ 00443300 f   fltk:Fl_Window.obj
 0001:00042320       ?default_xclass@Fl_Window@@SAXPBD@Z 00443320 f   fltk:Fl_Window.obj
 0001:00042360       ?free_icons@Fl_Window@@IAEXXZ 00443360 f   fltk:Fl_Window.obj
 0001:00042400       ?icon@Fl_Window@@QAEXPBVFl_RGB_Image@@@Z 00443400 f   fltk:Fl_Window.obj
 0001:00042460       ?icon@Fl_Window@@QAEXPBX@Z 00443460 f   fltk:Fl_Window.obj
 0001:00042480       ?icon@Fl_Window@@QBEPBXXZ  00443480 f   fltk:Fl_Window.obj
 0001:00042490       ?iconlabel@Fl_Window@@QAEXPBD@Z 00443490 f   fltk:Fl_Window.obj
 0001:000424b0       ?icons@Fl_Window@@QAEXQAPBVFl_RGB_Image@@H@Z 004434b0 f   fltk:Fl_Window.obj
 0001:00042530       ?label@Fl_Window@@QAEXPBD@Z 00443530 f   fltk:Fl_Window.obj
 0001:00042550       ?top_window@Fl_Widget@@QBEPAVFl_Window@@XZ 00443550 f   fltk:Fl_Window.obj
 0001:00042570       ?top_window_offset@Fl_Widget@@QBEPAVFl_Window@@AAH0@Z 00443570 f   fltk:Fl_Window.obj
 0001:000425e0       ?wait_for_expose@Fl_Window@@QAEXXZ 004435e0 f   fltk:Fl_Window.obj
 0001:00042610       ?window@Fl_Widget@@QBEPAVFl_Window@@XZ 00443610 f   fltk:Fl_Window.obj
 0001:00042630       ?x_root@Fl_Window@@QBEHXZ  00443630 f   fltk:Fl_Window.obj
 0001:00042660       ?xclass@Fl_Window@@QAEXPBD@Z 00443660 f   fltk:Fl_Window.obj
 0001:000426c0       ?xclass@Fl_Window@@QBEPBDXZ 004436c0 f   fltk:Fl_Window.obj
 0001:000426e0       ?y_root@Fl_Window@@QBEHXZ  004436e0 f   fltk:Fl_Window.obj
 0001:00042710       ??0Fl_Group@@QAE@HHHHPBD@Z 00443710 f   fltk:Fl_Group.obj
 0001:00042770       ??0Fl_Input_Choice@@QAE@HHHHPBD@Z 00443770 f   fltk:Fl_Group.obj
 0001:00042930       ??0Fl_Spinner@@QAE@HHHHPBD@Z 00443930 f   fltk:Fl_Group.obj
 0001:00042ad0       ??1Fl_Group@@UAE@XZ        00443ad0 f   fltk:Fl_Group.obj
 0001:00042b20       ??1Fl_Input@@UAE@XZ        00443b20 f i fltk:Fl_Group.obj
 0001:00042b30       ??1Fl_Repeat_Button@@UAE@XZ 00443b30 f i fltk:Fl_Group.obj
 0001:00042b40       ??_GFl_Group@@UAEPAXI@Z    00443b40 f i fltk:Fl_Group.obj
 0001:00042b40       ??_EFl_Group@@UAEPAXI@Z    00443b40 f i fltk:Fl_Group.obj
 0001:00042bb0       ??_EFl_Input_Choice@@UAEPAXI@Z 00443bb0 f i fltk:Fl_Group.obj
 0001:00042bb0       ??_GFl_Input_Choice@@UAEPAXI@Z 00443bb0 f i fltk:Fl_Group.obj
 0001:00042c20       ??_GFl_Spinner@@UAEPAXI@Z  00443c20 f i fltk:Fl_Group.obj
 0001:00042c20       ??_EFl_Spinner@@UAEPAXI@Z  00443c20 f i fltk:Fl_Group.obj
 0001:00042cb0       ??_GInputMenuButton@Fl_Input_Choice@@UAEPAXI@Z 00443cb0 f i fltk:Fl_Group.obj
 0001:00042cb0       ??_EInputMenuButton@Fl_Input_Choice@@UAEPAXI@Z 00443cb0 f i fltk:Fl_Group.obj
 0001:00042ce0       ?add@Fl_Group@@QAEXAAVFl_Widget@@@Z 00443ce0 f   fltk:Fl_Group.obj
 0001:00042d00       ?array@Fl_Group@@QBEPBQAVFl_Widget@@XZ 00443d00 f   fltk:Fl_Group.obj
 0001:00042d10       ?as_group@Fl_Widget@@UAEPAVFl_Group@@XZ 00443d10 f i fltk:Fl_Group.obj
 0001:00042d20       ?begin@Fl_Group@@QAEXXZ    00443d20 f   fltk:Fl_Group.obj
 0001:00042d30       ?clear@Fl_Group@@QAEXXZ    00443d30 f   fltk:Fl_Group.obj
 0001:00042e30       ?current@Fl_Group@@SAPAV1@XZ 00443e30 f   fltk:Fl_Group.obj
 0001:00042e40       ?current@Fl_Group@@SAXPAV1@@Z 00443e40 f   fltk:Fl_Group.obj
 0001:00042e50       ?draw@Fl_Group@@MAEXXZ     00443e50 f   fltk:Fl_Group.obj
 0001:00042e70       ?draw@InputMenuButton@Fl_Input_Choice@@EAEXXZ 00443e70 f i fltk:Fl_Group.obj
 0001:00042f00       ?draw_child@Fl_Group@@IBEXAAVFl_Widget@@@Z 00443f00 f   fltk:Fl_Group.obj
 0001:00042f50       ?draw_children@Fl_Group@@IAEXXZ 00443f50 f   fltk:Fl_Group.obj
 0001:000430b0       ?draw_outside_label@Fl_Group@@IBEXABVFl_Widget@@@Z 004440b0 f   fltk:Fl_Group.obj
 0001:00043200       ?end@Fl_Group@@QAEXXZ      00444200 f   fltk:Fl_Group.obj
 0001:00043210       ?find@Fl_Group@@QBEHPBVFl_Widget@@@Z 00444210 f   fltk:Fl_Group.obj
 0001:00043250       ?handle@Fl_Group@@UAEHH@Z  00444250 f   fltk:Fl_Group.obj
 0001:00043830       ?handle@Fl_Spinner@@UAEHH@Z 00444830 f i fltk:Fl_Group.obj
 0001:000438c0       ?init_sizes@Fl_Group@@QAEXXZ 004448c0 f   fltk:Fl_Group.obj
 0001:000438e0       ?inp_cb@Fl_Input_Choice@@CAXPAVFl_Widget@@PAX@Z 004448e0 f i fltk:Fl_Group.obj
 0001:00043980       ?insert@Fl_Group@@QAEXAAVFl_Widget@@H@Z 00444980 f   fltk:Fl_Group.obj
 0001:00043a80       ?menu_cb@Fl_Input_Choice@@CAXPAVFl_Widget@@PAX@Z 00444a80 f i fltk:Fl_Group.obj
 0001:00043b90       ?navigation@Fl_Group@@AAEHH@Z 00444b90 f   fltk:Fl_Group.obj
 0001:00043d60       ?remove@Fl_Group@@QAEXAAVFl_Widget@@@Z 00444d60 f   fltk:Fl_Group.obj
 0001:00043db0       ?remove@Fl_Group@@QAEXH@Z  00444db0 f   fltk:Fl_Group.obj
 0001:00043e50       ?resize@Fl_Group@@UAEXHHHH@Z 00444e50 f   fltk:Fl_Group.obj
 0001:00044080       ?resize@Fl_Input_Choice@@UAEXHHHH@Z 00445080 f i fltk:Fl_Group.obj
 0001:00044160       ?resize@Fl_Spinner@@UAEXHHHH@Z 00445160 f i fltk:Fl_Group.obj
 0001:000441f0       ?sb_cb@Fl_Spinner@@CAXPAVFl_Widget@@PAV1@@Z 004451f0 f i fltk:Fl_Group.obj
 0001:00044370       ?sizes@Fl_Group@@IAEPAHXZ  00445370 f   fltk:Fl_Group.obj
 0001:00044480       ?update@Fl_Spinner@@AAEXXZ 00445480 f i fltk:Fl_Group.obj
 0001:00044580       ?update_child@Fl_Group@@IBEXAAVFl_Widget@@@Z 00445580 f   fltk:Fl_Group.obj
 0001:000445d0       ??0Fl_Menu_@@QAE@HHHHPBD@Z 004455d0 f   fltk:Fl_Menu_.obj
 0001:00044640       ??1Fl_Menu_@@UAE@XZ        00445640 f   fltk:Fl_Menu_.obj
 0001:00044690       ??_GFl_Menu_@@UAEPAXI@Z    00445690 f i fltk:Fl_Menu_.obj
 0001:00044690       ??_EFl_Menu_@@UAEPAXI@Z    00445690 f i fltk:Fl_Menu_.obj
 0001:00044700       ?clear@Fl_Menu_@@QAEXXZ    00445700 f   fltk:Fl_Menu_.obj
 0001:00044790       ?clear_submenu@Fl_Menu_@@QAEHH@Z 00445790 f   fltk:Fl_Menu_.obj
 0001:00044800       ?copy@Fl_Menu_@@QAEXPBUFl_Menu_Item@@PAX@Z 00445800 f   fltk:Fl_Menu_.obj
 0001:00044880       ?find_index@Fl_Menu_@@QBEHP6AXPAVFl_Widget@@PAX@Z@Z 00445880 f   fltk:Fl_Menu_.obj
 0001:000448d0       ?find_index@Fl_Menu_@@QBEHPBD@Z 004458d0 f   fltk:Fl_Menu_.obj
 0001:00044ab0       ?find_index@Fl_Menu_@@QBEHPBUFl_Menu_Item@@@Z 00445ab0 f   fltk:Fl_Menu_.obj
 0001:00044b00       ?find_item@Fl_Menu_@@QAEPBUFl_Menu_Item@@P6AXPAVFl_Widget@@PAX@Z@Z 00445b00 f   fltk:Fl_Menu_.obj
 0001:00044b40       ?find_item@Fl_Menu_@@QAEPBUFl_Menu_Item@@PBD@Z 00445b40 f   fltk:Fl_Menu_.obj
 0001:00044b70       ?item_pathname@Fl_Menu_@@QBEHPADHPBUFl_Menu_Item@@@Z 00445b70 f   fltk:Fl_Menu_.obj
 0001:00044d50       ?menu@Fl_Menu_@@QAEXPBUFl_Menu_Item@@@Z 00445d50 f   fltk:Fl_Menu_.obj
 0001:00044d70       ?picked@Fl_Menu_@@QAEPBUFl_Menu_Item@@PBU2@@Z 00445d70 f   fltk:Fl_Menu_.obj
 0001:00044e10       ?setonly@Fl_Menu_Item@@QAEXXZ 00445e10 f   fltk:Fl_Menu_.obj
 0001:00044e60       ?size@Fl_Menu_@@QBEHXZ     00445e60 f   fltk:Fl_Menu_.obj
 0001:00044e70       ?value@Fl_Menu_@@QAEHPBUFl_Menu_Item@@@Z 00445e70 f   fltk:Fl_Menu_.obj
 0001:00044ea0       ??0Fl_Menu_Bar@@QAE@HHHHPBD@Z 00445ea0 f   fltk:Fl_Menu_Bar.obj
 0001:00044ed0       ??_GFl_Menu_Bar@@UAEPAXI@Z 00445ed0 f i fltk:Fl_Menu_Bar.obj
 0001:00044ed0       ??_EFl_Menu_Bar@@UAEPAXI@Z 00445ed0 f i fltk:Fl_Menu_Bar.obj
 0001:00044f00       ?draw@Fl_Menu_Bar@@MAEXXZ  00445f00 f   fltk:Fl_Menu_Bar.obj
 0001:00045000       ?handle@Fl_Menu_Bar@@UAEHH@Z 00446000 f   fltk:Fl_Menu_Bar.obj
 0001:000450c0       ?test_shortcut@Fl_Menu_@@QAEPBUFl_Menu_Item@@XZ 004460c0 f i fltk:Fl_Menu_Bar.obj
 0001:00045100       ?fl_alert@@YAXPBDZZ        00446100 f   fltk:fl_ask.obj
 0001:00045140       ?fl_ask@@YAHPBDZZ          00446140 f   fltk:fl_ask.obj
 0001:00045170       ?fl_beep@@YAXH@Z           00446170 f   fltk:fl_ask.obj
 0001:000451c0       ?fl_choice@@YAHPBD000ZZ    004461c0 f   fltk:fl_ask.obj
 0001:000451f0       ?fl_input@@YAPBDPBD0ZZ     004461f0 f   fltk:fl_ask.obj
 0001:00045220       ?fl_message@@YAXPBDZZ      00446220 f   fltk:fl_ask.obj
 0001:00045260       ?fl_message_hotspot@@YAHXZ 00446260 f   fltk:fl_ask.obj
 0001:00045270       ?fl_message_hotspot@@YAXH@Z 00446270 f   fltk:fl_ask.obj
 0001:00045290       ?fl_message_icon@@YAPAVFl_Widget@@XZ 00446290 f   fltk:fl_ask.obj
 0001:000452a0       ?fl_message_title@@YAXPBD@Z 004462a0 f   fltk:fl_ask.obj
 0001:000452c0       ?fl_message_title_default@@YAXPBD@Z 004462c0 f   fltk:fl_ask.obj
 0001:00045300       ?fl_password@@YAPBDPBD0ZZ  00446300 f   fltk:fl_ask.obj
 0001:00045b60       ??0Fl_Widget@@IAE@HHHHPBD@Z 00446b60 f   fltk:Fl_Widget.obj
 0001:00045c10       ??1Fl_Widget@@UAE@XZ       00446c10 f   fltk:Fl_Widget.obj
 0001:00045cb0       ??_GFl_Widget@@UAEPAXI@Z   00446cb0 f i fltk:Fl_Widget.obj
 0001:00045cb0       ??_EFl_Widget@@UAEPAXI@Z   00446cb0 f i fltk:Fl_Widget.obj
 0001:00045ce0       ?activate@Fl_Widget@@QAEXXZ 00446ce0 f   fltk:Fl_Widget.obj
 0001:00045d40       ?active_r@Fl_Widget@@QBEHXZ 00446d40 f   fltk:Fl_Widget.obj
 0001:00045dc0       ?contains@Fl_Widget@@QBEHPBV1@@Z 00446dc0 f   fltk:Fl_Widget.obj
 0001:00045df0       ?copy_label@Fl_Widget@@QAEXPBD@Z 00446df0 f   fltk:Fl_Widget.obj
 0001:00045e90       ?damage_resize@Fl_Widget@@QAEHHHHH@Z 00446e90 f   fltk:Fl_Widget.obj
 0001:00045ee0       ?deactivate@Fl_Widget@@QAEXXZ 00446ee0 f   fltk:Fl_Widget.obj
 0001:00045f30       ?default_callback@Fl_Widget@@SAXPAV1@PAX@Z 00446f30 f   fltk:Fl_Widget.obj
 0001:00045f70       ?do_callback@Fl_Widget@@QAEXPAV1@PAX@Z 00446f70 f   fltk:Fl_Widget.obj
 0001:00045ff0       ?draw_focus@Fl_Widget@@IBEXW4Fl_Boxtype@@HHHH@Z 00446ff0 f   fltk:Fl_Widget.obj
 0001:00046160       ?handle@Fl_Widget@@UAEHH@Z 00447160 f   fltk:Fl_Widget.obj
 0001:00046170       ?hide@Fl_Widget@@UAEXXZ    00447170 f   fltk:Fl_Widget.obj
 0001:000461f0       ?label@Fl_Widget@@QAEXPBD@Z 004471f0 f   fltk:Fl_Widget.obj
 0001:00046230       ?readqueue@Fl@@SAPAVFl_Widget@@XZ 00447230 f   fltk:Fl_Widget.obj
 0001:00046260       ?resize@Fl_Widget@@UAEXHHHH@Z 00447260 f   fltk:Fl_Widget.obj
 0001:00046280       ?show@Fl_Widget@@UAEXXZ    00447280 f   fltk:Fl_Widget.obj
 0001:000462f0       ?take_focus@Fl_Widget@@QAEHXZ 004472f0 f   fltk:Fl_Widget.obj
 0001:00046340       ?visible_r@Fl_Widget@@QBEHXZ 00447340 f   fltk:Fl_Widget.obj
 0001:00046360       ?visual@Fl@@SAHH@Z         00447360 f   fltk:Fl_visual.obj
 0001:000463c0       ??0Fl_Valuator@@IAE@HHHHPBD@Z 004473c0 f   fltk:Fl_Valuator.obj
 0001:00046430       ??_GFl_Valuator@@UAEPAXI@Z 00447430 f i fltk:Fl_Valuator.obj
 0001:00046430       ??_EFl_Valuator@@UAEPAXI@Z 00447430 f i fltk:Fl_Valuator.obj
 0001:00046460       ?clamp@Fl_Valuator@@QAENN@Z 00447460 f   fltk:Fl_Valuator.obj
 0001:000464c0       ?format@Fl_Valuator@@UAEHPAD@Z 004474c0 f   fltk:Fl_Valuator.obj
 0001:000465e0       ?handle_drag@Fl_Valuator@@IAEXN@Z 004475e0 f   fltk:Fl_Valuator.obj
 0001:00046620       ?handle_release@Fl_Valuator@@IAEXXZ 00447620 f   fltk:Fl_Valuator.obj
 0001:00046650       ?increment@Fl_Valuator@@QAENNH@Z 00447650 f   fltk:Fl_Valuator.obj
 0001:00046720       ?precision@Fl_Valuator@@QAEXH@Z 00447720 f   fltk:Fl_Valuator.obj
 0001:00046760       ?round@Fl_Valuator@@QAENN@Z 00447760 f   fltk:Fl_Valuator.obj
 0001:000467e0       ?softclamp@Fl_Valuator@@IAENN@Z 004477e0 f   fltk:Fl_Valuator.obj
 0001:00046870       ?step@Fl_Valuator@@QAEXN@Z 00447870 f   fltk:Fl_Valuator.obj
 0001:00046970       ?value@Fl_Valuator@@QAEHN@Z 00447970 f   fltk:Fl_Valuator.obj
 0001:000469b0       ?value_damage@Fl_Valuator@@MAEXXZ 004479b0 f   fltk:Fl_Valuator.obj
 0001:000469c0       ??0Fl_Hor_Value_Slider@@QAE@HHHHPBD@Z 004479c0 f   fltk:Fl_Value_Slider.obj
 0001:00046a30       ??0Fl_Value_Slider@@QAE@HHHHPBD@Z 00447a30 f   fltk:Fl_Value_Slider.obj
 0001:00046aa0       ??_GFl_Hor_Value_Slider@@UAEPAXI@Z 00447aa0 f i fltk:Fl_Value_Slider.obj
 0001:00046aa0       ??_EFl_Hor_Value_Slider@@UAEPAXI@Z 00447aa0 f i fltk:Fl_Value_Slider.obj
 0001:00046ad0       ??_GFl_Value_Slider@@UAEPAXI@Z 00447ad0 f i fltk:Fl_Value_Slider.obj
 0001:00046ad0       ??_EFl_Value_Slider@@UAEPAXI@Z 00447ad0 f i fltk:Fl_Value_Slider.obj
 0001:00046b00       ?draw@Fl_Value_Slider@@MAEXXZ 00447b00 f   fltk:Fl_Value_Slider.obj
 0001:00046ca0       ?handle@Fl_Value_Slider@@UAEHH@Z 00447ca0 f   fltk:Fl_Value_Slider.obj
 0001:00046d50       ??0Fl_Button@@QAE@HHHHPBD@Z 00447d50 f   fltk:Fl_Button.obj
 0001:00046da0       ??0Fl_Radio_Button@@QAE@HHHHPBD@Z 00447da0 f   fltk:Fl_Button.obj
 0001:00046df0       ??0Fl_Toggle_Button@@QAE@HHHHPBD@Z 00447df0 f   fltk:Fl_Button.obj
 0001:00046e40       ??_EFl_Button@@UAEPAXI@Z   00447e40 f i fltk:Fl_Button.obj
 0001:00046e40       ??_GFl_Button@@UAEPAXI@Z   00447e40 f i fltk:Fl_Button.obj
 0001:00046e70       ??_EFl_Radio_Button@@UAEPAXI@Z 00447e70 f i fltk:Fl_Button.obj
 0001:00046e70       ??_GFl_Radio_Button@@UAEPAXI@Z 00447e70 f i fltk:Fl_Button.obj
 0001:00046ea0       ??_GFl_Toggle_Button@@UAEPAXI@Z 00447ea0 f i fltk:Fl_Button.obj
 0001:00046ea0       ??_EFl_Toggle_Button@@UAEPAXI@Z 00447ea0 f i fltk:Fl_Button.obj
 0001:00046ed0       ?draw@Fl_Button@@MAEXXZ    00447ed0 f   fltk:Fl_Button.obj
 0001:00046f80       ?handle@Fl_Button@@UAEHH@Z 00447f80 f   fltk:Fl_Button.obj
 0001:000472b0       ?key_release_timeout@Fl_Button@@KAXPAX@Z 004482b0 f   fltk:Fl_Button.obj
 0001:00047320       ?setonly@Fl_Button@@QAEXXZ 00448320 f   fltk:Fl_Button.obj
 0001:000473a0       ?simulate_key_action@Fl_Button@@IAEXXZ 004483a0 f   fltk:Fl_Button.obj
 0001:00047480       ?value@Fl_Button@@QAEHH@Z  00448480 f   fltk:Fl_Button.obj
 0001:000474d0       ??0Fl_Check_Button@@QAE@HHHHPBD@Z 004484d0 f   fltk:Fl_Check_Button.obj
 0001:00047510       ??_GFl_Check_Button@@UAEPAXI@Z 00448510 f i fltk:Fl_Check_Button.obj
 0001:00047510       ??_EFl_Check_Button@@UAEPAXI@Z 00448510 f i fltk:Fl_Check_Button.obj
 0001:00047540       ??0Fl_Input_@@QAE@HHHHPBD@Z 00448540 f   fltk:Fl_Input_.obj
 0001:00047610       ??1Fl_Input_@@UAE@XZ       00448610 f   fltk:Fl_Input_.obj
 0001:00047650       ??_EFl_Input_@@UAEPAXI@Z   00448650 f i fltk:Fl_Input_.obj
 0001:00047650       ??_GFl_Input_@@UAEPAXI@Z   00448650 f i fltk:Fl_Input_.obj
 0001:000476a0       ?copy@Fl_Input_@@QAEHH@Z   004486a0 f   fltk:Fl_Input_.obj
 0001:000476f0       ?copy_cuts@Fl_Input_@@QAEHXZ 004486f0 f   fltk:Fl_Input_.obj
 0001:00047720       ?drawtext@Fl_Input_@@IAEXHHHH@Z 00448720 f   fltk:Fl_Input_.obj
 0001:000482a0       ?expand@Fl_Input_@@ABEPBDPBDPAD@Z 004492a0 f   fltk:Fl_Input_.obj
 0001:00048480       ?expandpos@Fl_Input_@@ABENPBD00PAH@Z 00449480 f   fltk:Fl_Input_.obj
 0001:00048560       ?handle_mouse@Fl_Input_@@IAEXHHHHH@Z 00449560 f   fltk:Fl_Input_.obj
 0001:000489d0       ?handletext@Fl_Input_@@IAEHHHHHH@Z 004499d0 f   fltk:Fl_Input_.obj
 0001:00048f00       ?index@Fl_Input_@@QBEIH@Z  00449f00 f   fltk:Fl_Input_.obj
 0001:00048f30       ?line_end@Fl_Input_@@IBEHH@Z 00449f30 f   fltk:Fl_Input_.obj
 0001:00049080       ?line_start@Fl_Input_@@IBEHH@Z 0044a080 f   fltk:Fl_Input_.obj
 0001:00049180       ?linesPerPage@Fl_Input_@@IAEHXZ 0044a180 f   fltk:Fl_Input_.obj
 0001:000491e0       ?maybe_do_callback@Fl_Input_@@IAEXXZ 0044a1e0 f   fltk:Fl_Input_.obj
 0001:00049200       ?minimal_update@Fl_Input_@@AAEXH@Z 0044a200 f   fltk:Fl_Input_.obj
 0001:00049230       ?minimal_update@Fl_Input_@@AAEXHH@Z 0044a230 f   fltk:Fl_Input_.obj
 0001:00049270       ?position@Fl_Input_@@QAEHHH@Z 0044a270 f   fltk:Fl_Input_.obj
 0001:00049440       ?put_in_buffer@Fl_Input_@@AAEXH@Z 0044a440 f   fltk:Fl_Input_.obj
 0001:00049500       ?replace@Fl_Input_@@QAEHHHPBDH@Z 0044a500 f   fltk:Fl_Input_.obj
 0001:00049990       ?resize@Fl_Input_@@UAEXHHHH@Z 0044a990 f   fltk:Fl_Input_.obj
 0001:000499c0       ?setfont@Fl_Input_@@ABEXXZ 0044a9c0 f   fltk:Fl_Input_.obj
 0001:000499e0       ?static_value@Fl_Input_@@QAEHPBD@Z 0044a9e0 f   fltk:Fl_Input_.obj
 0001:00049a20       ?static_value@Fl_Input_@@QAEHPBDH@Z 0044aa20 f   fltk:Fl_Input_.obj
 0001:00049b50       ?undo@Fl_Input_@@QAEHXZ    0044ab50 f   fltk:Fl_Input_.obj
 0001:00049d30       ?up_down_position@Fl_Input_@@IAEHHH@Z 0044ad30 f   fltk:Fl_Input_.obj
 0001:00049e30       ?value@Fl_Input_@@QAEHPBD@Z 0044ae30 f   fltk:Fl_Input_.obj
 0001:00049e80       ?value@Fl_Input_@@QAEHPBDH@Z 0044ae80 f   fltk:Fl_Input_.obj
 0001:00049eb0       ?word_end@Fl_Input_@@IBEHH@Z 0044aeb0 f   fltk:Fl_Input_.obj
 0001:00049f80       ?word_start@Fl_Input_@@IBEHH@Z 0044af80 f   fltk:Fl_Input_.obj
 0001:0004a060       ??0Fl_File_Chooser@@QAE@PBD0H0@Z 0044b060 f   fltk:Fl_File_Chooser.obj
 0001:0004abe0       ??1Fl_File_Chooser@@QAE@XZ 0044bbe0 f   fltk:Fl_File_Chooser.obj
 0001:0004ac60       ??_GFl_Bitmap@@UAEPAXI@Z   0044bc60 f i fltk:Fl_File_Chooser.obj
 0001:0004ac60       ??_EFl_Bitmap@@UAEPAXI@Z   0044bc60 f i fltk:Fl_File_Chooser.obj
 0001:0004ac90       ?add_extra@Fl_File_Chooser@@QAEPAVFl_Widget@@PAV2@@Z 0044bc90 f   fltk:Fl_File_Chooser.obj
 0001:0004ada0       ?callback@Fl_File_Chooser@@QAEXP6AXPAV1@PAX@Z1@Z 0044bda0 f   fltk:Fl_File_Chooser.obj
 0001:0004adc0       ?cb_@Fl_File_Chooser@@CAXPAVFl_Tile@@PAX@Z 0044bdc0 f   fltk:Fl_File_Chooser.obj
 0001:0004ade0       ?cb_cancelButton@Fl_File_Chooser@@CAXPAVFl_Button@@PAX@Z 0044bde0 f   fltk:Fl_File_Chooser.obj
 0001:0004ae30       ?cb_favCancelButton@Fl_File_Chooser@@CAXPAVFl_Button@@PAX@Z 0044be30 f   fltk:Fl_File_Chooser.obj
 0001:0004ae50       ?cb_favDeleteButton@Fl_File_Chooser@@CAXPAVFl_Button@@PAX@Z 0044be50 f   fltk:Fl_File_Chooser.obj
 0001:0004ae70       ?cb_favDownButton@Fl_File_Chooser@@CAXPAVFl_Button@@PAX@Z 0044be70 f   fltk:Fl_File_Chooser.obj
 0001:0004ae90       ?cb_favList@Fl_File_Chooser@@CAXPAVFl_File_Browser@@PAX@Z 0044be90 f   fltk:Fl_File_Chooser.obj
 0001:0004aeb0       ?cb_favOkButton@Fl_File_Chooser@@CAXPAVFl_Return_Button@@PAX@Z 0044beb0 f   fltk:Fl_File_Chooser.obj
 0001:0004aed0       ?cb_favUpButton@Fl_File_Chooser@@CAXPAVFl_Button@@PAX@Z 0044bed0 f   fltk:Fl_File_Chooser.obj
 0001:0004aef0       ?cb_favoritesButton@Fl_File_Chooser@@CAXPAVFl_Menu_Button@@PAX@Z 0044bef0 f   fltk:Fl_File_Chooser.obj
 0001:0004af10       ?cb_fileList@Fl_File_Chooser@@CAXPAVFl_File_Browser@@PAX@Z 0044bf10 f   fltk:Fl_File_Chooser.obj
 0001:0004af30       ?cb_fileName@Fl_File_Chooser@@CAXPAVFl_File_Input@@PAX@Z 0044bf30 f   fltk:Fl_File_Chooser.obj
 0001:0004af50       ?cb_newButton@Fl_File_Chooser@@CAXPAVFl_Button@@PAX@Z 0044bf50 f   fltk:Fl_File_Chooser.obj
 0001:0004af70       ?cb_okButton@Fl_File_Chooser@@CAXPAVFl_Return_Button@@PAX@Z 0044bf70 f   fltk:Fl_File_Chooser.obj
 0001:0004afa0       ?cb_previewButton@Fl_File_Chooser@@CAXPAVFl_Check_Button@@PAX@Z 0044bfa0 f   fltk:Fl_File_Chooser.obj
 0001:0004afd0       ?cb_showChoice@Fl_File_Chooser@@CAXPAVFl_Choice@@PAX@Z 0044bfd0 f   fltk:Fl_File_Chooser.obj
 0001:0004aff0       ?cb_showHiddenButton@Fl_File_Chooser@@CAXPAVFl_Check_Button@@PAX@Z 0044bff0 f   fltk:Fl_File_Chooser.obj
 0001:0004b020       ?cb_window@Fl_File_Chooser@@CAXPAVFl_Double_Window@@PAX@Z 0044c020 f   fltk:Fl_File_Chooser.obj
 0001:0004b070       ?color@Fl_File_Chooser@@QAEIXZ 0044c070 f   fltk:Fl_File_Chooser.obj
 0001:0004b080       ?color@Fl_File_Chooser@@QAEXI@Z 0044c080 f   fltk:Fl_File_Chooser.obj
 0001:0004b0a0       ?directory@Fl_File_Chooser@@QAEPADXZ 0044c0a0 f   fltk:Fl_File_Chooser.obj
 0001:0004b0b0       ?filter@Fl_File_Chooser@@QAEPBDXZ 0044c0b0 f   fltk:Fl_File_Chooser.obj
 0001:0004b0c0       ?filter_value@Fl_File_Chooser@@QAEHXZ 0044c0c0 f   fltk:Fl_File_Chooser.obj
 0001:0004b0f0       ?filter_value@Fl_File_Chooser@@QAEXH@Z 0044c0f0 f   fltk:Fl_File_Chooser.obj
 0001:0004b110       ?hide@Fl_File_Chooser@@QAEXXZ 0044c110 f   fltk:Fl_File_Chooser.obj
 0001:0004b120       ?iconsize@Fl_File_Chooser@@QAEEXZ 0044c120 f   fltk:Fl_File_Chooser.obj
 0001:0004b130       ?iconsize@Fl_File_Chooser@@QAEXE@Z 0044c130 f   fltk:Fl_File_Chooser.obj
 0001:0004b150       ?label@Fl_File_Chooser@@QAEPBDXZ 0044c150 f   fltk:Fl_File_Chooser.obj
 0001:0004b160       ?label@Fl_File_Chooser@@QAEXPBD@Z 0044c160 f   fltk:Fl_File_Chooser.obj
 0001:0004b170       ?ok_label@Fl_File_Chooser@@QAEPBDXZ 0044c170 f   fltk:Fl_File_Chooser.obj
 0001:0004b180       ?ok_label@Fl_File_Chooser@@QAEXPBD@Z 0044c180 f   fltk:Fl_File_Chooser.obj
 0001:0004b200       ?shown@Fl_File_Chooser@@QAEHXZ 0044c200 f   fltk:Fl_File_Chooser.obj
 0001:0004b210       ?textcolor@Fl_File_Chooser@@QAEIXZ 0044c210 f   fltk:Fl_File_Chooser.obj
 0001:0004b220       ?textcolor@Fl_File_Chooser@@QAEXI@Z 0044c220 f   fltk:Fl_File_Chooser.obj
 0001:0004b240       ?textfont@Fl_File_Chooser@@QAEHXZ 0044c240 f   fltk:Fl_File_Chooser.obj
 0001:0004b250       ?textfont@Fl_File_Chooser@@QAEXH@Z 0044c250 f   fltk:Fl_File_Chooser.obj
 0001:0004b270       ?textsize@Fl_File_Chooser@@QAEHXZ 0044c270 f   fltk:Fl_File_Chooser.obj
 0001:0004b280       ?textsize@Fl_File_Chooser@@QAEXH@Z 0044c280 f   fltk:Fl_File_Chooser.obj
 0001:0004b2b0       ?type@Fl_File_Chooser@@QAEHXZ 0044c2b0 f   fltk:Fl_File_Chooser.obj
 0001:0004b2c0       ?type@Fl_File_Chooser@@QAEXH@Z 0044c2c0 f   fltk:Fl_File_Chooser.obj
 0001:0004b330       ?user_data@Fl_File_Chooser@@QAEXPAX@Z 0044c330 f   fltk:Fl_File_Chooser.obj
 0001:0004b340       ?user_data@Fl_File_Chooser@@QBEPAXXZ 0044c340 f   fltk:Fl_File_Chooser.obj
 0001:0004b350       ?visible@Fl_File_Chooser@@QAEHXZ 0044c350 f   fltk:Fl_File_Chooser.obj
 0001:0004b3d0       ?count@Fl_File_Chooser@@QAEHXZ 0044c3d0 f   fltk:Fl_File_Chooser2.obj
 0001:0004b470       ?directory@Fl_File_Chooser@@QAEXPBD@Z 0044c470 f   fltk:Fl_File_Chooser2.obj
 0001:0004b630       ?favoritesButtonCB@Fl_File_Chooser@@AAEXXZ 0044c630 f   fltk:Fl_File_Chooser2.obj
 0001:0004b7b0       ?favoritesCB@Fl_File_Chooser@@AAEXPAVFl_Widget@@@Z 0044c7b0 f   fltk:Fl_File_Chooser2.obj
 0001:0004bbc0       ?fileListCB@Fl_File_Chooser@@AAEXXZ 0044cbc0 f   fltk:Fl_File_Chooser2.obj
 0001:0004beb0       ?fileNameCB@Fl_File_Chooser@@AAEXXZ 0044ceb0 f   fltk:Fl_File_Chooser2.obj
 0001:0004c480       ?filter@Fl_File_Chooser@@QAEXPBD@Z 0044d480 f   fltk:Fl_File_Chooser2.obj
 0001:0004c630       ?newdir@Fl_File_Chooser@@AAEXXZ 0044d630 f   fltk:Fl_File_Chooser2.obj
 0001:0004c720       ?preview@Fl_File_Chooser@@QAEXH@Z 0044d720 f   fltk:Fl_File_Chooser2.obj
 0001:0004c820       ?previewCB@Fl_File_Chooser@@CAXPAV1@@Z 0044d820 f   fltk:Fl_File_Chooser2.obj
 0001:0004c880       ?remove_hidden_files@Fl_File_Chooser@@AAEXXZ 0044d880 f   fltk:Fl_File_Chooser2.obj
 0001:0004c910       ?rescan@Fl_File_Chooser@@QAEXXZ 0044d910 f   fltk:Fl_File_Chooser2.obj
 0001:0004c9e0       ?rescan_keep_filename@Fl_File_Chooser@@QAEXXZ 0044d9e0 f   fltk:Fl_File_Chooser2.obj
 0001:0004cb30       ?show@Fl_File_Chooser@@QAEXXZ 0044db30 f   fltk:Fl_File_Chooser2.obj
 0001:0004cb90       ?showChoiceCB@Fl_File_Chooser@@AAEXXZ 0044db90 f   fltk:Fl_File_Chooser2.obj
 0001:0004ccf0       ?showHidden@Fl_File_Chooser@@AAEXH@Z 0044dcf0 f   fltk:Fl_File_Chooser2.obj
 0001:0004cd30       ?update_favorites@Fl_File_Chooser@@AAEXXZ 0044dd30 f   fltk:Fl_File_Chooser2.obj
 0001:0004cef0       ?update_preview@Fl_File_Chooser@@AAEXXZ 0044def0 f   fltk:Fl_File_Chooser2.obj
 0001:0004d350       ?value@Fl_File_Chooser@@QAEPBDH@Z 0044e350 f   fltk:Fl_File_Chooser2.obj
 0001:0004d450       ?value@Fl_File_Chooser@@QAEXPBD@Z 0044e450 f   fltk:Fl_File_Chooser2.obj
 0001:0004d680       ?fl_dir_chooser@@YAPADPBD0H@Z 0044e680 f   fltk:fl_file_dir.obj
 0001:0004d810       ?fl_file_chooser@@YAPADPBD00H@Z 0044e810 f   fltk:fl_file_dir.obj
 0001:0004dae0       ?fl_file_chooser_callback@@YAXP6AXPBD@Z@Z 0044eae0 f   fltk:fl_file_dir.obj
 0001:0004daf0       ?fl_file_chooser_ok_label@@YAXPBD@Z 0044eaf0 f   fltk:fl_file_dir.obj
 0001:0004db10       ??0Fl_Float_Input@@QAE@HHHHPBD@Z 0044eb10 f   fltk:Fl_Input.obj
 0001:0004db50       ??0Fl_Input@@QAE@HHHHPBD@Z 0044eb50 f   fltk:Fl_Input.obj
 0001:0004db80       ??0Fl_Int_Input@@QAE@HHHHPBD@Z 0044eb80 f   fltk:Fl_Input.obj
 0001:0004dbc0       ??0Fl_Multiline_Input@@QAE@HHHHPBD@Z 0044ebc0 f   fltk:Fl_Input.obj
 0001:0004dc00       ??0Fl_Multiline_Output@@QAE@HHHHPBD@Z 0044ec00 f   fltk:Fl_Input.obj
 0001:0004dc40       ??0Fl_Output@@QAE@HHHHPBD@Z 0044ec40 f   fltk:Fl_Input.obj
 0001:0004dc80       ??0Fl_Secret_Input@@QAE@HHHHPBD@Z 0044ec80 f   fltk:Fl_Input.obj
 0001:0004dcc0       ??_GFl_Float_Input@@UAEPAXI@Z 0044ecc0 f i fltk:Fl_Input.obj
 0001:0004dcc0       ??_EFl_Float_Input@@UAEPAXI@Z 0044ecc0 f i fltk:Fl_Input.obj
 0001:0004dcf0       ??_GFl_Input@@UAEPAXI@Z    0044ecf0 f i fltk:Fl_Input.obj
 0001:0004dcf0       ??_EFl_Input@@UAEPAXI@Z    0044ecf0 f i fltk:Fl_Input.obj
 0001:0004dd20       ??_EFl_Int_Input@@UAEPAXI@Z 0044ed20 f i fltk:Fl_Input.obj
 0001:0004dd20       ??_GFl_Int_Input@@UAEPAXI@Z 0044ed20 f i fltk:Fl_Input.obj
 0001:0004dd50       ??_GFl_Multiline_Input@@UAEPAXI@Z 0044ed50 f i fltk:Fl_Input.obj
 0001:0004dd50       ??_EFl_Multiline_Input@@UAEPAXI@Z 0044ed50 f i fltk:Fl_Input.obj
 0001:0004dd80       ??_EFl_Multiline_Output@@UAEPAXI@Z 0044ed80 f i fltk:Fl_Input.obj
 0001:0004dd80       ??_GFl_Multiline_Output@@UAEPAXI@Z 0044ed80 f i fltk:Fl_Input.obj
 0001:0004ddb0       ??_GFl_Output@@UAEPAXI@Z   0044edb0 f i fltk:Fl_Input.obj
 0001:0004ddb0       ??_EFl_Output@@UAEPAXI@Z   0044edb0 f i fltk:Fl_Input.obj
 0001:0004dde0       ??_GFl_Secret_Input@@UAEPAXI@Z 0044ede0 f i fltk:Fl_Input.obj
 0001:0004dde0       ??_EFl_Secret_Input@@UAEPAXI@Z 0044ede0 f i fltk:Fl_Input.obj
 0001:0004de10       ?draw@Fl_Input@@MAEXXZ     0044ee10 f   fltk:Fl_Input.obj
 0001:0004dea0       ?handle@Fl_Input@@UAEHH@Z  0044eea0 f   fltk:Fl_Input.obj
 0001:0004e450       ?handle@Fl_Secret_Input@@UAEHH@Z 0044f450 f   fltk:Fl_Input.obj
 0001:0004e460       ?handle_key@Fl_Input@@AAEHXZ 0044f460 f   fltk:Fl_Input.obj
 0001:0004ecd0       ?kf_bottom@Fl_Input@@AAEHXZ 0044fcd0 f   fltk:Fl_Input.obj
 0001:0004ed00       ?kf_clear_eol@Fl_Input@@AAEHXZ 0044fd00 f   fltk:Fl_Input.obj
 0001:0004ed50       ?kf_copy@Fl_Input@@AAEHXZ  0044fd50 f   fltk:Fl_Input.obj
 0001:0004ed60       ?kf_copy_cut@Fl_Input@@AAEHXZ 0044fd60 f   fltk:Fl_Input.obj
 0001:0004eda0       ?kf_delete_char_left@Fl_Input@@AAEHXZ 0044fda0 f   fltk:Fl_Input.obj
 0001:0004ede0       ?kf_delete_char_right@Fl_Input@@AAEHXZ 0044fde0 f   fltk:Fl_Input.obj
 0001:0004ee10       ?kf_delete_eol@Fl_Input@@AAEHXZ 0044fe10 f   fltk:Fl_Input.obj
 0001:0004ee60       ?kf_delete_sol@Fl_Input@@AAEHXZ 0044fe60 f   fltk:Fl_Input.obj
 0001:0004eeb0       ?kf_delete_word_left@Fl_Input@@AAEHXZ 0044feb0 f   fltk:Fl_Input.obj
 0001:0004ef00       ?kf_delete_word_right@Fl_Input@@AAEHXZ 0044ff00 f   fltk:Fl_Input.obj
 0001:0004ef50       ?kf_insert_toggle@Fl_Input@@AAEHXZ 0044ff50 f   fltk:Fl_Input.obj
 0001:0004ef70       ?kf_lines_down@Fl_Input@@AAEHH@Z 0044ff70 f   fltk:Fl_Input.obj
 0001:0004eff0       ?kf_lines_up@Fl_Input@@AAEHH@Z 0044fff0 f   fltk:Fl_Input.obj
 0001:0004f070       ?kf_move_char_left@Fl_Input@@AAEHXZ 00450070 f   fltk:Fl_Input.obj
 0001:0004f0c0       ?kf_move_char_right@Fl_Input@@AAEHXZ 004500c0 f   fltk:Fl_Input.obj
 0001:0004f110       ?kf_move_down_and_eol@Fl_Input@@AAEHXZ 00450110 f   fltk:Fl_Input.obj
 0001:0004f170       ?kf_move_eol@Fl_Input@@AAEHXZ 00450170 f   fltk:Fl_Input.obj
 0001:0004f1b0       ?kf_move_sol@Fl_Input@@AAEHXZ 004501b0 f   fltk:Fl_Input.obj
 0001:0004f1f0       ?kf_move_up_and_sol@Fl_Input@@AAEHXZ 004501f0 f   fltk:Fl_Input.obj
 0001:0004f250       ?kf_move_word_left@Fl_Input@@AAEHXZ 00450250 f   fltk:Fl_Input.obj
 0001:0004f290       ?kf_move_word_right@Fl_Input@@AAEHXZ 00450290 f   fltk:Fl_Input.obj
 0001:0004f2d0       ?kf_page_down@Fl_Input@@AAEHXZ 004502d0 f   fltk:Fl_Input.obj
 0001:0004f2f0       ?kf_page_up@Fl_Input@@AAEHXZ 004502f0 f   fltk:Fl_Input.obj
 0001:0004f310       ?kf_paste@Fl_Input@@AAEHXZ 00450310 f   fltk:Fl_Input.obj
 0001:0004f340       ?kf_redo@Fl_Input@@AAEHXZ  00450340 f   fltk:Fl_Input.obj
 0001:0004f360       ?kf_select_all@Fl_Input@@AAEHXZ 00450360 f   fltk:Fl_Input.obj
 0001:0004f370       ?kf_top@Fl_Input@@AAEHXZ   00450370 f   fltk:Fl_Input.obj
 0001:0004f3a0       ?kf_undo@Fl_Input@@AAEHXZ  004503a0 f   fltk:Fl_Input.obj
 0001:0004f3c0       ?shift_position@Fl_Input@@AAEHH@Z 004503c0 f   fltk:Fl_Input.obj
 0001:0004f3f0       ?shift_up_down_position@Fl_Input@@AAEHH@Z 004503f0 f   fltk:Fl_Input.obj
 0001:0004f410       ??0Fl_Text_Display@@QAE@HHHHPBD@Z 00450410 f   fltk:Fl_Text_Display.obj
 0001:0004f760       ??1Fl_Text_Display@@UAE@XZ 00450760 f   fltk:Fl_Text_Display.obj
 0001:0004f800       ??_GFl_Text_Display@@UAEPAXI@Z 00450800 f i fltk:Fl_Text_Display.obj
 0001:0004f800       ??_EFl_Text_Display@@UAEPAXI@Z 00450800 f i fltk:Fl_Text_Display.obj
 0001:0004f830       ?absolute_top_line_number@Fl_Text_Display@@IAEXH@Z 00450830 f   fltk:Fl_Text_Display.obj
 0001:0004f890       ?buffer@Fl_Text_Display@@QAEXPAVFl_Text_Buffer@@@Z 00450890 f   fltk:Fl_Text_Display.obj
 0001:0004f960       ?buffer_modified_cb@Fl_Text_Display@@KAXHHHHPBDPAX@Z 00450960 f   fltk:Fl_Text_Display.obj
 0001:0004fc40       ?buffer_predelete_cb@Fl_Text_Display@@KAXHHPAX@Z 00450c40 f   fltk:Fl_Text_Display.obj
 0001:0004fc70       ?calc_last_char@Fl_Text_Display@@IAEXXZ 00450c70 f   fltk:Fl_Text_Display.obj
 0001:0004fd10       ?calc_line_starts@Fl_Text_Display@@IAEXHH@Z 00450d10 f   fltk:Fl_Text_Display.obj
 0001:0004fe10       ?clear_rect@Fl_Text_Display@@IBEXHHHHH@Z 00450e10 f   fltk:Fl_Text_Display.obj
 0001:0004fee0       ?col_to_x@Fl_Text_Display@@QBENN@Z 00450ee0 f   fltk:Fl_Text_Display.obj
 0001:0004ff20       ?count_lines@Fl_Text_Display@@QBEHHH_N@Z 00450f20 f   fltk:Fl_Text_Display.obj
 0001:0004ffb0       ?cursor_style@Fl_Text_Display@@QAEXH@Z 00450fb0 f   fltk:Fl_Text_Display.obj
 0001:00050000       ?display_insert@Fl_Text_Display@@IAEXXZ 00451000 f   fltk:Fl_Text_Display.obj
 0001:00050140       ?draw@Fl_Text_Display@@MAEXXZ 00451140 f   fltk:Fl_Text_Display.obj
 0001:000505e0       ?draw_cursor@Fl_Text_Display@@IAEXHH@Z 004515e0 f   fltk:Fl_Text_Display.obj
 0001:00050800       ?draw_line_numbers@Fl_Text_Display@@IAEX_N@Z 00451800 f   fltk:Fl_Text_Display.obj
 0001:000509f0       ?draw_range@Fl_Text_Display@@IAEXHH@Z 004519f0 f   fltk:Fl_Text_Display.obj
 0001:00050b90       ?draw_string@Fl_Text_Display@@IBEXHHHHPBDH@Z 00451b90 f   fltk:Fl_Text_Display.obj
 0001:00050de0       ?draw_text@Fl_Text_Display@@IAEXHHHH@Z 00451de0 f   fltk:Fl_Text_Display.obj
 0001:00050e90       ?draw_vline@Fl_Text_Display@@IAEXHHHHH@Z 00451e90 f   fltk:Fl_Text_Display.obj
 0001:00050f30       ?empty_vlines@Fl_Text_Display@@IBEHXZ 00451f30 f   fltk:Fl_Text_Display.obj
 0001:00050f50       ?extend_range_for_styles@Fl_Text_Display@@IAEXPAH0@Z 00451f50 f   fltk:Fl_Text_Display.obj
 0001:00050fc0       ?find_line_end@Fl_Text_Display@@IBEXH_NPAH1@Z 00451fc0 f   fltk:Fl_Text_Display.obj
 0001:00051040       ?find_wrap_range@Fl_Text_Display@@IAEXPBDHHHPAH111@Z 00452040 f   fltk:Fl_Text_Display.obj
 0001:000513a0       ?find_x@Fl_Text_Display@@IBEHPBDHHH@Z 004523a0 f   fltk:Fl_Text_Display.obj
 0001:00051470       ?fl_text_drag_me@@YAXHPAVFl_Text_Display@@@Z 00452470 f   fltk:Fl_Text_Display.obj
 0001:000515c0       ?get_absolute_top_line_number@Fl_Text_Display@@IBEHXZ 004525c0 f   fltk:Fl_Text_Display.obj
 0001:000515f0       ?h_scrollbar_cb@Fl_Text_Display@@KAXPAVFl_Scrollbar@@PAV1@@Z 004525f0 f   fltk:Fl_Text_Display.obj
 0001:00051640       ?handle@Fl_Text_Display@@UAEHH@Z 00452640 f   fltk:Fl_Text_Display.obj
 0001:00051f30       ?handle_vline@Fl_Text_Display@@IBEHHHHHHHHHH@Z 00452f30 f   fltk:Fl_Text_Display.obj
 0001:000523b0       ?highlight_data@Fl_Text_Display@@QAEXPAVFl_Text_Buffer@@PBUStyle_Table_Entry@1@HDP6AXHPAX@Z2@Z 004533b0 f   fltk:Fl_Text_Display.obj
 0001:00052410       ?in_selection@Fl_Text_Display@@QBEHHH@Z 00453410 f   fltk:Fl_Text_Display.obj
 0001:00052440       ?insert@Fl_Text_Display@@QAEXPBD@Z 00453440 f   fltk:Fl_Text_Display.obj
 0001:00052490       ?insert_position@Fl_Text_Display@@QAEXH@Z 00453490 f   fltk:Fl_Text_Display.obj
 0001:00052510       ?line_end@Fl_Text_Display@@QBEHH_N@Z 00453510 f   fltk:Fl_Text_Display.obj
 0001:00052570       ?line_start@Fl_Text_Display@@QBEHH@Z 00453570 f   fltk:Fl_Text_Display.obj
 0001:000525e0       ?linenumber_align@Fl_Text_Display@@QAEXI@Z 004535e0 f   fltk:Fl_Text_Display.obj
 0001:000525f0       ?linenumber_align@Fl_Text_Display@@QBEIXZ 004535f0 f   fltk:Fl_Text_Display.obj
 0001:00052600       ?linenumber_bgcolor@Fl_Text_Display@@QAEXI@Z 00453600 f   fltk:Fl_Text_Display.obj
 0001:00052610       ?linenumber_bgcolor@Fl_Text_Display@@QBEIXZ 00453610 f   fltk:Fl_Text_Display.obj
 0001:00052620       ?linenumber_fgcolor@Fl_Text_Display@@QAEXI@Z 00453620 f   fltk:Fl_Text_Display.obj
 0001:00052630       ?linenumber_fgcolor@Fl_Text_Display@@QBEIXZ 00453630 f   fltk:Fl_Text_Display.obj
 0001:00052640       ?linenumber_font@Fl_Text_Display@@QAEXH@Z 00453640 f   fltk:Fl_Text_Display.obj
 0001:00052650       ?linenumber_font@Fl_Text_Display@@QBEHXZ 00453650 f   fltk:Fl_Text_Display.obj
 0001:00052660       ?linenumber_format@Fl_Text_Display@@QAEXPBD@Z 00453660 f   fltk:Fl_Text_Display.obj
 0001:00052670       ?linenumber_format@Fl_Text_Display@@QBEPBDXZ 00453670 f   fltk:Fl_Text_Display.obj
 0001:00052680       ?linenumber_size@Fl_Text_Display@@QAEXH@Z 00453680 f   fltk:Fl_Text_Display.obj
 0001:00052690       ?linenumber_size@Fl_Text_Display@@QBEHXZ 00453690 f   fltk:Fl_Text_Display.obj
 0001:000526a0       ?linenumber_width@Fl_Text_Display@@QAEXH@Z 004536a0 f   fltk:Fl_Text_Display.obj
 0001:000526d0       ?linenumber_width@Fl_Text_Display@@QBEHXZ 004536d0 f   fltk:Fl_Text_Display.obj
 0001:000526e0       ?longest_vline@Fl_Text_Display@@IBEHXZ 004536e0 f   fltk:Fl_Text_Display.obj
 0001:00052740       ?maintain_absolute_top_line_number@Fl_Text_Display@@IAEXH@Z 00453740 f   fltk:Fl_Text_Display.obj
 0001:000527b0       ?maintaining_absolute_top_line_number@Fl_Text_Display@@IBEHXZ 004537b0 f   fltk:Fl_Text_Display.obj
 0001:000527e0       ?measure_deleted_lines@Fl_Text_Display@@IAEXHH@Z 004537e0 f   fltk:Fl_Text_Display.obj
 0001:00052900       ?measure_proportional_character@Fl_Text_Display@@IBENPBDHH@Z 00453900 f   fltk:Fl_Text_Display.obj
 0001:000529b0       ?measure_vline@Fl_Text_Display@@IBEHH@Z 004539b0 f   fltk:Fl_Text_Display.obj
 0001:00052a00       ?move_down@Fl_Text_Display@@QAEHXZ 00453a00 f   fltk:Fl_Text_Display.obj
 0001:00052b00       ?move_left@Fl_Text_Display@@QAEHXZ 00453b00 f   fltk:Fl_Text_Display.obj
 0001:00052b30       ?move_right@Fl_Text_Display@@QAEHXZ 00453b30 f   fltk:Fl_Text_Display.obj
 0001:00052b60       ?move_up@Fl_Text_Display@@QAEHXZ 00453b60 f   fltk:Fl_Text_Display.obj
 0001:00052c30       ?next_word@Fl_Text_Display@@QAEXXZ 00453c30 f   fltk:Fl_Text_Display.obj
 0001:00052cf0       ?offset_line_starts@Fl_Text_Display@@IAEXH@Z 00453cf0 f   fltk:Fl_Text_Display.obj
 0001:00052e90       ?overstrike@Fl_Text_Display@@QAEXPBD@Z 00453e90 f   fltk:Fl_Text_Display.obj
 0001:00053020       ?position_style@Fl_Text_Display@@QBEHHHH@Z 00454020 f   fltk:Fl_Text_Display.obj
 0001:00053100       ?position_to_line@Fl_Text_Display@@IBEHHPAH@Z 00454100 f   fltk:Fl_Text_Display.obj
 0001:000531e0       ?position_to_linecol@Fl_Text_Display@@IBEHHPAH0@Z 004541e0 f   fltk:Fl_Text_Display.obj
 0001:000532a0       ?position_to_xy@Fl_Text_Display@@QBEHHPAH0@Z 004542a0 f   fltk:Fl_Text_Display.obj
 0001:00053390       ?previous_word@Fl_Text_Display@@QAEXXZ 00454390 f   fltk:Fl_Text_Display.obj
 0001:000534b0       ?redisplay_range@Fl_Text_Display@@QAEXHH@Z 004544b0 f   fltk:Fl_Text_Display.obj
 0001:00053540       ?reset_absolute_top_line_number@Fl_Text_Display@@IAEXXZ 00454540 f   fltk:Fl_Text_Display.obj
 0001:000535a0       ?resize@Fl_Text_Display@@UAEXHHHH@Z 004545a0 f   fltk:Fl_Text_Display.obj
 0001:00053d50       ?rewind_lines@Fl_Text_Display@@QAEHHH@Z 00454d50 f   fltk:Fl_Text_Display.obj
 0001:00053e80       ?scroll@Fl_Text_Display@@QAEXHH@Z 00454e80 f   fltk:Fl_Text_Display.obj
 0001:00053eb0       ?scroll_@Fl_Text_Display@@IAEHHH@Z 00454eb0 f   fltk:Fl_Text_Display.obj
 0001:00053f50       ?scroll_timer_cb@Fl_Text_Display@@KAXPAX@Z 00454f50 f   fltk:Fl_Text_Display.obj
 0001:000540d0       ?show_cursor@Fl_Text_Display@@QAEXH@Z 004550d0 f   fltk:Fl_Text_Display.obj
 0001:00054110       ?show_insert_position@Fl_Text_Display@@QAEXXZ 00455110 f   fltk:Fl_Text_Display.obj
 0001:00054130       ?skip_lines@Fl_Text_Display@@QAEHHH_N@Z 00455130 f   fltk:Fl_Text_Display.obj
 0001:000541a0       ?string_width@Fl_Text_Display@@IBENPBDHH@Z 004551a0 f   fltk:Fl_Text_Display.obj
 0001:00054220       ?update_h_scrollbar@Fl_Text_Display@@IAEXXZ 00455220 f   fltk:Fl_Text_Display.obj
 0001:00054260       ?update_line_starts@Fl_Text_Display@@IAEXHHHHHPAH@Z 00455260 f   fltk:Fl_Text_Display.obj
 0001:000544f0       ?update_v_scrollbar@Fl_Text_Display@@IAEXXZ 004554f0 f   fltk:Fl_Text_Display.obj
 0001:00054530       ?v_scrollbar_cb@Fl_Text_Display@@KAXPAVFl_Scrollbar@@PAV1@@Z 00455530 f   fltk:Fl_Text_Display.obj
 0001:00054570       ?vline_length@Fl_Text_Display@@IBEHH@Z 00455570 f   fltk:Fl_Text_Display.obj
 0001:00054600       ?wrap_mode@Fl_Text_Display@@QAEXHH@Z 00455600 f   fltk:Fl_Text_Display.obj
 0001:000547b0       ?wrap_uses_character@Fl_Text_Display@@IBEHH@Z 004557b0 f   fltk:Fl_Text_Display.obj
 0001:00054810       ?wrapped_column@Fl_Text_Display@@QBEHHH@Z 00455810 f   fltk:Fl_Text_Display.obj
 0001:00054870       ?wrapped_line_counter@Fl_Text_Display@@IBEXPAVFl_Text_Buffer@@HHH_NHPAH2221@Z 00455870 f   fltk:Fl_Text_Display.obj
 0001:00054bd0       ?wrapped_row@Fl_Text_Display@@QBEHH@Z 00455bd0 f   fltk:Fl_Text_Display.obj
 0001:00054c10       ?x_to_col@Fl_Text_Display@@QBENN@Z 00455c10 f   fltk:Fl_Text_Display.obj
 0001:00054cb0       ?xy_to_position@Fl_Text_Display@@IBEHHHH@Z 00455cb0 f   fltk:Fl_Text_Display.obj
 0001:00054d30       ?xy_to_rowcol@Fl_Text_Display@@IBEXHHPAH0H@Z 00455d30 f   fltk:Fl_Text_Display.obj
 0001:00054da0       _fl_ucs_to_Utf16           00455da0 f   fltk:fl_utf.obj
 0001:00054e60       _fl_utf8back               00455e60 f   fltk:fl_utf.obj
 0001:00054ec0       _fl_utf8bytes              00455ec0 f   fltk:fl_utf.obj
 0001:00054f00       _fl_utf8decode             00455f00 f   fltk:fl_utf.obj
 0001:00055060       _fl_utf8encode             00456060 f   fltk:fl_utf.obj
 0001:00055120       _fl_utf8from_mb            00456120 f   fltk:fl_utf.obj
 0001:00055260       _fl_utf8froma              00456260 f   fltk:fl_utf.obj
 0001:00055300       _fl_utf8fromwc             00456300 f   fltk:fl_utf.obj
 0001:00055550       _fl_utf8fwd                00456550 f   fltk:fl_utf.obj
 0001:000555b0       _fl_utf8locale             004565b0 f   fltk:fl_utf.obj
 0001:000555e0       _fl_utf8test               004565e0 f   fltk:fl_utf.obj
 0001:000556d0       _fl_utf8toUtf16            004566d0 f   fltk:fl_utf.obj
 0001:000557e0       _fl_utf8to_mb              004567e0 f   fltk:fl_utf.obj
 0001:00055930       _fl_utf8toa                00456930 f   fltk:fl_utf.obj
 0001:00055af0       _fl_utf8towc               00456af0 f   fltk:fl_utf.obj
 0001:00055b00       _fl_wcwidth                00456b00 f   fltk:fl_utf.obj
 0001:00055b30       _fl_wcwidth_               00456b30 f   fltk:fl_utf.obj
 0001:00055c90       ?call_screen_init@Fl@@SAXXZ 00456c90 f   fltk:screen_xywh.obj
 0001:00055d90       ?screen_count@Fl@@SAHXZ    00456d90 f   fltk:screen_xywh.obj
 0001:00055db0       ?screen_dpi@Fl@@SAXAAM0H@Z 00456db0 f   fltk:screen_xywh.obj
 0001:00055ea0       ?screen_num@Fl@@SAHHH@Z    00456ea0 f   fltk:screen_xywh.obj
 0001:00055f30       ?screen_num@Fl@@SAHHHHH@Z  00456f30 f   fltk:screen_xywh.obj
 0001:00056030       ?screen_work_area@Fl@@SAXAAH000H@Z 00457030 f   fltk:screen_xywh.obj
 0001:00056090       ?screen_work_area@Fl@@SAXAAH000HH@Z 00457090 f   fltk:screen_xywh.obj
 0001:00056100       ?screen_xywh@Fl@@SAXAAH000H@Z 00457100 f   fltk:screen_xywh.obj
 0001:00056190       ?screen_xywh@Fl@@SAXAAH000HH@Z 00457190 f   fltk:screen_xywh.obj
 0001:000561c0       ?screen_xywh@Fl@@SAXAAH000HHHH@Z 004571c0 f   fltk:screen_xywh.obj
 0001:000561f0       ?add_awake_handler_@Fl@@SAHP6AXPAX@Z0@Z 004571f0 f   fltk:Fl_lock.obj
 0001:000562d0       ?awake@Fl@@SAHP6AXPAX@Z0@Z 004572d0 f   fltk:Fl_lock.obj
 0001:00056300       ?awake@Fl@@SAXPAX@Z        00457300 f   fltk:Fl_lock.obj
 0001:00056320       ?get_awake_handler_@Fl@@SAHAAP6AXPAX@ZAAPAX@Z 00457320 f   fltk:Fl_lock.obj
 0001:000563d0       ?lock@Fl@@SAHXZ            004573d0 f   fltk:Fl_lock.obj
 0001:00056430       ?unlock@Fl@@SAXXZ          00457430 f   fltk:Fl_lock.obj
 0001:00056450       ?compose@Fl@@SAHAAH@Z      00457450 f   fltk:Fl_compose.obj
 0001:000564a0       ?compose_reset@Fl@@SAXXZ   004574a0 f   fltk:Fl_compose.obj
 0001:000564b0       ?draw@Fl_Label@@QBEXHHHHI@Z 004574b0 f   fltk:fl_labeltype.obj
 0001:000564f0       ?draw_label@Fl_Widget@@IBEXHHHH@Z 004574f0 f   fltk:fl_labeltype.obj
 0001:00056520       ?draw_label@Fl_Widget@@IBEXXZ 00457520 f   fltk:fl_labeltype.obj
 0001:000565b0       ?draw_label@Fl_Widget@@QBEXHHHHI@Z 004575b0 f   fltk:fl_labeltype.obj
 0001:00056650       ?fl_no_label@@YAXPBUFl_Label@@HHHHI@Z 00457650 f   fltk:fl_labeltype.obj
 0001:00056660       ?fl_normal_label@@YAXPBUFl_Label@@HHHHI@Z 00457660 f   fltk:fl_labeltype.obj
 0001:000566b0       ?fl_normal_measure@@YAXPBUFl_Label@@AAH1@Z 004576b0 f   fltk:fl_labeltype.obj
 0001:00056700       ?measure@Fl_Label@@QBEXAAH0@Z 00457700 f   fltk:fl_labeltype.obj
 0001:00056750       ?set_labeltype@Fl@@SAXW4Fl_Labeltype@@P6AXPBUFl_Label@@HHHHI@ZP6AX1AAH3@Z@Z 00457750 f   fltk:fl_labeltype.obj
 0001:00056770       ??0Fl_RGB_Image@@QAE@PBVFl_Pixmap@@I@Z 00457770 f   fltk:Fl_Image.obj
 0001:00056830       ??1Fl_Image@@UAE@XZ        00457830 f   fltk:Fl_Image.obj
 0001:00056840       ??1Fl_RGB_Image@@UAE@XZ    00457840 f   fltk:Fl_Image.obj
 0001:000568c0       ?RGB_scaling@Fl_Image@@SA?AW4Fl_RGB_Scaling@@XZ 004578c0 f   fltk:Fl_Image.obj
 0001:000568d0       ?RGB_scaling@Fl_Image@@SAXW4Fl_RGB_Scaling@@@Z 004578d0 f   fltk:Fl_Image.obj
 0001:000568e0       ?color_average@Fl_Image@@UAEXIM@Z 004578e0 f   fltk:Fl_Image.obj
 0001:000568f0       ?color_average@Fl_RGB_Image@@UAEXIM@Z 004578f0 f   fltk:Fl_Image.obj
 0001:00056af0       ?copy@Fl_Image@@UAEPAV1@HH@Z 00457af0 f   fltk:Fl_Image.obj
 0001:00056b50       ?copy@Fl_RGB_Image@@UAEPAVFl_Image@@HH@Z 00457b50 f   fltk:Fl_Image.obj
 0001:00057230       ?desaturate@Fl_Image@@UAEXXZ 00458230 f   fltk:Fl_Image.obj
 0001:00057240       ?desaturate@Fl_RGB_Image@@UAEXXZ 00458240 f   fltk:Fl_Image.obj
 0001:00057370       ?draw@Fl_GDI_Graphics_Driver@@UAEXPAVFl_RGB_Image@@HHHHHH@Z 00458370 f   fltk:Fl_Image.obj
 0001:000576d0       ?draw@Fl_Image@@UAEXHHHHHH@Z 004586d0 f   fltk:Fl_Image.obj
 0001:000576f0       ?draw@Fl_RGB_Image@@UAEXHHHHHH@Z 004586f0 f   fltk:Fl_Image.obj
 0001:00057720       ?draw_empty@Fl_Image@@IAEXHH@Z 00458720 f   fltk:Fl_Image.obj
 0001:000577a0       ?fl_draw_image@@YAXPBEHHHHHH@Z 004587a0 f i fltk:Fl_Image.obj
 0001:000577d0       ?label@Fl_Image@@UAEXPAUFl_Menu_Item@@@Z 004587d0 f   fltk:Fl_Image.obj
 0001:00057800       ?label@Fl_Image@@UAEXPAVFl_Widget@@@Z 00458800 f   fltk:Fl_Image.obj
 0001:00057810       ?label@Fl_RGB_Image@@UAEXPAUFl_Menu_Item@@@Z 00458810 f   fltk:Fl_Image.obj
 0001:00057840       ?label@Fl_RGB_Image@@UAEXPAVFl_Widget@@@Z 00458840 f   fltk:Fl_Image.obj
 0001:00057850       ?labeltype@Fl_Image@@KAXPBUFl_Label@@HHHHI@Z 00458850 f   fltk:Fl_Image.obj
 0001:000578e0       ?measure@Fl_Image@@KAXPBUFl_Label@@AAH1@Z 004588e0 f   fltk:Fl_Image.obj
 0001:000579c0       ?uncache@Fl_Image@@UAEXXZ  004589c0 f   fltk:Fl_Image.obj
 0001:000579d0       ?uncache@Fl_RGB_Image@@UAEXXZ 004589d0 f   fltk:Fl_Image.obj
 0001:00057a10       ??0Fl_TooltipBox@@QAE@XZ   00458a10 f i fltk:Fl_Tooltip.obj
 0001:00057a80       ??_GFl_TooltipBox@@UAEPAXI@Z 00458a80 f i fltk:Fl_Tooltip.obj
 0001:00057a80       ??_EFl_TooltipBox@@UAEPAXI@Z 00458a80 f i fltk:Fl_Tooltip.obj
 0001:00057ab0       ?copy_tooltip@Fl_Widget@@QAEXPBD@Z 00458ab0 f   fltk:Fl_Tooltip.obj
 0001:00057b30       ?current@Fl_Tooltip@@SAXPAVFl_Widget@@@Z 00458b30 f   fltk:Fl_Tooltip.obj
 0001:00057b60       ?draw@Fl_TooltipBox@@UAEXXZ 00458b60 f   fltk:Fl_Tooltip.obj
 0001:00057be0       ?enter_@Fl_Tooltip@@CAXPAVFl_Widget@@@Z 00458be0 f   fltk:Fl_Tooltip.obj
 0001:00057cb0       ?enter_area@Fl_Tooltip@@SAXPAVFl_Widget@@HHHHPBD@Z 00458cb0 f   fltk:Fl_Tooltip.obj
 0001:00057de0       ?exit_@Fl_Tooltip@@CAXPAVFl_Widget@@@Z 00458de0 f   fltk:Fl_Tooltip.obj
 0001:00057e80       ?layout@Fl_TooltipBox@@QAEXXZ 00458e80 f   fltk:Fl_Tooltip.obj
 0001:00057fd0       ?set_enter_exit_once_@Fl_Tooltip@@CAXXZ 00458fd0 f   fltk:Fl_Tooltip.obj
 0001:00058000       ?show@Fl_TooltipBox@@UAEXXZ 00459000 f i fltk:Fl_Tooltip.obj
 0001:00058010       ?tooltip@Fl_Widget@@QAEXPBD@Z 00459010 f   fltk:Fl_Tooltip.obj
 0001:00058160       ?color@Fl_GDI_Graphics_Driver@@UAEXEEE@Z 00459160 f   fltk:fl_color.obj
 0001:00058290       ?color@Fl_GDI_Graphics_Driver@@UAEXI@Z 00459290 f   fltk:fl_color.obj
 0001:00058340       ?fl_brush@@YAPAUHBRUSH__@@XZ 00459340 f   fltk:fl_color.obj
 0001:00058350       ?fl_brush_action@@YAPAUHBRUSH__@@H@Z 00459350 f   fltk:fl_color.obj
 0001:000584c0       ?fl_cleanup_pens@@YAXXZ    004594c0 f   fltk:fl_color.obj
 0001:000584f0       ?fl_color_average@@YAIIIM@Z 004594f0 f   fltk:fl_color.obj
 0001:000585f0       ?fl_contrast@@YAIII@Z      004595f0 f   fltk:fl_color.obj
 0001:000586b0       ?fl_inactive@@YAII@Z       004596b0 f   fltk:fl_color.obj
 0001:000586d0       ?fl_restore_pen@@YAXXZ     004596d0 f   fltk:fl_color.obj
 0001:00058710       ?fl_save_pen@@YAXXZ        00459710 f   fltk:fl_color.obj
 0001:00058740       ?fl_select_palette@@YAPAUHPALETTE__@@XZ 00459740 f   fltk:fl_color.obj
 0001:00058840       ?free_color@Fl@@SAXIH@Z    00459840 f   fltk:fl_color.obj
 0001:000588b0       ?get_color@Fl@@SAII@Z      004598b0 f   fltk:fl_color.obj
 0001:000588d0       ?get_color@Fl@@SAXIAAE00@Z 004598d0 f   fltk:fl_color.obj
 0001:00058910       ?set_color@Fl@@SAXIEEE@Z   00459910 f   fltk:fl_color.obj
 0001:00058940       ?set_color@Fl@@SAXII@Z     00459940 f   fltk:fl_color.obj
 0001:00058a20       ??0Fl_Double_Window@@QAE@HHHHPBD@Z 00459a20 f   fltk:Fl_Double_Window.obj
 0001:00058a60       ??0Fl_Double_Window@@QAE@HHPBD@Z 00459a60 f   fltk:Fl_Double_Window.obj
 0001:00058aa0       ??0Fl_Overlay_Window@@IAE@HHHHPBD@Z 00459aa0 f   fltk:Fl_Double_Window.obj
 0001:00058af0       ??0Fl_Overlay_Window@@IAE@HHPBD@Z 00459af0 f   fltk:Fl_Double_Window.obj
 0001:00058b40       ??1Fl_Double_Window@@UAE@XZ 00459b40 f   fltk:Fl_Double_Window.obj
 0001:00058ba0       ??_EFl_Double_Window@@UAEPAXI@Z 00459ba0 f i fltk:Fl_Double_Window.obj
 0001:00058ba0       ??_GFl_Double_Window@@UAEPAXI@Z 00459ba0 f i fltk:Fl_Double_Window.obj
 0001:00058c20       ??_EFl_Overlay_Window@@UAEPAXI@Z 00459c20 f i fltk:Fl_Double_Window.obj
 0001:00058c20       ??_GFl_Overlay_Window@@UAEPAXI@Z 00459c20 f i fltk:Fl_Double_Window.obj
 0001:00058c50       ?copy_offscreen@Fl_GDI_Graphics_Driver@@QAEXHHHHPAUHBITMAP__@@HH@Z 00459c50 f   fltk:Fl_Double_Window.obj
 0001:00058cb0       ?copy_offscreen@Fl_Graphics_Driver@@IAEXHHHHPAUHBITMAP__@@HH@Z 00459cb0 f   fltk:Fl_Double_Window.obj
 0001:00058dd0       ?copy_offscreen_with_alpha@Fl_GDI_Graphics_Driver@@QAEXHHHHPAUHBITMAP__@@HH@Z 00459dd0 f   fltk:Fl_Double_Window.obj
 0001:00058e70       ?fl_can_do_alpha_blending@@YADXZ 00459e70 f   fltk:Fl_Double_Window.obj
 0001:00058f70       ?fl_copy_offscreen@@YAXHHHHPAUHBITMAP__@@HH@Z 00459f70 f   fltk:Fl_Double_Window.obj
 0001:00059020       ?fl_makeDC@@YAPAUHDC__@@PAUHBITMAP__@@@Z 0045a020 f   fltk:Fl_Double_Window.obj
 0001:00059070       ?flush@Fl_Double_Window@@IAEXH@Z 0045a070 f   fltk:Fl_Double_Window.obj
 0001:000591a0       ?flush@Fl_Double_Window@@UAEXXZ 0045a1a0 f   fltk:Fl_Double_Window.obj
 0001:000591b0       ?hide@Fl_Double_Window@@UAEXXZ 0045a1b0 f   fltk:Fl_Double_Window.obj
 0001:000591d0       ?resize@Fl_Double_Window@@UAEXHHHH@Z 0045a1d0 f   fltk:Fl_Double_Window.obj
 0001:00059230       ?show@Fl_Double_Window@@UAEXXZ 0045a230 f   fltk:Fl_Double_Window.obj
 0001:00059240       ??0Fl_Plugin@@QAE@PBD0@Z   0045a240 f   fltk:Fl_Preferences.obj
 0001:00059320       ??0Fl_Plugin_Manager@@QAE@PBD@Z 0045a320 f   fltk:Fl_Preferences.obj
 0001:000593a0       ??0Fl_Preferences@@QAE@AAV0@H@Z 0045a3a0 f   fltk:Fl_Preferences.obj
 0001:00059460       ??0Fl_Preferences@@QAE@AAV0@PBD@Z 0045a460 f   fltk:Fl_Preferences.obj
 0001:000594d0       ??0Fl_Preferences@@QAE@ABV0@@Z 0045a4d0 f   fltk:Fl_Preferences.obj
 0001:000594f0       ??0Fl_Preferences@@QAE@PAV0@H@Z 0045a4f0 f   fltk:Fl_Preferences.obj
 0001:000595b0       ??0Fl_Preferences@@QAE@PAV0@PBD@Z 0045a5b0 f   fltk:Fl_Preferences.obj
 0001:000596e0       ??0Fl_Preferences@@QAE@PAX@Z 0045a6e0 f   fltk:Fl_Preferences.obj
 0001:00059710       ??0Fl_Preferences@@QAE@PBD00@Z 0045a710 f   fltk:Fl_Preferences.obj
 0001:000597b0       ??0Fl_Preferences@@QAE@W4Root@0@PBD1@Z 0045a7b0 f   fltk:Fl_Preferences.obj
 0001:00059850       ??0Name@Fl_Preferences@@QAA@PBDZZ 0045a850 f   fltk:Fl_Preferences.obj
 0001:00059880       ??0Name@Fl_Preferences@@QAE@I@Z 0045a880 f   fltk:Fl_Preferences.obj
 0001:000598b0       ??0Node@Fl_Preferences@@QAE@PBD@Z 0045a8b0 f   fltk:Fl_Preferences.obj
 0001:00059920       ??0RootNode@Fl_Preferences@@QAE@PAV1@@Z 0045a920 f   fltk:Fl_Preferences.obj
 0001:00059950       ??0RootNode@Fl_Preferences@@QAE@PAV1@PBD11@Z 0045a950 f   fltk:Fl_Preferences.obj
 0001:00059a20       ??0RootNode@Fl_Preferences@@QAE@PAV1@W4Root@1@PBD2@Z 0045aa20 f   fltk:Fl_Preferences.obj
 0001:00059cc0       ??1Fl_Plugin@@UAE@XZ       0045acc0 f   fltk:Fl_Preferences.obj
 0001:00059ce0       ??1Fl_Plugin_Manager@@UAE@XZ 0045ace0 f   fltk:Fl_Preferences.obj
 0001:00059d30       ??1Fl_Preferences@@UAE@XZ  0045ad30 f   fltk:Fl_Preferences.obj
 0001:00059d80       ??1Name@Fl_Preferences@@QAE@XZ 0045ad80 f   fltk:Fl_Preferences.obj
 0001:00059da0       ??1Node@Fl_Preferences@@QAE@XZ 0045ada0 f   fltk:Fl_Preferences.obj
 0001:00059e10       ??1RootNode@Fl_Preferences@@QAE@XZ 0045ae10 f   fltk:Fl_Preferences.obj
 0001:00059ee0       ??4Fl_Preferences@@AAEAAV0@ABV0@@Z 0045aee0 f   fltk:Fl_Preferences.obj
 0001:00059f00       ??_EFl_Plugin@@UAEPAXI@Z   0045af00 f i fltk:Fl_Preferences.obj
 0001:00059f00       ??_GFl_Plugin@@UAEPAXI@Z   0045af00 f i fltk:Fl_Preferences.obj
 0001:00059f30       ??_EFl_Plugin_Manager@@UAEPAXI@Z 0045af30 f i fltk:Fl_Preferences.obj
 0001:00059f30       ??_GFl_Plugin_Manager@@UAEPAXI@Z 0045af30 f i fltk:Fl_Preferences.obj
 0001:00059f90       ??_EFl_Preferences@@UAEPAXI@Z 0045af90 f i fltk:Fl_Preferences.obj
 0001:00059f90       ??_GFl_Preferences@@UAEPAXI@Z 0045af90 f i fltk:Fl_Preferences.obj
 0001:00059ff0       ??_GNode@Fl_Preferences@@QAEPAXI@Z 0045aff0 f i fltk:Fl_Preferences.obj
 0001:0005a090       ?add@Node@Fl_Preferences@@QAEXPBD@Z 0045b090 f   fltk:Fl_Preferences.obj
 0001:0005a110       ?addChild@Node@Fl_Preferences@@QAEPAV12@PBD@Z 0045b110 f   fltk:Fl_Preferences.obj
 0001:0005a170       ?addPlugin@Fl_Plugin_Manager@@QAEPAXPBDPAVFl_Plugin@@@Z 0045b170 f   fltk:Fl_Preferences.obj
 0001:0005a240       ?child@Node@Fl_Preferences@@QAEPBDH@Z 0045b240 f   fltk:Fl_Preferences.obj
 0001:0005a280       ?childNode@Node@Fl_Preferences@@QAEPAV12@H@Z 0045b280 f   fltk:Fl_Preferences.obj
 0001:0005a2e0       ?clear@Fl_Preferences@@QAEDXZ 0045b2e0 f   fltk:Fl_Preferences.obj
 0001:0005a300       ?createIndex@Node@Fl_Preferences@@AAEXXZ 0045b300 f   fltk:Fl_Preferences.obj
 0001:0005a4c0       ?deleteAllChildren@Node@Fl_Preferences@@QAEXXZ 0045b4c0 f   fltk:Fl_Preferences.obj
 0001:0005a500       ?deleteAllEntries@Fl_Preferences@@QAEDXZ 0045b500 f   fltk:Fl_Preferences.obj
 0001:0005a510       ?deleteAllEntries@Node@Fl_Preferences@@QAEXXZ 0045b510 f   fltk:Fl_Preferences.obj
 0001:0005a590       ?deleteAllGroups@Fl_Preferences@@QAEDXZ 0045b590 f   fltk:Fl_Preferences.obj
 0001:0005a5a0       ?deleteEntry@Fl_Preferences@@QAEDPBD@Z 0045b5a0 f   fltk:Fl_Preferences.obj
 0001:0005a5f0       ?deleteEntry@Node@Fl_Preferences@@QAEDPBD@Z 0045b5f0 f   fltk:Fl_Preferences.obj
 0001:0005a640       ?deleteGroup@Fl_Preferences@@QAEDPBD@Z 0045b640 f   fltk:Fl_Preferences.obj
 0001:0005a670       ?deleteIndex@Node@Fl_Preferences@@AAEXXZ 0045b670 f   fltk:Fl_Preferences.obj
 0001:0005a6a0       ?dirty@Node@Fl_Preferences@@QAEDXZ 0045b6a0 f   fltk:Fl_Preferences.obj
 0001:0005a6d0       ?entries@Fl_Preferences@@QAEHXZ 0045b6d0 f   fltk:Fl_Preferences.obj
 0001:0005a6e0       ?entry@Fl_Preferences@@QAEPBDH@Z 0045b6e0 f   fltk:Fl_Preferences.obj
 0001:0005a700       ?entryExists@Fl_Preferences@@QAEDPBD@Z 0045b700 f   fltk:Fl_Preferences.obj
 0001:0005a720       ?find@Node@Fl_Preferences@@QAEPAV12@PBD@Z 0045b720 f   fltk:Fl_Preferences.obj
 0001:0005a860       ?findRoot@Node@Fl_Preferences@@QAEPAVRootNode@2@XZ 0045b860 f   fltk:Fl_Preferences.obj
 0001:0005a880       ?flush@Fl_Preferences@@QAEXXZ 0045b880 f   fltk:Fl_Preferences.obj
 0001:0005a8c0       ?get@Fl_Preferences@@QAEDPBDAAHH@Z 0045b8c0 f   fltk:Fl_Preferences.obj
 0001:0005a910       ?get@Fl_Preferences@@QAEDPBDAAMM@Z 0045b910 f   fltk:Fl_Preferences.obj
 0001:0005a970       ?get@Fl_Preferences@@QAEDPBDAANN@Z 0045b970 f   fltk:Fl_Preferences.obj
 0001:0005a9d0       ?get@Fl_Preferences@@QAEDPBDAAPAD0@Z 0045b9d0 f   fltk:Fl_Preferences.obj
 0001:0005aa50       ?get@Fl_Preferences@@QAEDPBDAAPAXPBXH@Z 0045ba50 f   fltk:Fl_Preferences.obj
 0001:0005aad0       ?get@Fl_Preferences@@QAEDPBDPAD0H@Z 0045bad0 f   fltk:Fl_Preferences.obj
 0001:0005ab50       ?get@Fl_Preferences@@QAEDPBDPAXPBXHH@Z 0045bb50 f   fltk:Fl_Preferences.obj
 0001:0005abd0       ?get@Node@Fl_Preferences@@QAEPBDPBD@Z 0045bbd0 f   fltk:Fl_Preferences.obj
 0001:0005ac00       ?getEntry@Node@Fl_Preferences@@QAEHPBD@Z 0045bc00 f   fltk:Fl_Preferences.obj
 0001:0005ac60       ?getPath@RootNode@Fl_Preferences@@QAEDPADH@Z 0045bc60 f   fltk:Fl_Preferences.obj
 0001:0005ace0       ?getUserdataPath@Fl_Preferences@@QAEDPADH@Z 0045bce0 f   fltk:Fl_Preferences.obj
 0001:0005ad00       ?group@Fl_Preferences@@QAEPBDH@Z 0045bd00 f   fltk:Fl_Preferences.obj
 0001:0005ad50       ?groupExists@Fl_Preferences@@QAEDPBD@Z 0045bd50 f   fltk:Fl_Preferences.obj
 0001:0005ad70       ?groups@Fl_Preferences@@QAEHXZ 0045bd70 f   fltk:Fl_Preferences.obj
 0001:0005ad90       ?load@Fl_Plugin_Manager@@SAHPBD@Z 0045bd90 f   fltk:Fl_Preferences.obj
 0001:0005adb0       ?loadAll@Fl_Plugin_Manager@@SAHPBD0@Z 0045bdb0 f   fltk:Fl_Preferences.obj
 0001:0005ae50       ?nChildren@Node@Fl_Preferences@@QAEHXZ 0045be50 f   fltk:Fl_Preferences.obj
 0001:0005ae70       ?name@Node@Fl_Preferences@@QAEPBDXZ 0045be70 f   fltk:Fl_Preferences.obj
 0001:0005aea0       ?newUUID@Fl_Preferences@@SAPBDXZ 0045bea0 f   fltk:Fl_Preferences.obj
 0001:0005b070       ?plugin@Fl_Plugin_Manager@@QAEPAVFl_Plugin@@H@Z 0045c070 f   fltk:Fl_Preferences.obj
 0001:0005b100       ?plugin@Fl_Plugin_Manager@@QAEPAVFl_Plugin@@PBD@Z 0045c100 f   fltk:Fl_Preferences.obj
 0001:0005b1c0       ?read@RootNode@Fl_Preferences@@QAEHXZ 0045c1c0 f   fltk:Fl_Preferences.obj
 0001:0005b370       ?remove@Node@Fl_Preferences@@QAEDXZ 0045c370 f   fltk:Fl_Preferences.obj
 0001:0005b460       ?removePlugin@Fl_Plugin_Manager@@SAXPAX@Z 0045c460 f   fltk:Fl_Preferences.obj
 0001:0005b470       ?search@Node@Fl_Preferences@@QAEPAV12@PBDH@Z 0045c470 f   fltk:Fl_Preferences.obj
 0001:0005b550       ?set@Fl_Preferences@@QAEDPBD0@Z 0045c550 f   fltk:Fl_Preferences.obj
 0001:0005b660       ?set@Fl_Preferences@@QAEDPBDH@Z 0045c660 f   fltk:Fl_Preferences.obj
 0001:0005b6a0       ?set@Fl_Preferences@@QAEDPBDM@Z 0045c6a0 f   fltk:Fl_Preferences.obj
 0001:0005b6e0       ?set@Fl_Preferences@@QAEDPBDMH@Z 0045c6e0 f   fltk:Fl_Preferences.obj
 0001:0005b730       ?set@Fl_Preferences@@QAEDPBDN@Z 0045c730 f   fltk:Fl_Preferences.obj
 0001:0005b770       ?set@Fl_Preferences@@QAEDPBDNH@Z 0045c770 f   fltk:Fl_Preferences.obj
 0001:0005b7b0       ?set@Fl_Preferences@@QAEDPBDPBXH@Z 0045c7b0 f   fltk:Fl_Preferences.obj
 0001:0005b990       ?set@Node@Fl_Preferences@@QAEXPBD0@Z 0045c990 f   fltk:Fl_Preferences.obj
 0001:0005baf0       ?set@Node@Fl_Preferences@@QAEXPBD@Z 0045caf0 f   fltk:Fl_Preferences.obj
 0001:0005bb70       ?setParent@Node@Fl_Preferences@@QAEXPAV12@@Z 0045cb70 f   fltk:Fl_Preferences.obj
 0001:0005bbc0       ?size@Fl_Preferences@@QAEHPBD@Z 0045cbc0 f   fltk:Fl_Preferences.obj
 0001:0005bc00       ?updateIndex@Node@Fl_Preferences@@AAEXXZ 0045cc00 f   fltk:Fl_Preferences.obj
 0001:0005bc10       ?write@Node@Fl_Preferences@@QAEHPAU_iobuf@@@Z 0045cc10 f   fltk:Fl_Preferences.obj
 0001:0005bd90       ?write@RootNode@Fl_Preferences@@QAEHXZ 0045cd90 f   fltk:Fl_Preferences.obj
 0001:0005be10       ??0Fl_Display_Device@@QAE@PAVFl_Graphics_Driver@@@Z 0045ce10 f   fltk:Fl_Device.obj
 0001:0005be40       ??0Fl_Graphics_Driver@@IAE@XZ 0045ce40 f   fltk:Fl_Device.obj
 0001:0005bed0       ??_EFl_Display_Device@@UAEPAXI@Z 0045ced0 f i fltk:Fl_Device.obj
 0001:0005bed0       ??_GFl_Display_Device@@UAEPAXI@Z 0045ced0 f i fltk:Fl_Device.obj
 0001:0005bf00       ??_GFl_Surface_Device@@UAEPAXI@Z 0045cf00 f i fltk:Fl_Device.obj
 0001:0005bf00       ??_EFl_Surface_Device@@UAEPAXI@Z 0045cf00 f i fltk:Fl_Device.obj
 0001:0005bf30       ?class_name@Fl_Display_Device@@UAEPBDXZ 0045cf30 f i fltk:Fl_Device.obj
 0001:0005bf40       ?class_name@Fl_Surface_Device@@UAEPBDXZ 0045cf40 f i fltk:Fl_Device.obj
 0001:0005bf50       ?set_current@Fl_Surface_Device@@UAEXXZ 0045cf50 f   fltk:Fl_Device.obj
 0001:0005bf60       ?text_extents@Fl_Graphics_Driver@@UAEXPBDHAAH111@Z 0045cf60 f   fltk:Fl_Device.obj
 0001:0005bfb0       ?clip_box@Fl_Graphics_Driver@@MAEHHHHHAAH000@Z 0045cfb0 f   fltk:fl_rect.obj
 0001:0005c120       ?clip_region@Fl_Graphics_Driver@@IAEPAUHRGN__@@XZ 0045d120 f   fltk:fl_rect.obj
 0001:0005c130       ?clip_region@Fl_Graphics_Driver@@IAEXPAUHRGN__@@@Z 0045d130 f   fltk:fl_rect.obj
 0001:0005c190       ?line@Fl_Graphics_Driver@@MAEXHHHH@Z 0045d190 f   fltk:fl_rect.obj
 0001:0005c1e0       ?line@Fl_Graphics_Driver@@MAEXHHHHHH@Z 0045d1e0 f   fltk:fl_rect.obj
 0001:0005c240       ?loop@Fl_Graphics_Driver@@MAEXHHHHHH@Z 0045d240 f   fltk:fl_rect.obj
 0001:0005c290       ?loop@Fl_Graphics_Driver@@MAEXHHHHHHHH@Z 0045d290 f   fltk:fl_rect.obj
 0001:0005c2f0       ?not_clipped@Fl_Graphics_Driver@@MAEHHHHH@Z 0045d2f0 f   fltk:fl_rect.obj
 0001:0005c3e0       ?point@Fl_Graphics_Driver@@MAEXHH@Z 0045d3e0 f   fltk:fl_rect.obj
 0001:0005c400       ?polygon@Fl_Graphics_Driver@@MAEXHHHHHH@Z 0045d400 f   fltk:fl_rect.obj
 0001:0005c470       ?polygon@Fl_Graphics_Driver@@MAEXHHHHHHHH@Z 0045d470 f   fltk:fl_rect.obj
 0001:0005c4f0       ?pop_clip@Fl_Graphics_Driver@@MAEXXZ 0045d4f0 f   fltk:fl_rect.obj
 0001:0005c550       ?push_clip@Fl_Graphics_Driver@@MAEXHHHH@Z 0045d550 f   fltk:fl_rect.obj
 0001:0005c600       ?push_no_clip@Fl_Graphics_Driver@@MAEXXZ 0045d600 f   fltk:fl_rect.obj
 0001:0005c660       ?rect@Fl_Graphics_Driver@@MAEXHHHH@Z 0045d660 f   fltk:fl_rect.obj
 0001:0005c6d0       ?rectf@Fl_Graphics_Driver@@MAEXHHHH@Z 0045d6d0 f   fltk:fl_rect.obj
 0001:0005c730       ?restore_clip@Fl_Graphics_Driver@@IAEXXZ 0045d730 f   fltk:fl_rect.obj
 0001:0005c750       ?xyline@Fl_Graphics_Driver@@MAEXHHH@Z 0045d750 f   fltk:fl_rect.obj
 0001:0005c780       ?xyline@Fl_Graphics_Driver@@MAEXHHHH@Z 0045d780 f   fltk:fl_rect.obj
 0001:0005c7d0       ?xyline@Fl_Graphics_Driver@@MAEXHHHHH@Z 0045d7d0 f   fltk:fl_rect.obj
 0001:0005c830       ?yxline@Fl_Graphics_Driver@@MAEXHHH@Z 0045d830 f   fltk:fl_rect.obj
 0001:0005c870       ?yxline@Fl_Graphics_Driver@@MAEXHHHH@Z 0045d870 f   fltk:fl_rect.obj
 0001:0005c8c0       ?yxline@Fl_Graphics_Driver@@MAEXHHHHH@Z 0045d8c0 f   fltk:fl_rect.obj
 0001:0005c920       ?line_style@Fl_Graphics_Driver@@MAEXHHPAD@Z 0045d920 f   fltk:fl_line_style.obj
 0001:0005ca90       ?begin_complex_polygon@Fl_Graphics_Driver@@MAEXXZ 0045da90 f   fltk:fl_vertex.obj
 0001:0005cab0       ?begin_line@Fl_Graphics_Driver@@MAEXXZ 0045dab0 f   fltk:fl_vertex.obj
 0001:0005cad0       ?begin_loop@Fl_Graphics_Driver@@MAEXXZ 0045dad0 f   fltk:fl_vertex.obj
 0001:0005caf0       ?begin_points@Fl_Graphics_Driver@@MAEXXZ 0045daf0 f   fltk:fl_vertex.obj
 0001:0005cb10       ?begin_polygon@Fl_Graphics_Driver@@MAEXXZ 0045db10 f   fltk:fl_vertex.obj
 0001:0005cb30       ?circle@Fl_Graphics_Driver@@MAEXNNN@Z 0045db30 f   fltk:fl_vertex.obj
 0001:0005cd80       ?end_complex_polygon@Fl_Graphics_Driver@@MAEXXZ 0045dd80 f   fltk:fl_vertex.obj
 0001:0005cde0       ?end_line@Fl_Graphics_Driver@@MAEXXZ 0045dde0 f   fltk:fl_vertex.obj
 0001:0005ce10       ?end_loop@Fl_Graphics_Driver@@MAEXXZ 0045de10 f   fltk:fl_vertex.obj
 0001:0005ce60       ?end_points@Fl_Graphics_Driver@@MAEXXZ 0045de60 f   fltk:fl_vertex.obj
 0001:0005ceb0       ?end_polygon@Fl_Graphics_Driver@@MAEXXZ 0045deb0 f   fltk:fl_vertex.obj
 0001:0005cf00       ?fixloop@Fl_Graphics_Driver@@AAEXXZ 0045df00 f   fltk:fl_vertex.obj
 0001:0005cf40       ?gap@Fl_Graphics_Driver@@MAEXXZ 0045df40 f   fltk:fl_vertex.obj
 0001:0005d000       ?mult_matrix@Fl_Graphics_Driver@@IAEXNNNNNN@Z 0045e000 f   fltk:fl_vertex.obj
 0001:0005d0f0       ?pop_matrix@Fl_Graphics_Driver@@IAEXXZ 0045e0f0 f   fltk:fl_vertex.obj
 0001:0005d140       ?push_matrix@Fl_Graphics_Driver@@IAEXXZ 0045e140 f   fltk:fl_vertex.obj
 0001:0005d190       ?rotate@Fl_Graphics_Driver@@IAEXN@Z 0045e190 f   fltk:fl_vertex.obj
 0001:0005d280       ?transform_dx@Fl_Graphics_Driver@@IAENNN@Z 0045e280 f   fltk:fl_vertex.obj
 0001:0005d2b0       ?transform_dy@Fl_Graphics_Driver@@IAENNN@Z 0045e2b0 f   fltk:fl_vertex.obj
 0001:0005d2e0       ?transform_x@Fl_Graphics_Driver@@IAENNN@Z 0045e2e0 f   fltk:fl_vertex.obj
 0001:0005d320       ?transform_y@Fl_Graphics_Driver@@IAENNN@Z 0045e320 f   fltk:fl_vertex.obj
 0001:0005d360       ?transformed_vertex0@Fl_Graphics_Driver@@AAEXHH@Z 0045e360 f   fltk:fl_vertex.obj
 0001:0005d3f0       ?transformed_vertex@Fl_Graphics_Driver@@MAEXNN@Z 0045e3f0 f   fltk:fl_vertex.obj
 0001:0005d460       ?vertex@Fl_Graphics_Driver@@MAEXNN@Z 0045e460 f   fltk:fl_vertex.obj
 0001:0005d4d0       ?curve@Fl_Graphics_Driver@@MAEXNNNNNNNN@Z 0045e4d0 f   fltk:fl_curve.obj
 0001:0005d970       ?arc@Fl_Graphics_Driver@@MAEXNNNNN@Z 0045e970 f   fltk:fl_arc.obj
 0001:0005dc10       ?arc@Fl_Graphics_Driver@@MAEXHHHHNN@Z 0045ec10 f   fltk:fl_arci.obj
 0001:0005dd70       ?pie@Fl_Graphics_Driver@@MAEXHHHHNN@Z 0045ed70 f   fltk:fl_arci.obj
 0001:0005df20       ??0Fl_Font_Descriptor@@QAE@PBDH@Z 0045ef20 f   fltk:fl_font.obj
 0001:0005e060       ??1Fl_Font_Descriptor@@QAE@XZ 0045f060 f   fltk:fl_font.obj
 0001:0005e0b0       ?descent@Fl_GDI_Graphics_Driver@@UAEHXZ 0045f0b0 f   fltk:fl_font.obj
 0001:0005e0d0       ?draw@Fl_GDI_Graphics_Driver@@UAEXHPBDHHH@Z 0045f0d0 f   fltk:fl_font.obj
 0001:0005e1b0       ?draw@Fl_GDI_Graphics_Driver@@UAEXPBDHHH@Z 0045f1b0 f   fltk:fl_font.obj
 0001:0005e460       ?fl_draw@@YAXHPBDHH@Z      0045f460 f   fltk:fl_font.obj
 0001:0005e4a0       ?fl_draw@@YAXPBDHH@Z       0045f4a0 f   fltk:fl_font.obj
 0001:0005e4d0       ?fl_draw@@YAXPBDHMM@Z      0045f4d0 f   fltk:fl_font.obj
 0001:0005e570       ?fl_text_extents@@YAXPBDAAH111@Z 0045f570 f   fltk:fl_font.obj
 0001:0005e5d0       ?fl_width@@YANPBD@Z        0045f5d0 f   fltk:fl_font.obj
 0001:0005e610       ?font@Fl_GDI_Graphics_Driver@@UAEXHH@Z 0045f610 f   fltk:fl_font.obj
 0001:0005e630       ?height@Fl_GDI_Graphics_Driver@@UAEHXZ 0045f630 f   fltk:fl_font.obj
 0001:0005e6e0       ?rtl_draw@Fl_GDI_Graphics_Driver@@UAEXPBDHHH@Z 0045f6e0 f   fltk:fl_font.obj
 0001:0005e7e0       ?text_extents@Fl_GDI_Graphics_Driver@@UAEXPBDHAAH111@Z 0045f7e0 f   fltk:fl_font.obj
 0001:0005ebe0       ?width@Fl_GDI_Graphics_Driver@@UAENI@Z 0045fbe0 f   fltk:fl_font.obj
 0001:0005edb0       ?width@Fl_GDI_Graphics_Driver@@UAENPBDH@Z 0045fdb0 f   fltk:fl_font.obj
 0001:0005ee40       ??0Fl_Pixmap@@QAE@PBQAD@Z  0045fe40 f i fltk:Fl_Pixmap.obj
 0001:0005ef30       ??0Fl_Pixmap@@QAE@PBQBD@Z  0045ff30 f i fltk:Fl_Pixmap.obj
 0001:0005f020       ??1Fl_Pixmap@@UAE@XZ       00460020 f   fltk:Fl_Pixmap.obj
 0001:0005f0c0       ??_GFl_Pixmap@@UAEPAXI@Z   004600c0 f i fltk:Fl_Pixmap.obj
 0001:0005f0c0       ??_EFl_Pixmap@@UAEPAXI@Z   004600c0 f i fltk:Fl_Pixmap.obj
 0001:0005f0f0       ?color_average@Fl_Pixmap@@UAEXIM@Z 004600f0 f   fltk:Fl_Pixmap.obj
 0001:0005f4a0       ?copy@Fl_Pixmap@@UAEPAVFl_Image@@HH@Z 004604a0 f   fltk:Fl_Pixmap.obj
 0001:0005f840       ?copy_data@Fl_Pixmap@@AAEXXZ 00460840 f   fltk:Fl_Pixmap.obj
 0001:0005f9e0       ?delete_data@Fl_Pixmap@@AAEXXZ 004609e0 f   fltk:Fl_Pixmap.obj
 0001:0005fa20       ?desaturate@Fl_Pixmap@@UAEXXZ 00460a20 f   fltk:Fl_Pixmap.obj
 0001:0005fd20       ?draw@Fl_GDI_Graphics_Driver@@UAEXPAVFl_Pixmap@@HHHHHH@Z 00460d20 f   fltk:Fl_Pixmap.obj
 0001:0005fe30       ?draw@Fl_GDI_Printer_Graphics_Driver@@UAEXPAVFl_Pixmap@@HHHHHH@Z 00460e30 f   fltk:Fl_Pixmap.obj
 0001:0005ff40       ?draw@Fl_Pixmap@@UAEXHHHHHH@Z 00460f40 f   fltk:Fl_Pixmap.obj
 0001:0005ff70       ?label@Fl_Pixmap@@UAEXPAUFl_Menu_Item@@@Z 00460f70 f   fltk:Fl_Pixmap.obj
 0001:0005ffa0       ?label@Fl_Pixmap@@UAEXPAVFl_Widget@@@Z 00460fa0 f   fltk:Fl_Pixmap.obj
 0001:0005ffb0       ?measure@Fl_Pixmap@@IAEXXZ 00460fb0 f   fltk:Fl_Pixmap.obj
 0001:0005fff0       ?prepare@Fl_Pixmap@@AAEHHHHHAAH00000@Z 00460ff0 f   fltk:Fl_Pixmap.obj
 0001:00060190       ?set_data@Fl_Pixmap@@AAEXPBQBD@Z 00461190 f   fltk:Fl_Pixmap.obj
 0001:000602c0       ?uncache@Fl_Pixmap@@UAEXXZ 004612c0 f   fltk:Fl_Pixmap.obj
 0001:00060300       ??0Fl_Bitmap@@QAE@PBEHH@Z  00461300 f i fltk:Fl_Bitmap.obj
 0001:00060360       ??1Fl_Bitmap@@UAE@XZ       00461360 f   fltk:Fl_Bitmap.obj
 0001:000603a0       ?copy@Fl_Bitmap@@UAEPAVFl_Image@@HH@Z 004613a0 f   fltk:Fl_Bitmap.obj
 0001:00060570       ?draw@Fl_Bitmap@@UAEXHHHHHH@Z 00461570 f   fltk:Fl_Bitmap.obj
 0001:000605a0       ?draw@Fl_GDI_Graphics_Driver@@UAEXPAVFl_Bitmap@@HHHHHH@Z 004615a0 f   fltk:Fl_Bitmap.obj
 0001:00060650       ?draw@Fl_GDI_Printer_Graphics_Driver@@UAEXPAVFl_Bitmap@@HHHHHH@Z 00461650 f   fltk:Fl_Bitmap.obj
 0001:00060900       ?fl_create_alphamask@@YAPAUHBITMAP__@@HHHHPBE@Z 00461900 f   fltk:Fl_Bitmap.obj
 0001:00060c10       ?fl_create_bitmask@@YAPAUHBITMAP__@@HHPBE@Z 00461c10 f   fltk:Fl_Bitmap.obj
 0001:00060dc0       ?fl_delete_bitmask@@YAXPAUHBITMAP__@@@Z 00461dc0 f   fltk:Fl_Bitmap.obj
 0001:00060dd0       ?label@Fl_Bitmap@@UAEXPAUFl_Menu_Item@@@Z 00461dd0 f   fltk:Fl_Bitmap.obj
 0001:00060e00       ?label@Fl_Bitmap@@UAEXPAVFl_Widget@@@Z 00461e00 f   fltk:Fl_Bitmap.obj
 0001:00060e10       ?start@Fl_Bitmap@@AAEHHHHHAAH00000@Z 00461e10 f   fltk:Fl_Bitmap.obj
 0001:00060f00       ?uncache@Fl_Bitmap@@UAEXXZ 00461f00 f   fltk:Fl_Bitmap.obj
 0001:000610c0       ?draw_image@Fl_GDI_Graphics_Driver@@UAEXP6AXPAXHHHPAE@Z0HHHHH@Z 004620c0 f   fltk:fl_draw_image.obj
 0001:00061110       ?draw_image@Fl_GDI_Graphics_Driver@@UAEXPBEHHHHHH@Z 00462110 f   fltk:fl_draw_image.obj
 0001:00061170       ?draw_image_mono@Fl_GDI_Graphics_Driver@@UAEXP6AXPAXHHHPAE@Z0HHHHH@Z 00462170 f   fltk:fl_draw_image.obj
 0001:000611b0       ?draw_image_mono@Fl_GDI_Graphics_Driver@@UAEXPBEHHHHHH@Z 004621b0 f   fltk:fl_draw_image.obj
 0001:000611f0       ?fl_rectf@@YAXHHHHEEE@Z    004621f0 f   fltk:fl_draw_image.obj
 0001:00061850       ?fl_read_image@@YAPAEPAEHHHHH@Z 00462850 f   fltk:fl_read_image.obj
 0001:00061a80       ?background2@Fl@@SAXEEE@Z  00462a80 f   fltk:Fl_get_system_colors.obj
 0001:00061ac0       ?background@Fl@@SAXEEE@Z   00462ac0 f   fltk:Fl_get_system_colors.obj
 0001:00061c40       ?fl_parse_color@@YAHPBDAAE11@Z 00462c40 f   fltk:Fl_get_system_colors.obj
 0001:00061d30       ?foreground@Fl@@SAXEEE@Z   00462d30 f   fltk:Fl_get_system_colors.obj
 0001:00061d50       ?get_system_colors@Fl@@SAXXZ 00462d50 f   fltk:Fl_get_system_colors.obj
 0001:00061e40       ?reload_scheme@Fl@@SAHXZ   00462e40 f   fltk:Fl_get_system_colors.obj
 0001:00062390       ?scheme@Fl@@SAHPBD@Z       00463390 f   fltk:Fl_get_system_colors.obj
 0001:00062590       ?border@Fl_Window@@QAEXH@Z 00463590 f   fltk:Fl_Window_fullscreen.obj
 0001:000625c0       ?fullscreen@Fl_Window@@QAEXXZ 004635c0 f   fltk:Fl_Window_fullscreen.obj
 0001:00062600       ?fullscreen_off@Fl_Window@@QAEXHHHH@Z 00463600 f   fltk:Fl_Window_fullscreen.obj
 0001:00062660       ?fullscreen_off@Fl_Window@@QAEXXZ 00463660 f   fltk:Fl_Window_fullscreen.obj
 0001:000626e0       ?fullscreen_screens@Fl_Window@@QAEXHHHH@Z 004636e0 f   fltk:Fl_Window_fullscreen.obj
 0001:00062760       ??0IDropTarget@@QAE@XZ     00463760 f i fltk:fl_dnd.obj
 0001:00062770       ??1FLDataObject@@UAE@XZ    00463770 f i fltk:fl_dnd.obj
 0001:00062780       ??1FLDropSource@@UAE@XZ    00463780 f i fltk:fl_dnd.obj
 0001:00062790       ??1FLDropTarget@@UAE@XZ    00463790 f i fltk:fl_dnd.obj
 0001:000627a0       ??_EFLDataObject@@UAEPAXI@Z 004637a0 f i fltk:fl_dnd.obj
 0001:000627a0       ??_GFLDataObject@@UAEPAXI@Z 004637a0 f i fltk:fl_dnd.obj
 0001:000627d0       ??_GFLDropSource@@UAEPAXI@Z 004637d0 f i fltk:fl_dnd.obj
 0001:000627d0       ??_EFLDropSource@@UAEPAXI@Z 004637d0 f i fltk:fl_dnd.obj
 0001:00062800       ??_EFLDropTarget@@UAEPAXI@Z 00463800 f i fltk:fl_dnd.obj
 0001:00062800       ??_GFLDropTarget@@UAEPAXI@Z 00463800 f i fltk:fl_dnd.obj
 0001:00062830       ?AddRef@FLDataObject@@UAGKXZ 00463830 f i fltk:fl_dnd.obj
 0001:00062850       ?AddRef@FLDropSource@@UAGKXZ 00463850 f i fltk:fl_dnd.obj
 0001:00062870       ?AddRef@FLDropTarget@@UAGKXZ 00463870 f i fltk:fl_dnd.obj
 0001:00062890       ?DAdvise@FLDataObject@@UAGJPAUtagFORMATETC@@KPAUIAdviseSink@@PAK@Z 00463890 f i fltk:fl_dnd.obj
 0001:000628a0       ?DUnadvise@FLDataObject@@UAGJK@Z 004638a0 f i fltk:fl_dnd.obj
 0001:000628b0       ?DragEnter@FLDropTarget@@UAGJPAUIDataObject@@KU_POINTL@@PAK@Z 004638b0 f i fltk:fl_dnd.obj
 0001:00062970       ?DragLeave@FLDropTarget@@UAGJXZ 00463970 f i fltk:fl_dnd.obj
 0001:000629e0       ?DragOver@FLDropTarget@@UAGJKU_POINTL@@PAK@Z 004639e0 f i fltk:fl_dnd.obj
 0001:00062aa0       ?Drop@FLDropTarget@@UAGJPAUIDataObject@@KU_POINTL@@PAK@Z 00463aa0 f i fltk:fl_dnd.obj
 0001:00062ba0       ?EnumDAdvise@FLDataObject@@UAGJPAPAUIEnumSTATDATA@@@Z 00463ba0 f i fltk:fl_dnd.obj
 0001:00062bb0       ?EnumFormatEtc@FLDataObject@@UAGJKPAPAUIEnumFORMATETC@@@Z 00463bb0 f i fltk:fl_dnd.obj
 0001:00062bc0       ?GetCanonicalFormatEtc@FLDataObject@@UAGJPAUtagFORMATETC@@0@Z 00463bc0 f i fltk:fl_dnd.obj
 0001:00062bd0       ?GetData@FLDataObject@@UAGJPAUtagFORMATETC@@PAUtagSTGMEDIUM@@@Z 00463bd0 f i fltk:fl_dnd.obj
 0001:00062c70       ?GetDataHere@FLDataObject@@UAGJPAUtagFORMATETC@@PAUtagSTGMEDIUM@@@Z 00463c70 f i fltk:fl_dnd.obj
 0001:00062c80       ?GiveFeedback@FLDropSource@@UAGJK@Z 00463c80 f i fltk:fl_dnd.obj
 0001:00062c90       ?QueryContinueDrag@FLDropSource@@UAGJHK@Z 00463c90 f i fltk:fl_dnd.obj
 0001:00062cc0       ?QueryGetData@FLDataObject@@UAGJPAUtagFORMATETC@@@Z 00463cc0 f i fltk:fl_dnd.obj
 0001:00062cf0       ?QueryInterface@FLDataObject@@UAGJABU_GUID@@PAPAX@Z 00463cf0 f i fltk:fl_dnd.obj
 0001:00062d60       ?QueryInterface@FLDropSource@@UAGJABU_GUID@@PAPAX@Z 00463d60 f i fltk:fl_dnd.obj
 0001:00062dd0       ?QueryInterface@FLDropTarget@@UAGJABU_GUID@@PAPAX@Z 00463dd0 f i fltk:fl_dnd.obj
 0001:00062e40       ?Release@FLDataObject@@UAGKXZ 00463e40 f i fltk:fl_dnd.obj
 0001:00062e60       ?Release@FLDropSource@@UAGKXZ 00463e60 f i fltk:fl_dnd.obj
 0001:00062e80       ?Release@FLDropTarget@@UAGKXZ 00463e80 f i fltk:fl_dnd.obj
 0001:00062ea0       ?SetData@FLDataObject@@UAGJPAUtagFORMATETC@@PAUtagSTGMEDIUM@@H@Z 00463ea0 f i fltk:fl_dnd.obj
 0001:00062eb0       ?clearCurrentDragData@FLDropTarget@@CAXXZ 00463eb0 f i fltk:fl_dnd.obj
 0001:00062ef0       ?dnd@Fl@@SAHXZ             00463ef0 f   fltk:fl_dnd.obj
 0001:00062fc0       ?fillCurrentDragData@FLDropTarget@@CADPAUIDataObject@@@Z 00463fc0 f i fltk:fl_dnd.obj
 0001:000632c0       ??$__vcrt_va_start_verify_argument_type@H@@YAXXZ 004642c0 f i fltk:fl_utf8.obj
 0001:00063340       _fl_access                 00464340 f   fltk:fl_utf8.obj
 0001:000633b0       _fl_chmod                  004643b0 f   fltk:fl_utf8.obj
 0001:00063420       _fl_execvp                 00464420 f   fltk:fl_utf8.obj
 0001:00063560       _fl_fopen                  00464560 f   fltk:fl_utf8.obj
 0001:00063620       _fl_getcwd                 00464620 f   fltk:fl_utf8.obj
 0001:000636a0       _fl_getenv                 004646a0 f   fltk:fl_utf8.obj
 0001:00063760       _fl_locale_to_utf8         00464760 f   fltk:fl_utf8.obj
 0001:00063830       _fl_make_path              00464830 f   fltk:fl_utf8.obj
 0001:000638f0       _fl_make_path_for_file     004648f0 f   fltk:fl_utf8.obj
 0001:00063940       _fl_mkdir                  00464940 f   fltk:fl_utf8.obj
 0001:000639a0       _fl_nonspacing             004649a0 f   fltk:fl_utf8.obj
 0001:000639c0       _fl_open                   004649c0 f   fltk:fl_utf8.obj
 0001:00063a50       _fl_rename                 00464a50 f   fltk:fl_utf8.obj
 0001:00063b10       _fl_rmdir                  00464b10 f   fltk:fl_utf8.obj
 0001:00063b80       _fl_stat                   00464b80 f   fltk:fl_utf8.obj
 0001:00063bf0       _fl_system                 00464bf0 f   fltk:fl_utf8.obj
 0001:00063c60       _fl_tolower                00464c60 f   fltk:fl_utf8.obj
 0001:00063c70       _fl_toupper                00464c70 f   fltk:fl_utf8.obj
 0001:00063c80       _fl_unlink                 00464c80 f   fltk:fl_utf8.obj
 0001:00063cf0       _fl_utf2mbcs               00464cf0 f   fltk:fl_utf8.obj
 0001:00063d90       _fl_utf8_to_locale         00464d90 f   fltk:fl_utf8.obj
 0001:00063e60       _fl_utf8len                00464e60 f   fltk:fl_utf8.obj
 0001:00063eb0       _fl_utf8len1               00464eb0 f   fltk:fl_utf8.obj
 0001:00063f00       _fl_utf_nb_char            00464f00 f   fltk:fl_utf8.obj
 0001:00063f60       _fl_utf_strcasecmp         00464f60 f   fltk:fl_utf8.obj
 0001:00063f80       _fl_utf_strncasecmp        00464f80 f   fltk:fl_utf8.obj
 0001:00064000       _fl_utf_tolower            00465000 f   fltk:fl_utf8.obj
 0001:00064080       _fl_utf_toupper            00465080 f   fltk:fl_utf8.obj
 0001:000643b0       ?draw@Fl_Window@@MAEXXZ    004653b0 f   fltk:Fl_Window_shape.obj
 0001:00064450       ?shape@Fl_Window@@QAEXPBVFl_Image@@@Z 00465450 f   fltk:Fl_Window_shape.obj
 0001:00064460       ?shape_alpha_@Fl_Window@@AAEXPAVFl_RGB_Image@@H@Z 00465460 f   fltk:Fl_Window_shape.obj
 0001:00064590       ?shape_bitmap_@Fl_Window@@AAEXPAVFl_Bitmap@@@Z 00465590 f   fltk:Fl_Window_shape.obj
 0001:000645b0       ?shape_pixmap_@Fl_Window@@AAEXPAVFl_Pixmap@@@Z 004655b0 f   fltk:Fl_Window_shape.obj
 0001:00064640       ?fl_no_box@@YAXHHHHI@Z     00465640 f   fltk:fl_boxtype.obj
 0001:00064650       ?fl_thin_down_frame@@YAXHHHHI@Z 00465650 f   fltk:fl_boxtype.obj
 0001:00064670       ?fl_thin_down_box@@YAXHHHHI@Z 00465670 f   fltk:fl_boxtype.obj
 0001:000646e0       ?fl_thin_up_frame@@YAXHHHHI@Z 004656e0 f   fltk:fl_boxtype.obj
 0001:00064700       ?fl_thin_up_box@@YAXHHHHI@Z 00465700 f   fltk:fl_boxtype.obj
 0001:00064770       ?fl_up_frame@@YAXHHHHI@Z   00465770 f   fltk:fl_boxtype.obj
 0001:00064790       ?fl_up_box@@YAXHHHHI@Z     00465790 f   fltk:fl_boxtype.obj
 0001:00064800       ?fl_down_frame@@YAXHHHHI@Z 00465800 f   fltk:fl_boxtype.obj
 0001:00064820       ?fl_down_box@@YAXHHHHI@Z   00465820 f   fltk:fl_boxtype.obj
 0001:00064880       ?fl_engraved_frame@@YAXHHHHI@Z 00465880 f   fltk:fl_boxtype.obj
 0001:000648a0       ?fl_engraved_box@@YAXHHHHI@Z 004658a0 f   fltk:fl_boxtype.obj
 0001:00064910       ?fl_embossed_frame@@YAXHHHHI@Z 00465910 f   fltk:fl_boxtype.obj
 0001:00064930       ?fl_embossed_box@@YAXHHHHI@Z 00465930 f   fltk:fl_boxtype.obj
 0001:000649a0       ?fl_rectbound@@YAXHHHHI@Z  004659a0 f   fltk:fl_boxtype.obj
 0001:00064a30       ?fl_border_frame@@YAXHHHHI@Z 00465a30 f   fltk:fl_boxtype.obj
 0001:00064a80       ?fl_rectf@@YAXHHHHI@Z      00465a80 f i fltk:fl_boxtype.obj
 0001:00064ab0       ?box_dh@Fl@@SAHW4Fl_Boxtype@@@Z 00465ab0 f   fltk:fl_boxtype.obj
 0001:00064ad0       ?box_dw@Fl@@SAHW4Fl_Boxtype@@@Z 00465ad0 f   fltk:fl_boxtype.obj
 0001:00064af0       ?box_dx@Fl@@SAHW4Fl_Boxtype@@@Z 00465af0 f   fltk:fl_boxtype.obj
 0001:00064b10       ?box_dy@Fl@@SAHW4Fl_Boxtype@@@Z 00465b10 f   fltk:fl_boxtype.obj
 0001:00064b30       ?draw_backdrop@Fl_Widget@@IBEXXZ 00465b30 f   fltk:fl_boxtype.obj
 0001:00064ba0       ?draw_box@Fl_Widget@@IBEXW4Fl_Boxtype@@HHHHI@Z 00465ba0 f   fltk:fl_boxtype.obj
 0001:00064be0       ?draw_box@Fl_Widget@@IBEXW4Fl_Boxtype@@I@Z 00465be0 f   fltk:fl_boxtype.obj
 0001:00064c30       ?draw_box@Fl_Widget@@IBEXXZ 00465c30 f   fltk:fl_boxtype.obj
 0001:00064ca0       ?draw_box_active@Fl@@SAHXZ 00465ca0 f   fltk:fl_boxtype.obj
 0001:00064cb0       ?fl_draw_box@@YAXW4Fl_Boxtype@@HHHHI@Z 00465cb0 f   fltk:fl_boxtype.obj
 0001:00064ce0       ?fl_frame2@@YAXPBDHHHH@Z   00465ce0 f   fltk:fl_boxtype.obj
 0001:00064e40       ?fl_frame@@YAXPBDHHHH@Z    00465e40 f   fltk:fl_boxtype.obj
 0001:00064fb0       ?fl_gray_ramp@@YAPBEXZ     00465fb0 f   fltk:fl_boxtype.obj
 0001:00064fd0       ?fl_internal_boxtype@@YAXW4Fl_Boxtype@@P6AXHHHHI@Z@Z 00465fd0 f   fltk:fl_boxtype.obj
 0001:00065000       ?get_boxtype@Fl@@SAP6AXHHHHI@ZW4Fl_Boxtype@@@Z 00466000 f   fltk:fl_boxtype.obj
 0001:00065020       ?set_boxtype@Fl@@SAXW4Fl_Boxtype@@0@Z 00466020 f   fltk:fl_boxtype.obj
 0001:00065060       ?set_boxtype@Fl@@SAXW4Fl_Boxtype@@P6AXHHHHI@ZEEEE@Z 00466060 f   fltk:fl_boxtype.obj
 0001:000650b0       ??0Fl_Menu_Button@@QAE@HHHHPBD@Z 004660b0 f   fltk:Fl_Menu_Button.obj
 0001:000650f0       ??_GFl_Menu_Button@@UAEPAXI@Z 004660f0 f i fltk:Fl_Menu_Button.obj
 0001:000650f0       ??_EFl_Menu_Button@@UAEPAXI@Z 004660f0 f i fltk:Fl_Menu_Button.obj
 0001:00065120       ?draw@Fl_Menu_Button@@MAEXXZ 00466120 f   fltk:Fl_Menu_Button.obj
 0001:00065290       ?handle@Fl_Menu_Button@@UAEHH@Z 00466290 f   fltk:Fl_Menu_Button.obj
 0001:000653d0       ?popup@Fl_Menu_Button@@QAEPBUFl_Menu_Item@@XZ 004663d0 f   fltk:Fl_Menu_Button.obj
 0001:000654a0       ??0Fl_Repeat_Button@@QAE@HHHHPBD@Z 004664a0 f   fltk:Fl_Repeat_Button.obj
 0001:000654d0       ??_GFl_Repeat_Button@@UAEPAXI@Z 004664d0 f i fltk:Fl_Repeat_Button.obj
 0001:000654d0       ??_EFl_Repeat_Button@@UAEPAXI@Z 004664d0 f i fltk:Fl_Repeat_Button.obj
 0001:00065500       ?handle@Fl_Repeat_Button@@UAEHH@Z 00466500 f   fltk:Fl_Repeat_Button.obj
 0001:000655e0       ?repeat_callback@Fl_Repeat_Button@@CAXPAX@Z 004665e0 f   fltk:Fl_Repeat_Button.obj
 0001:00065620       ??0menutitle@@QAE@HHHHPBUFl_Menu_Item@@@Z 00466620 f   fltk:Fl_Menu.obj
 0001:000656b0       ??0menuwindow@@QAE@PBUFl_Menu_Item@@HHHH00HHH@Z 004666b0 f   fltk:Fl_Menu.obj
 0001:00065c50       ??1menuwindow@@UAE@XZ      00466c50 f   fltk:Fl_Menu.obj
 0001:00065cb0       ??_Gmenutitle@@UAEPAXI@Z   00466cb0 f i fltk:Fl_Menu.obj
 0001:00065cb0       ??_Emenutitle@@UAEPAXI@Z   00466cb0 f i fltk:Fl_Menu.obj
 0001:00065ce0       ??_Gmenuwindow@@UAEPAXI@Z  00466ce0 f i fltk:Fl_Menu.obj
 0001:00065ce0       ??_Emenuwindow@@UAEPAXI@Z  00466ce0 f i fltk:Fl_Menu.obj
 0001:00065d60       ?autoscroll@menuwindow@@QAEXH@Z 00466d60 f   fltk:Fl_Menu.obj
 0001:00065ed0       ?draw@Fl_Menu_Item@@QBEXHHHHPBVFl_Menu_@@H@Z 00466ed0 f   fltk:Fl_Menu.obj
 0001:000664a0       ?draw@menutitle@@EAEXXZ    004674a0 f   fltk:Fl_Menu.obj
 0001:000664c0       ?draw@menuwindow@@EAEXXZ   004674c0 f   fltk:Fl_Menu.obj
 0001:00066590       ?drawentry@menuwindow@@AAEXPBUFl_Menu_Item@@HH@Z 00467590 f   fltk:Fl_Menu.obj
 0001:00066870       ?find_selected@menuwindow@@QAEHHH@Z 00467870 f   fltk:Fl_Menu.obj
 0001:00066960       ?find_shortcut@Fl_Menu_Item@@QBEPBU1@PAH_N@Z 00467960 f   fltk:Fl_Menu.obj
 0001:000669e0       ?fl_rectf@@YAXHHHH@Z       004679e0 f i fltk:Fl_Menu.obj
 0001:00066ae0       ?handle@menuwindow@@UAEHH@Z 00467ae0 f   fltk:Fl_Menu.obj
 0001:00067020       ?is_inside@menustate@@QAEHHH@Z 00468020 f   fltk:Fl_Menu.obj
 0001:000670d0       ?is_inside@menuwindow@@QAEHHH@Z 004680d0 f   fltk:Fl_Menu.obj
 0001:00067140       ?measure@Fl_Menu_Item@@QBEHPAHPBVFl_Menu_@@@Z 00468140 f   fltk:Fl_Menu.obj
 0001:000671f0       ?next@Fl_Menu_Item@@QBEPBU1@H@Z 004681f0 f   fltk:Fl_Menu.obj
 0001:00067260       ?popup@Fl_Menu_Item@@QBEPBU1@HHPBDPBU1@PBVFl_Menu_@@@Z 00468260 f   fltk:Fl_Menu.obj
 0001:000672a0       ?position@menuwindow@@QAEXHH@Z 004682a0 f   fltk:Fl_Menu.obj
 0001:000672e0       ?pulldown@Fl_Menu_Item@@QBEPBU1@HHHHPBU1@PBVFl_Menu_@@0H@Z 004682e0 f   fltk:Fl_Menu.obj
 0001:00067a80       ?set_selected@menuwindow@@QAEXH@Z 00468a80 f   fltk:Fl_Menu.obj
 0001:00067b00       ?size@Fl_Menu_Item@@QBEHXZ 00468b00 f   fltk:Fl_Menu.obj
 0001:00067b40       ?test_shortcut@Fl_Menu_Item@@QBEPBU1@XZ 00468b40 f   fltk:Fl_Menu.obj
 0001:00067bc0       ?titlex@menuwindow@@QAEHH@Z 00468bc0 f   fltk:Fl_Menu.obj
 0001:00067d10       ?add@Fl_Menu_@@QAEHPBD@Z   00468d10 f   fltk:Fl_Menu_add.obj
 0001:00067db0       ?add@Fl_Menu_@@QAEHPBDHP6AXPAVFl_Widget@@PAX@Z2H@Z 00468db0 f   fltk:Fl_Menu_add.obj
 0001:00067dd0       ?add@Fl_Menu_Item@@QAEHPBDHP6AXPAVFl_Widget@@PAX@Z2H@Z 00468dd0 f   fltk:Fl_Menu_add.obj
 0001:00067ed0       ?insert@Fl_Menu_@@QAEHHPBDHP6AXPAVFl_Widget@@PAX@Z2H@Z 00468ed0 f   fltk:Fl_Menu_add.obj
 0001:00068080       ?insert@Fl_Menu_Item@@QAEHHPBDHP6AXPAVFl_Widget@@PAX@Z2H@Z 00469080 f   fltk:Fl_Menu_add.obj
 0001:000683c0       ?remove@Fl_Menu_@@QAEXH@Z  004693c0 f   fltk:Fl_Menu_add.obj
 0001:00068480       ?replace@Fl_Menu_@@QAEXHPBD@Z 00469480 f   fltk:Fl_Menu_add.obj
 0001:000684f0       _fl_ascii_strcasecmp       004694f0 f   fltk:flstring.obj
 0001:00068590       _fl_strlcat                00469590 f   fltk:flstring.obj
 0001:000685f0       _fl_strlcpy                004695f0 f   fltk:flstring.obj
 0001:00068630       _fl_snprintf               00469630 f   fltk:vsnprintf.obj
 0001:00068650       _fl_vsnprintf              00469650 f   fltk:vsnprintf.obj
 0001:00068d70       ?grab@Fl@@SAXPAVFl_Window@@@Z 00469d70 f   fltk:Fl_grab.obj
 0001:00068df0       ?fl_old_shortcut@@YAIPBD@Z 00469df0 f   fltk:fl_shortcut.obj
 0001:00068ea0       ?fl_shortcut_label@@YAPBDI@Z 00469ea0 f   fltk:fl_shortcut.obj
 0001:00068ec0       ?fl_shortcut_label@@YAPBDIPAPBD@Z 00469ec0 f   fltk:fl_shortcut.obj
 0001:000690b0       ?label_shortcut@Fl_Widget@@SAIPBD@Z 0046a0b0 f   fltk:fl_shortcut.obj
 0001:000690f0       ?test_shortcut@Fl@@SAHI@Z  0046a0f0 f   fltk:fl_shortcut.obj
 0001:000691a0       ?test_shortcut@Fl_Widget@@QAEHXZ 0046a1a0 f   fltk:fl_shortcut.obj
 0001:00069200       ?test_shortcut@Fl_Widget@@SAHPBD_N@Z 0046a200 f   fltk:fl_shortcut.obj
 0001:00069260       ??0Fl_Box@@QAE@HHHHPBD@Z   0046a260 f   fltk:Fl_Box.obj
 0001:00069290       ??0Fl_Box@@QAE@W4Fl_Boxtype@@HHHHPBD@Z 0046a290 f   fltk:Fl_Box.obj
 0001:000692d0       ??_EFl_Box@@UAEPAXI@Z      0046a2d0 f i fltk:Fl_Box.obj
 0001:000692d0       ??_GFl_Box@@UAEPAXI@Z      0046a2d0 f i fltk:Fl_Box.obj
 0001:00069300       ?draw@Fl_Box@@MAEXXZ       0046a300 f   fltk:Fl_Box.obj
 0001:00069310       ?handle@Fl_Box@@UAEHH@Z    0046a310 f   fltk:Fl_Box.obj
 0001:00069330       ??0Fl_Return_Button@@QAE@HHHHPBD@Z 0046a330 f   fltk:Fl_Return_Button.obj
 0001:00069360       ??_GFl_Return_Button@@UAEPAXI@Z 0046a360 f i fltk:Fl_Return_Button.obj
 0001:00069360       ??_EFl_Return_Button@@UAEPAXI@Z 0046a360 f i fltk:Fl_Return_Button.obj
 0001:00069390       ?draw@Fl_Return_Button@@MAEXXZ 0046a390 f   fltk:Fl_Return_Button.obj
 0001:00069450       ?fl_return_arrow@@YAHHHHH@Z 0046a450 f   fltk:Fl_Return_Button.obj
 0001:00069590       ?handle@Fl_Return_Button@@UAEHH@Z 0046a590 f   fltk:Fl_Return_Button.obj
 0001:000695e0       ?hotspot@Fl_Window@@QAEXHHH@Z 0046a5e0 f   fltk:Fl_Window_hotspot.obj
 0001:00069730       ?hotspot@Fl_Window@@QAEXPBVFl_Widget@@H@Z 0046a730 f   fltk:Fl_Window_hotspot.obj
 0001:00069a30       ?fl_draw@@YAXPBDHHH@Z      0046aa30 f i fltk:fl_draw.obj
 0001:00069a50       ?fl_draw@@YAXPBDHHHHIP6AX0HHH@ZPAVFl_Image@@H@Z 0046aa50 f   fltk:fl_draw.obj
 0001:0006a3d0       ?fl_draw@@YAXPBDHHHHIPAVFl_Image@@H@Z 0046b3d0 f   fltk:fl_draw.obj
 0001:0006a480       ?fl_expand_text@@YAPBDPBDPADHNAAHAANHH@Z 0046b480 f   fltk:fl_draw.obj
 0001:0006a4b0       ?fl_height@@YAHHH@Z        0046b4b0 f   fltk:fl_draw.obj
 0001:0006a510       ?fl_measure@@YAXPBDAAH1H@Z 0046b510 f   fltk:fl_draw.obj
 0001:0006a6f0       ??0Fl_Fill_Slider@@QAE@HHHHPBD@Z 0046b6f0 f   fltk:Fl_Slider.obj
 0001:0006a740       ??0Fl_Hor_Fill_Slider@@QAE@HHHHPBD@Z 0046b740 f   fltk:Fl_Slider.obj
 0001:0006a790       ??0Fl_Hor_Nice_Slider@@QAE@HHHHPBD@Z 0046b790 f   fltk:Fl_Slider.obj
 0001:0006a7e0       ??0Fl_Hor_Slider@@QAE@HHHHPBD@Z 0046b7e0 f   fltk:Fl_Slider.obj
 0001:0006a830       ??0Fl_Nice_Slider@@QAE@HHHHPBD@Z 0046b830 f   fltk:Fl_Slider.obj
 0001:0006a880       ??0Fl_Slider@@QAE@EHHHHPBD@Z 0046b880 f   fltk:Fl_Slider.obj
 0001:0006a8e0       ??0Fl_Slider@@QAE@HHHHPBD@Z 0046b8e0 f   fltk:Fl_Slider.obj
 0001:0006a930       ??_EFl_Fill_Slider@@UAEPAXI@Z 0046b930 f i fltk:Fl_Slider.obj
 0001:0006a930       ??_GFl_Fill_Slider@@UAEPAXI@Z 0046b930 f i fltk:Fl_Slider.obj
 0001:0006a960       ??_EFl_Hor_Fill_Slider@@UAEPAXI@Z 0046b960 f i fltk:Fl_Slider.obj
 0001:0006a960       ??_GFl_Hor_Fill_Slider@@UAEPAXI@Z 0046b960 f i fltk:Fl_Slider.obj
 0001:0006a990       ??_EFl_Hor_Nice_Slider@@UAEPAXI@Z 0046b990 f i fltk:Fl_Slider.obj
 0001:0006a990       ??_GFl_Hor_Nice_Slider@@UAEPAXI@Z 0046b990 f i fltk:Fl_Slider.obj
 0001:0006a9c0       ??_GFl_Hor_Slider@@UAEPAXI@Z 0046b9c0 f i fltk:Fl_Slider.obj
 0001:0006a9c0       ??_EFl_Hor_Slider@@UAEPAXI@Z 0046b9c0 f i fltk:Fl_Slider.obj
 0001:0006a9f0       ??_GFl_Nice_Slider@@UAEPAXI@Z 0046b9f0 f i fltk:Fl_Slider.obj
 0001:0006a9f0       ??_EFl_Nice_Slider@@UAEPAXI@Z 0046b9f0 f i fltk:Fl_Slider.obj
 0001:0006aa20       ??_EFl_Slider@@UAEPAXI@Z   0046ba20 f i fltk:Fl_Slider.obj
 0001:0006aa20       ??_GFl_Slider@@UAEPAXI@Z   0046ba20 f i fltk:Fl_Slider.obj
 0001:0006aa50       ?_Fl_Slider@Fl_Slider@@AAEXXZ 0046ba50 f   fltk:Fl_Slider.obj
 0001:0006aa70       ?bounds@Fl_Slider@@QAEXNN@Z 0046ba70 f   fltk:Fl_Slider.obj
 0001:0006aab0       ?draw@Fl_Slider@@IAEXHHHH@Z 0046bab0 f   fltk:Fl_Slider.obj
 0001:0006af50       ?draw@Fl_Slider@@MAEXXZ    0046bf50 f   fltk:Fl_Slider.obj
 0001:0006afe0       ?draw_bg@Fl_Slider@@AAEXHHHH@Z 0046bfe0 f   fltk:Fl_Slider.obj
 0001:0006b090       ?fl_darker@@YAII@Z         0046c090 f i fltk:Fl_Slider.obj
 0001:0006b0b0       ?fl_lighter@@YAII@Z        0046c0b0 f i fltk:Fl_Slider.obj
 0001:0006b0d0       ?fl_line@@YAXHHHH@Z        0046c0d0 f i fltk:Fl_Slider.obj
 0001:0006b0f0       ?handle@Fl_Slider@@IAEHHHHHH@Z 0046c0f0 f   fltk:Fl_Slider.obj
 0001:0006b620       ?handle@Fl_Slider@@UAEHH@Z 0046c620 f   fltk:Fl_Slider.obj
 0001:0006b6c0       ?scrollvalue@Fl_Slider@@QAEHHHHH@Z 0046c6c0 f   fltk:Fl_Slider.obj
 0001:0006b7c0       ?slider_size@Fl_Slider@@QAEXN@Z 0046c7c0 f   fltk:Fl_Slider.obj
 0001:0006b810       ??0Fl_Light_Button@@QAE@HHHHPBD@Z 0046c810 f   fltk:Fl_Light_Button.obj
 0001:0006b850       ??0Fl_Radio_Light_Button@@QAE@HHHHPBD@Z 0046c850 f   fltk:Fl_Light_Button.obj
 0001:0006b890       ??_GFl_Light_Button@@UAEPAXI@Z 0046c890 f i fltk:Fl_Light_Button.obj
 0001:0006b890       ??_EFl_Light_Button@@UAEPAXI@Z 0046c890 f i fltk:Fl_Light_Button.obj
 0001:0006b8c0       ??_GFl_Radio_Light_Button@@UAEPAXI@Z 0046c8c0 f i fltk:Fl_Light_Button.obj
 0001:0006b8c0       ??_EFl_Radio_Light_Button@@UAEPAXI@Z 0046c8c0 f i fltk:Fl_Light_Button.obj
 0001:0006b8f0       ?draw@Fl_Light_Button@@MAEXXZ 0046c8f0 f   fltk:Fl_Light_Button.obj
 0001:0006bf30       ?fl_arc@@YAXHHHHNN@Z       0046cf30 f i fltk:Fl_Light_Button.obj
 0001:0006bf70       ?fl_pie@@YAXHHHHNN@Z       0046cf70 f i fltk:Fl_Light_Button.obj
 0001:0006bfb0       ?handle@Fl_Light_Button@@UAEHH@Z 0046cfb0 f   fltk:Fl_Light_Button.obj
 0001:0006bfe0       ?cursor@Fl_Window@@QAEXPBVFl_RGB_Image@@HH@Z 0046cfe0 f   fltk:fl_cursor.obj
 0001:0006c030       ?cursor@Fl_Window@@QAEXW4Fl_Cursor@@@Z 0046d030 f   fltk:fl_cursor.obj
 0001:0006c090       ?cursor@Fl_Window@@QAEXW4Fl_Cursor@@II@Z 0046d090 f   fltk:fl_cursor.obj
 0001:0006c0a0       ?default_cursor@Fl_Window@@QAEXW4Fl_Cursor@@@Z 0046d0a0 f   fltk:fl_cursor.obj
 0001:0006c0c0       ?default_cursor@Fl_Window@@QAEXW4Fl_Cursor@@II@Z 0046d0c0 f   fltk:fl_cursor.obj
 0001:0006c2d0       ?fl_cursor@@YAXW4Fl_Cursor@@@Z 0046d2d0 f   fltk:fl_cursor.obj
 0001:0006c2f0       ?fl_cursor@@YAXW4Fl_Cursor@@II@Z 0046d2f0 f   fltk:fl_cursor.obj
 0001:0006c310       ??0Fl_Choice@@QAE@HHHHPBD@Z 0046d310 f   fltk:Fl_Choice.obj
 0001:0006c360       ??_EFl_Choice@@UAEPAXI@Z   0046d360 f i fltk:Fl_Choice.obj
 0001:0006c360       ??_GFl_Choice@@UAEPAXI@Z   0046d360 f i fltk:Fl_Choice.obj
 0001:0006c390       ?draw@Fl_Choice@@MAEXXZ    0046d390 f   fltk:Fl_Choice.obj
 0001:0006c7f0       ?handle@Fl_Choice@@UAEHH@Z 0046d7f0 f   fltk:Fl_Choice.obj
 0001:0006c980       ?value@Fl_Choice@@QAEHH@Z  0046d980 f   fltk:Fl_Choice.obj
 0001:0006c9e0       ?value@Fl_Choice@@QAEHPBUFl_Menu_Item@@@Z 0046d9e0 f   fltk:Fl_Choice.obj
 0001:0006ca10       ??0Fl_Tile@@QAE@HHHHPBD@Z  0046da10 f   fltk:Fl_Tile.obj
 0001:0006ca40       ??_GFl_Tile@@UAEPAXI@Z     0046da40 f i fltk:Fl_Tile.obj
 0001:0006ca40       ??_EFl_Tile@@UAEPAXI@Z     0046da40 f i fltk:Fl_Tile.obj
 0001:0006ca70       ?handle@Fl_Tile@@UAEHH@Z   0046da70 f   fltk:Fl_Tile.obj
 0001:0006cd50       ?position@Fl_Tile@@QAEXHHHH@Z 0046dd50 f   fltk:Fl_Tile.obj
 0001:0006ce60       ?resize@Fl_Tile@@UAEXHHHH@Z 0046de60 f   fltk:Fl_Tile.obj
 0001:0006cfe0       ??0Fl_Browser_@@IAE@HHHHPBD@Z 0046dfe0 f   fltk:Fl_Browser_.obj
 0001:0006d140       ??_EFl_Browser_@@UAEPAXI@Z 0046e140 f i fltk:Fl_Browser_.obj
 0001:0006d140       ??_GFl_Browser_@@UAEPAXI@Z 0046e140 f i fltk:Fl_Browser_.obj
 0001:0006d180       ?bbox@Fl_Browser_@@IBEXAAH000@Z 0046e180 f   fltk:Fl_Browser_.obj
 0001:0006d260       ?deleting@Fl_Browser_@@IAEXPAX@Z 0046e260 f   fltk:Fl_Browser_.obj
 0001:0006d300       ?deselect@Fl_Browser_@@QAEHH@Z 0046e300 f   fltk:Fl_Browser_.obj
 0001:0006d420       ?display@Fl_Browser_@@QAEXPAX@Z 0046e420 f   fltk:Fl_Browser_.obj
 0001:0006d5f0       ?displayed@Fl_Browser_@@IBEHPAX@Z 0046e5f0 f   fltk:Fl_Browser_.obj
 0001:0006d660       ?draw@Fl_Browser_@@MAEXXZ  0046e660 f   fltk:Fl_Browser_.obj
 0001:0006dd40       ?find_item@Fl_Browser_@@IAEPAXH@Z 0046ed40 f   fltk:Fl_Browser_.obj
 0001:0006ddc0       ?full_height@Fl_Browser_@@MBEHXZ 0046edc0 f   fltk:Fl_Browser_.obj
 0001:0006ddf0       ?full_width@Fl_Browser_@@MBEHXZ 0046edf0 f   fltk:Fl_Browser_.obj
 0001:0006de00       ?handle@Fl_Browser_@@UAEHH@Z 0046ee00 f   fltk:Fl_Browser_.obj
 0001:0006e560       ?hposition@Fl_Browser_@@QAEXH@Z 0046f560 f   fltk:Fl_Browser_.obj
 0001:0006e5c0       ?incr_height@Fl_Browser_@@MBEHXZ 0046f5c0 f   fltk:Fl_Browser_.obj
 0001:0006e5e0       ?inserting@Fl_Browser_@@IAEXPAX0@Z 0046f5e0 f   fltk:Fl_Browser_.obj
 0001:0006e620       ?item_at@Fl_Browser_@@MBEPAXH@Z 0046f620 f i fltk:Fl_Browser_.obj
 0001:0006e630       ?item_last@Fl_Browser_@@MBEPAXXZ 0046f630 f i fltk:Fl_Browser_.obj
 0001:0006e640       ?item_quick_height@Fl_Browser_@@MBEHPAX@Z 0046f640 f   fltk:Fl_Browser_.obj
 0001:0006e650       ?item_select@Fl_Browser_@@MAEXPAXH@Z 0046f650 f   fltk:Fl_Browser_.obj
 0001:0006e660       ?item_selected@Fl_Browser_@@MBEHPAX@Z 0046f660 f   fltk:Fl_Browser_.obj
 0001:0006e680       ?item_swap@Fl_Browser_@@MAEXPAX0@Z 0046f680 f i fltk:Fl_Browser_.obj
 0001:0006e690       ?item_text@Fl_Browser_@@MBEPBDPAX@Z 0046f690 f i fltk:Fl_Browser_.obj
 0001:0006e6a0       ?leftedge@Fl_Browser_@@IBEHXZ 0046f6a0 f   fltk:Fl_Browser_.obj
 0001:0006e6d0       ?new_list@Fl_Browser_@@IAEXXZ 0046f6d0 f   fltk:Fl_Browser_.obj
 0001:0006e720       ?position@Fl_Browser_@@QAEXH@Z 0046f720 f   fltk:Fl_Browser_.obj
 0001:0006e750       ?redraw_line@Fl_Browser_@@IAEXPAX@Z 0046f750 f   fltk:Fl_Browser_.obj
 0001:0006e7b0       ?replacing@Fl_Browser_@@IAEXPAX0@Z 0046f7b0 f   fltk:Fl_Browser_.obj
 0001:0006e830       ?resize@Fl_Browser_@@UAEXHHHH@Z 0046f830 f   fltk:Fl_Browser_.obj
 0001:0006e900       ?select@Fl_Browser_@@QAEHPAXHH@Z 0046f900 f   fltk:Fl_Browser_.obj
 0001:0006e9f0       ?select_only@Fl_Browser_@@QAEHPAXH@Z 0046f9f0 f   fltk:Fl_Browser_.obj
 0001:0006ec30       ?sort@Fl_Browser_@@QAEXH@Z 0046fc30 f   fltk:Fl_Browser_.obj
 0001:0006ed90       ?swapping@Fl_Browser_@@IAEXPAX0@Z 0046fd90 f   fltk:Fl_Browser_.obj
 0001:0006ee50       ?update_top@Fl_Browser_@@AAEXXZ 0046fe50 f   fltk:Fl_Browser_.obj
 0001:0006efb0       ??0Fl_File_Browser@@QAE@HHHHPBD@Z 0046ffb0 f   fltk:Fl_File_Browser.obj
 0001:0006f010       ??_EFl_Browser@@UAEPAXI@Z  00470010 f i fltk:Fl_File_Browser.obj
 0001:0006f010       ??_GFl_Browser@@UAEPAXI@Z  00470010 f i fltk:Fl_File_Browser.obj
 0001:0006f090       ??_GFl_File_Browser@@UAEPAXI@Z 00470090 f i fltk:Fl_File_Browser.obj
 0001:0006f090       ??_EFl_File_Browser@@UAEPAXI@Z 00470090 f i fltk:Fl_File_Browser.obj
 0001:0006f110       ?filter@Fl_File_Browser@@QAEXPBD@Z 00470110 f   fltk:Fl_File_Browser.obj
 0001:0006f130       ?full_height@Fl_File_Browser@@EBEHXZ 00470130 f   fltk:Fl_File_Browser.obj
 0001:0006f180       ?hide@Fl_Browser@@UAEXXZ   00470180 f i fltk:Fl_File_Browser.obj
 0001:0006f190       ?incr_height@Fl_File_Browser@@EBEHXZ 00470190 f i fltk:Fl_File_Browser.obj
 0001:0006f1a0       ?item_at@Fl_Browser@@MBEPAXH@Z 004701a0 f i fltk:Fl_File_Browser.obj
 0001:0006f1b0       ?item_draw@Fl_File_Browser@@EBEXPAXHHHH@Z 004701b0 f   fltk:Fl_File_Browser.obj
 0001:0006f550       ?item_height@Fl_File_Browser@@EBEHPAX@Z 00470550 f   fltk:Fl_File_Browser.obj
 0001:0006f5c0       ?item_swap@Fl_Browser@@MAEXPAX0@Z 004705c0 f i fltk:Fl_File_Browser.obj
 0001:0006f5d0       ?item_width@Fl_File_Browser@@EBEHPAX@Z 004705d0 f   fltk:Fl_File_Browser.obj
 0001:0006f7f0       ?load@Fl_File_Browser@@QAEHPBDP6AHPAPAUdirent@@1@Z@Z 004707f0 f   fltk:Fl_File_Browser.obj
 0001:0006fae0       ?show@Fl_Browser@@UAEXXZ   00470ae0 f i fltk:Fl_File_Browser.obj
 0001:0006faf0       ??0Fl_File_Input@@QAE@HHHHPBD@Z 00470af0 f   fltk:Fl_File_Input.obj
 0001:0006fb40       ??_GFl_File_Input@@UAEPAXI@Z 00470b40 f i fltk:Fl_File_Input.obj
 0001:0006fb40       ??_EFl_File_Input@@UAEPAXI@Z 00470b40 f i fltk:Fl_File_Input.obj
 0001:0006fb70       ?draw@Fl_File_Input@@MAEXXZ 00470b70 f   fltk:Fl_File_Input.obj
 0001:0006fc50       ?draw_buttons@Fl_File_Input@@AAEXXZ 00470c50 f   fltk:Fl_File_Input.obj
 0001:0006fd90       ?handle@Fl_File_Input@@UAEHH@Z 00470d90 f   fltk:Fl_File_Input.obj
 0001:0006fef0       ?handle_button@Fl_File_Input@@AAEHH@Z 00470ef0 f   fltk:Fl_File_Input.obj
 0001:00070030       ?update_buttons@Fl_File_Input@@AAEXXZ 00471030 f   fltk:Fl_File_Input.obj
 0001:00070100       ?value@Fl_File_Input@@QAEHPBD@Z 00471100 f   fltk:Fl_File_Input.obj
 0001:00070120       ?value@Fl_File_Input@@QAEHPBDH@Z 00471120 f   fltk:Fl_File_Input.obj
 0001:00070140       _fl_casenumericsort        00471140 f   fltk:numericsort.obj
 0001:00070160       _fl_numericsort            00471160 f   fltk:numericsort.obj
 0001:00070320       ??0Fl_Browser@@QAE@HHHHPBD@Z 00471320 f   fltk:Fl_Browser.obj
 0001:000703a0       ??0Fl_Hold_Browser@@QAE@HHHHPBD@Z 004713a0 f   fltk:Fl_Browser.obj
 0001:000703e0       ??0Fl_Multi_Browser@@QAE@HHHHPBD@Z 004713e0 f   fltk:Fl_Browser.obj
 0001:00070420       ??0Fl_Select_Browser@@QAE@HHHHPBD@Z 00471420 f   fltk:Fl_Browser.obj
 0001:00070460       ??_GFl_Hold_Browser@@UAEPAXI@Z 00471460 f i fltk:Fl_Browser.obj
 0001:00070460       ??_EFl_Hold_Browser@@UAEPAXI@Z 00471460 f i fltk:Fl_Browser.obj
 0001:000704e0       ??_EFl_Multi_Browser@@UAEPAXI@Z 004714e0 f i fltk:Fl_Browser.obj
 0001:000704e0       ??_GFl_Multi_Browser@@UAEPAXI@Z 004714e0 f i fltk:Fl_Browser.obj
 0001:00070560       ??_GFl_Select_Browser@@UAEPAXI@Z 00471560 f i fltk:Fl_Browser.obj
 0001:00070560       ??_EFl_Select_Browser@@UAEPAXI@Z 00471560 f i fltk:Fl_Browser.obj
 0001:000705e0       ?_remove@Fl_Browser@@IAEPAUFL_BLINE@@H@Z 004715e0 f   fltk:Fl_Browser.obj
 0001:00070660       ?add@Fl_Browser@@QAEXPBDPAX@Z 00471660 f   fltk:Fl_Browser.obj
 0001:00070680       ?clear@Fl_Browser@@QAEXXZ  00471680 f   fltk:Fl_Browser.obj
 0001:000706e0       ?data@Fl_Browser@@QAEXHPAX@Z 004716e0 f   fltk:Fl_Browser.obj
 0001:00070710       ?data@Fl_Browser@@QBEPAXH@Z 00471710 f   fltk:Fl_Browser.obj
 0001:00070740       ?display@Fl_Browser@@QAEXHH@Z 00471740 f   fltk:Fl_Browser.obj
 0001:00070770       ?find_line@Fl_Browser@@IBEPAUFL_BLINE@@H@Z 00471770 f   fltk:Fl_Browser.obj
 0001:00070810       ?full_height@Fl_Browser@@MBEHXZ 00471810 f   fltk:Fl_Browser.obj
 0001:00070820       ?hide@Fl_Browser@@QAEXH@Z  00471820 f   fltk:Fl_Browser.obj
 0001:00070870       ?icon@Fl_Browser@@QAEXHPAVFl_Image@@@Z 00471870 f   fltk:Fl_Browser.obj
 0001:00070910       ?icon@Fl_Browser@@QBEPAVFl_Image@@H@Z 00471910 f   fltk:Fl_Browser.obj
 0001:00070930       ?incr_height@Fl_Browser@@MBEHXZ 00471930 f   fltk:Fl_Browser.obj
 0001:00070940       ?insert@Fl_Browser@@IAEXHPAUFL_BLINE@@@Z 00471940 f   fltk:Fl_Browser.obj
 0001:00070a10       ?insert@Fl_Browser@@QAEXHPBDPAX@Z 00471a10 f   fltk:Fl_Browser.obj
 0001:00070a80       ?item_draw@Fl_Browser@@MBEXPAXHHHH@Z 00471a80 f   fltk:Fl_Browser.obj
 0001:00070ec0       ?item_first@Fl_Browser@@MBEPAXXZ 00471ec0 f   fltk:Fl_Browser.obj
 0001:00070ee0       ?item_height@Fl_Browser@@MBEHPAX@Z 00471ee0 f   fltk:Fl_Browser.obj
 0001:000711b0       ?item_last@Fl_Browser@@MBEPAXXZ 004721b0 f   fltk:Fl_Browser.obj
 0001:000711c0       ?item_next@Fl_Browser@@MBEPAXPAX@Z 004721c0 f   fltk:Fl_Browser.obj
 0001:000711d0       ?item_prev@Fl_Browser@@MBEPAXPAX@Z 004721d0 f   fltk:Fl_Browser.obj
 0001:000711e0       ?item_select@Fl_Browser@@MAEXPAXH@Z 004721e0 f   fltk:Fl_Browser.obj
 0001:00071200       ?item_selected@Fl_Browser@@MBEHPAX@Z 00472200 f   fltk:Fl_Browser.obj
 0001:00071220       ?item_text@Fl_Browser@@MBEPBDPAX@Z 00472220 f   fltk:Fl_Browser.obj
 0001:00071230       ?item_width@Fl_Browser@@MBEHPAX@Z 00472230 f   fltk:Fl_Browser.obj
 0001:00071450       ?lineno@Fl_Browser@@IBEHPAX@Z 00472450 f   fltk:Fl_Browser.obj
 0001:00071500       ?lineposition@Fl_Browser@@QAEXHW4Fl_Line_Position@1@@Z 00472500 f   fltk:Fl_Browser.obj
 0001:000715d0       ?move@Fl_Browser@@QAEXHH@Z 004725d0 f   fltk:Fl_Browser.obj
 0001:00071600       ?remove@Fl_Browser@@QAEXH@Z 00472600 f   fltk:Fl_Browser.obj
 0001:00071630       ?remove_icon@Fl_Browser@@QAEXH@Z 00472630 f   fltk:Fl_Browser.obj
 0001:00071650       ?select@Fl_Browser@@QAEHHH@Z 00472650 f   fltk:Fl_Browser.obj
 0001:00071690       ?selected@Fl_Browser@@QBEHH@Z 00472690 f   fltk:Fl_Browser.obj
 0001:000716c0       ?show@Fl_Browser@@QAEXH@Z  004726c0 f   fltk:Fl_Browser.obj
 0001:00071710       ?swap@Fl_Browser@@IAEXPAUFL_BLINE@@0@Z 00472710 f   fltk:Fl_Browser.obj
 0001:00071820       ?swap@Fl_Browser@@QAEXHH@Z 00472820 f   fltk:Fl_Browser.obj
 0001:00071870       ?text@Fl_Browser@@QAEXHPBD@Z 00472870 f   fltk:Fl_Browser.obj
 0001:00071960       ?text@Fl_Browser@@QBEPBDH@Z 00472960 f   fltk:Fl_Browser.obj
 0001:00071990       ?topline@Fl_Browser@@QBEHXZ 00472990 f   fltk:Fl_Browser.obj
 0001:000719a0       ?value@Fl_Browser@@QBEHXZ  004729a0 f   fltk:Fl_Browser.obj
 0001:000719b0       ?visible@Fl_Browser@@QBEHH@Z 004729b0 f   fltk:Fl_Browser.obj
 0001:000719e0       ??0Fl_File_Icon@@QAE@PBDHHPAF@Z 004729e0 f   fltk:Fl_File_Icon.obj
 0001:00071a50       ??1Fl_File_Icon@@QAE@XZ    00472a50 f   fltk:Fl_File_Icon.obj
 0001:00071a90       ?add@Fl_File_Icon@@QAEPAFF@Z 00472a90 f   fltk:Fl_File_Icon.obj
 0001:00071b10       ?draw@Fl_File_Icon@@QAEXHHHHIH@Z 00472b10 f   fltk:Fl_File_Icon.obj
 0001:00072050       ?find@Fl_File_Icon@@SAPAV1@PBDH@Z 00473050 f   fltk:Fl_File_Icon.obj
 0001:000720e0       ?label@Fl_File_Icon@@QAEXPAVFl_Widget@@@Z 004730e0 f   fltk:Fl_File_Icon.obj
 0001:00072110       ?labeltype@Fl_File_Icon@@SAXPBUFl_Label@@HHHHI@Z 00473110 f   fltk:Fl_File_Icon.obj
 0001:00072140       ?fl_filename_expand@@YAHPADHPBD@Z 00473140 f   fltk:filename_expand.obj
 0001:000722c0       ?fl_filename_absolute@@YAHPADHPBD@Z 004732c0 f   fltk:filename_absolute.obj
 0001:000723f0       ?fl_filename_relative@@YAHPADHPBD1@Z 004733f0 f   fltk:filename_absolute.obj
 0001:00072680       ?fl_filename_relative@@YAHPADHPBD@Z 00473680 f   fltk:filename_absolute.obj
 0001:00072700       ?isdirsep@@YAHD@Z          00473700 f i fltk:filename_absolute.obj
 0001:00072720       ?_fl_filename_isdir_quick@@YAHPBD@Z 00473720 f   fltk:filename_isdir.obj
 0001:00072760       ?fl_filename_isdir@@YAHPBD@Z 00473760 f   fltk:filename_isdir.obj
 0001:00072870       ??0Fl_Shared_Image@@IAE@PBDPAVFl_Image@@@Z 00473870 f   fltk:Fl_Shared_Image.obj
 0001:00072970       ??0Fl_Shared_Image@@IAE@XZ 00473970 f   fltk:Fl_Shared_Image.obj
 0001:000729d0       ??1Fl_Shared_Image@@MAE@XZ 004739d0 f   fltk:Fl_Shared_Image.obj
 0001:00072a10       ??_EFl_Shared_Image@@MAEPAXI@Z 00473a10 f i fltk:Fl_Shared_Image.obj
 0001:00072a10       ??_GFl_Shared_Image@@MAEPAXI@Z 00473a10 f i fltk:Fl_Shared_Image.obj
 0001:00072a60       ?add@Fl_Shared_Image@@IAEXXZ 00473a60 f   fltk:Fl_Shared_Image.obj
 0001:00072b10       ?add_handler@Fl_Shared_Image@@SAXP6APAVFl_Image@@PBDPAEH@Z@Z 00473b10 f   fltk:Fl_Shared_Image.obj
 0001:00072bc0       ?color_average@Fl_Shared_Image@@UAEXIM@Z 00473bc0 f   fltk:Fl_Shared_Image.obj
 0001:00072c10       ?compare@Fl_Shared_Image@@KAHPAPAV1@0@Z 00473c10 f   fltk:Fl_Shared_Image.obj
 0001:00072c80       ?copy@Fl_Shared_Image@@UAEPAVFl_Image@@HH@Z 00473c80 f   fltk:Fl_Shared_Image.obj
 0001:00072d30       ?desaturate@Fl_Shared_Image@@UAEXXZ 00473d30 f   fltk:Fl_Shared_Image.obj
 0001:00072d70       ?draw@Fl_Shared_Image@@UAEXHHHHHH@Z 00473d70 f   fltk:Fl_Shared_Image.obj
 0001:00072d90       ?find@Fl_Shared_Image@@SAPAV1@PBDHH@Z 00473d90 f   fltk:Fl_Shared_Image.obj
 0001:00072e60       ?get@Fl_Shared_Image@@SAPAV1@PBDHH@Z 00473e60 f   fltk:Fl_Shared_Image.obj
 0001:00072f40       ?images@Fl_Shared_Image@@SAPAPAV1@XZ 00473f40 f   fltk:Fl_Shared_Image.obj
 0001:00072f50       ?num_images@Fl_Shared_Image@@SAHXZ 00473f50 f   fltk:Fl_Shared_Image.obj
 0001:00072f60       ?release@Fl_Shared_Image@@QAEXXZ 00473f60 f   fltk:Fl_Shared_Image.obj
 0001:00072ff0       ?reload@Fl_Shared_Image@@QAEXXZ 00473ff0 f   fltk:Fl_Shared_Image.obj
 0001:000731c0       ?remove_handler@Fl_Shared_Image@@SAXP6APAVFl_Image@@PBDPAEH@Z@Z 004741c0 f   fltk:Fl_Shared_Image.obj
 0001:00073220       ?uncache@Fl_Shared_Image@@UAEXXZ 00474220 f   fltk:Fl_Shared_Image.obj
 0001:00073230       ?update@Fl_Shared_Image@@IAEXXZ 00474230 f   fltk:Fl_Shared_Image.obj
 0001:00073260       ??0Fl_Text_Buffer@@QAE@HH@Z 00474260 f   fltk:Fl_Text_Buffer.obj
 0001:00073320       ??1Fl_Text_Buffer@@QAE@XZ  00474320 f   fltk:Fl_Text_Buffer.obj
 0001:00073370       ?add_modify_callback@Fl_Text_Buffer@@QAEXP6AXHHHHPBDPAX@Z1@Z 00474370 f   fltk:Fl_Text_Buffer.obj
 0001:00073420       ?add_predelete_callback@Fl_Text_Buffer@@QAEXP6AXHHPAX@Z0@Z 00474420 f   fltk:Fl_Text_Buffer.obj
 0001:000734d0       ?byte_at@Fl_Text_Buffer@@QBEDH@Z 004744d0 f   fltk:Fl_Text_Buffer.obj
 0001:00073510       ?call_modify_callbacks@Fl_Text_Buffer@@IBEXHHHHPBD@Z 00474510 f   fltk:Fl_Text_Buffer.obj
 0001:00073550       ?call_predelete_callbacks@Fl_Text_Buffer@@IBEXHH@Z 00474550 f   fltk:Fl_Text_Buffer.obj
 0001:00073590       ?canUndo@Fl_Text_Buffer@@QAEXD@Z 00474590 f   fltk:Fl_Text_Buffer.obj
 0001:000735c0       ?char_at@Fl_Text_Buffer@@QBEIH@Z 004745c0 f   fltk:Fl_Text_Buffer.obj
 0001:00073610       ?copy@Fl_Text_Buffer@@QAEXPAV1@HHH@Z 00474610 f   fltk:Fl_Text_Buffer.obj
 0001:000736f0       ?count_displayed_characters@Fl_Text_Buffer@@QBEHHH@Z 004746f0 f   fltk:Fl_Text_Buffer.obj
 0001:00073760       ?count_lines@Fl_Text_Buffer@@QBEHHH@Z 00474760 f   fltk:Fl_Text_Buffer.obj
 0001:000737f0       ?findchar_backward@Fl_Text_Buffer@@QBEHHIPAH@Z 004747f0 f   fltk:Fl_Text_Buffer.obj
 0001:000738b0       ?findchar_forward@Fl_Text_Buffer@@QBEHHIPAH@Z 004748b0 f   fltk:Fl_Text_Buffer.obj
 0001:000739a0       ?highlight@Fl_Text_Buffer@@QAEXHH@Z 004749a0 f   fltk:Fl_Text_Buffer.obj
 0001:000739f0       ?highlight_position@Fl_Text_Buffer@@QAEHPAH0@Z 004749f0 f   fltk:Fl_Text_Buffer.obj
 0001:00073a20       ?highlight_text@Fl_Text_Buffer@@QAEPADXZ 00474a20 f   fltk:Fl_Text_Buffer.obj
 0001:00073a50       ?includes@Fl_Text_Selection@@QBEHH@Z 00474a50 f   fltk:Fl_Text_Buffer.obj
 0001:00073a80       ?insert@Fl_Text_Buffer@@QAEXHPBD@Z 00474a80 f   fltk:Fl_Text_Buffer.obj
 0001:00073b00       ?insert_@Fl_Text_Buffer@@IAEHHPBD@Z 00474b00 f   fltk:Fl_Text_Buffer.obj
 0001:00073c00       ?insertfile@Fl_Text_Buffer@@QAEHPBDHH@Z 00474c00 f   fltk:Fl_Text_Buffer.obj
 0001:00073d00       ?line_end@Fl_Text_Buffer@@QBEHH@Z 00474d00 f   fltk:Fl_Text_Buffer.obj
 0001:00073d30       ?line_start@Fl_Text_Buffer@@QBEHH@Z 00474d30 f   fltk:Fl_Text_Buffer.obj
 0001:00073d60       ?line_text@Fl_Text_Buffer@@QBEPADH@Z 00474d60 f   fltk:Fl_Text_Buffer.obj
 0001:00073dc0       ?move_gap@Fl_Text_Buffer@@IAEXH@Z 00474dc0 f   fltk:Fl_Text_Buffer.obj
 0001:00073e20       ?next_char@Fl_Text_Buffer@@QBEHH@Z 00474e20 f   fltk:Fl_Text_Buffer.obj
 0001:00073e80       ?next_char_clipped@Fl_Text_Buffer@@QBEHH@Z 00474e80 f   fltk:Fl_Text_Buffer.obj
 0001:00073ee0       ?outputfile@Fl_Text_Buffer@@QAEHPBDHHH@Z 00474ee0 f   fltk:Fl_Text_Buffer.obj
 0001:00074060       ?position@Fl_Text_Selection@@QBEHPAH0@Z 00475060 f   fltk:Fl_Text_Buffer.obj
 0001:00074090       ?prev_char@Fl_Text_Buffer@@QBEHH@Z 00475090 f   fltk:Fl_Text_Buffer.obj
 0001:000740b0       ?prev_char_clipped@Fl_Text_Buffer@@QBEHH@Z 004750b0 f   fltk:Fl_Text_Buffer.obj
 0001:00074100       ?reallocate_with_gap@Fl_Text_Buffer@@IAEXHH@Z 00475100 f   fltk:Fl_Text_Buffer.obj
 0001:000741d0       ?redisplay_selection@Fl_Text_Buffer@@IBEXPAVFl_Text_Selection@@0@Z 004751d0 f   fltk:Fl_Text_Buffer.obj
 0001:000742f0       ?remove@Fl_Text_Buffer@@QAEXHH@Z 004752f0 f   fltk:Fl_Text_Buffer.obj
 0001:000743c0       ?remove_@Fl_Text_Buffer@@IAEXHH@Z 004753c0 f   fltk:Fl_Text_Buffer.obj
 0001:00074570       ?remove_modify_callback@Fl_Text_Buffer@@QAEXP6AXHHHHPBDPAX@Z1@Z 00475570 f   fltk:Fl_Text_Buffer.obj
 0001:000746c0       ?remove_predelete_callback@Fl_Text_Buffer@@QAEXP6AXHHPAX@Z0@Z 004756c0 f   fltk:Fl_Text_Buffer.obj
 0001:00074800       ?remove_secondary_selection@Fl_Text_Buffer@@QAEXXZ 00475800 f   fltk:Fl_Text_Buffer.obj
 0001:00074820       ?remove_selection@Fl_Text_Buffer@@QAEXXZ 00475820 f   fltk:Fl_Text_Buffer.obj
 0001:00074840       ?remove_selection_@Fl_Text_Buffer@@IAEXPAVFl_Text_Selection@@@Z 00475840 f   fltk:Fl_Text_Buffer.obj
 0001:00074860       ?replace@Fl_Text_Buffer@@QAEXHHPBD@Z 00475860 f   fltk:Fl_Text_Buffer.obj
 0001:00074930       ?replace_secondary_selection@Fl_Text_Buffer@@QAEXPBD@Z 00475930 f   fltk:Fl_Text_Buffer.obj
 0001:00074980       ?replace_selection@Fl_Text_Buffer@@QAEXPBD@Z 00475980 f   fltk:Fl_Text_Buffer.obj
 0001:000749d0       ?replace_selection_@Fl_Text_Buffer@@IAEXPAVFl_Text_Selection@@PBD@Z 004759d0 f   fltk:Fl_Text_Buffer.obj
 0001:00074a20       ?rewind_lines@Fl_Text_Buffer@@QAEHHH@Z 00475a20 f   fltk:Fl_Text_Buffer.obj
 0001:00074aa0       ?search_backward@Fl_Text_Buffer@@QBEHHPBDPAHH@Z 00475aa0 f   fltk:Fl_Text_Buffer.obj
 0001:00074ca0       ?search_forward@Fl_Text_Buffer@@QBEHHPBDPAHH@Z 00475ca0 f   fltk:Fl_Text_Buffer.obj
 0001:00074f20       ?secondary_select@Fl_Text_Buffer@@QAEXHH@Z 00475f20 f   fltk:Fl_Text_Buffer.obj
 0001:00074f70       ?secondary_selection_position@Fl_Text_Buffer@@QAEHPAH0@Z 00475f70 f   fltk:Fl_Text_Buffer.obj
 0001:00074fa0       ?secondary_selection_text@Fl_Text_Buffer@@QAEPADXZ 00475fa0 f   fltk:Fl_Text_Buffer.obj
 0001:00074fd0       ?secondary_unselect@Fl_Text_Buffer@@QAEXXZ 00475fd0 f   fltk:Fl_Text_Buffer.obj
 0001:00075000       ?select@Fl_Text_Buffer@@QAEXHH@Z 00476000 f   fltk:Fl_Text_Buffer.obj
 0001:00075050       ?selection_position@Fl_Text_Buffer@@QAEHPAH0@Z 00476050 f   fltk:Fl_Text_Buffer.obj
 0001:00075080       ?selection_text@Fl_Text_Buffer@@QAEPADXZ 00476080 f   fltk:Fl_Text_Buffer.obj
 0001:000750b0       ?selection_text_@Fl_Text_Buffer@@IBEPADPAVFl_Text_Selection@@@Z 004760b0 f   fltk:Fl_Text_Buffer.obj
 0001:000750e0       ?set@Fl_Text_Selection@@QAEXHH@Z 004760e0 f   fltk:Fl_Text_Buffer.obj
 0001:00075110       ?skip_displayed_characters@Fl_Text_Buffer@@QAEHHH@Z 00476110 f   fltk:Fl_Text_Buffer.obj
 0001:000751b0       ?skip_lines@Fl_Text_Buffer@@QAEHHH@Z 004761b0 f   fltk:Fl_Text_Buffer.obj
 0001:00075220       ?tab_distance@Fl_Text_Buffer@@QAEXH@Z 00476220 f   fltk:Fl_Text_Buffer.obj
 0001:000752e0       ?text@Fl_Text_Buffer@@QAEXPBD@Z 004762e0 f   fltk:Fl_Text_Buffer.obj
 0001:00075410       ?text@Fl_Text_Buffer@@QBEPADXZ 00476410 f   fltk:Fl_Text_Buffer.obj
 0001:00075460       ?text_range@Fl_Text_Buffer@@QBEPADHH@Z 00476460 f   fltk:Fl_Text_Buffer.obj
 0001:00075560       ?undo@Fl_Text_Buffer@@QAEHPAH@Z 00476560 f   fltk:Fl_Text_Buffer.obj
 0001:000756e0       ?unhighlight@Fl_Text_Buffer@@QAEXXZ 004766e0 f   fltk:Fl_Text_Buffer.obj
 0001:00075710       ?unselect@Fl_Text_Buffer@@QAEXXZ 00476710 f   fltk:Fl_Text_Buffer.obj
 0001:00075740       ?update@Fl_Text_Selection@@QAEXHHH@Z 00476740 f   fltk:Fl_Text_Buffer.obj
 0001:000757d0       ?update_selections@Fl_Text_Buffer@@IAEXHHH@Z 004767d0 f   fltk:Fl_Text_Buffer.obj
 0001:00075820       ?utf8_align@Fl_Text_Buffer@@QBEHH@Z 00476820 f   fltk:Fl_Text_Buffer.obj
 0001:00075a30       ?word_end@Fl_Text_Buffer@@QBEHH@Z 00476a30 f   fltk:Fl_Text_Buffer.obj
 0001:00075b30       ?word_start@Fl_Text_Buffer@@QBEHH@Z 00476b30 f   fltk:Fl_Text_Buffer.obj
 0001:00075c70       ??0Fl_Scrollbar@@QAE@HHHHPBD@Z 00476c70 f   fltk:Fl_Scrollbar.obj
 0001:00075ce0       ??1Fl_Scrollbar@@UAE@XZ    00476ce0 f   fltk:Fl_Scrollbar.obj
 0001:00075d40       ??_GFl_Scrollbar@@UAEPAXI@Z 00476d40 f i fltk:Fl_Scrollbar.obj
 0001:00075d40       ??_EFl_Scrollbar@@UAEPAXI@Z 00476d40 f i fltk:Fl_Scrollbar.obj
 0001:00075dc0       ?draw@Fl_Scrollbar@@MAEXXZ 00476dc0 f   fltk:Fl_Scrollbar.obj
 0001:00076210       ?fl_polygon@@YAXHHHHHH@Z   00477210 f i fltk:Fl_Scrollbar.obj
 0001:00076240       ?fl_polygon@@YAXHHHHHHHH@Z 00477240 f i fltk:Fl_Scrollbar.obj
 0001:00076270       ?handle@Fl_Scrollbar@@UAEHH@Z 00477270 f   fltk:Fl_Scrollbar.obj
 0001:00076730       ?increment_cb@Fl_Scrollbar@@AAEXXZ 00477730 f   fltk:Fl_Scrollbar.obj
 0001:00076800       ?timeout_cb@Fl_Scrollbar@@CAXPAX@Z 00477800 f   fltk:Fl_Scrollbar.obj
 0001:00076830       ?fl_convert_pixmap@@YAHPBQBDPAEI@Z 00477830 f   fltk:fl_draw_pixmap.obj
 0001:00076bd0       ?fl_draw_pixmap@@YAHPBQADHHI@Z 00477bd0 f   fltk:fl_draw_pixmap.obj
 0001:00076be0       ?fl_draw_pixmap@@YAHPBQBDHHI@Z 00477be0 f   fltk:fl_draw_pixmap.obj
 0001:00076d50       ?fl_measure_pixmap@@YAHPBQADAAH1@Z 00477d50 f   fltk:fl_draw_pixmap.obj
 0001:00076db0       ?fl_measure_pixmap@@YAHPBQBDAAH1@Z 00477db0 f   fltk:fl_draw_pixmap.obj
 0001:00076ed0       ??0Fl_Menu_Window@@QAE@HHHHPBD@Z 00477ed0 f   fltk:Fl_Menu_Window.obj
 0001:00076f10       ??0Fl_Menu_Window@@QAE@HHPBD@Z 00477f10 f   fltk:Fl_Menu_Window.obj
 0001:00076f40       ??1Fl_Menu_Window@@UAE@XZ  00477f40 f   fltk:Fl_Menu_Window.obj
 0001:00076f90       ??_GFl_Menu_Window@@UAEPAXI@Z 00477f90 f i fltk:Fl_Menu_Window.obj
 0001:00076f90       ??_EFl_Menu_Window@@UAEPAXI@Z 00477f90 f i fltk:Fl_Menu_Window.obj
 0001:00077000       ?erase@Fl_Menu_Window@@QAEXXZ 00478000 f   fltk:Fl_Menu_Window.obj
 0001:00077010       ?flush@Fl_Menu_Window@@UAEXXZ 00478010 f   fltk:Fl_Menu_Window.obj
 0001:00077020       ?hide@Fl_Menu_Window@@UAEXXZ 00478020 f   fltk:Fl_Menu_Window.obj
 0001:00077030       ?show@Fl_Menu_Window@@UAEXXZ 00478030 f   fltk:Fl_Menu_Window.obj
 0001:00077040       ??1Fl_Overlay_Window@@UAE@XZ 00478040 f   fltk:Fl_Overlay_Window.obj
 0001:00077090       ?can_do_overlay@Fl_Overlay_Window@@QAEHXZ 00478090 f   fltk:Fl_Overlay_Window.obj
 0001:000770a0       ?flush@Fl_Overlay_Window@@UAEXXZ 004780a0 f   fltk:Fl_Overlay_Window.obj
 0001:000770e0       ?hide@Fl_Overlay_Window@@UAEXXZ 004780e0 f   fltk:Fl_Overlay_Window.obj
 0001:000770f0       ?redraw_overlay@Fl_Overlay_Window@@QAEXXZ 004780f0 f   fltk:Fl_Overlay_Window.obj
 0001:00077110       ?resize@Fl_Overlay_Window@@UAEXHHHH@Z 00478110 f   fltk:Fl_Overlay_Window.obj
 0001:00077150       ?show@Fl_Overlay_Window@@UAEXXZ 00478150 f   fltk:Fl_Overlay_Window.obj
 0001:00077170       ?fl_filename_match@@YAHPBD0@Z 00478170 f   fltk:filename_match.obj
 0001:00077470       ?fl_filename_free_list@@YAXPAPAPAUdirent@@H@Z 00478470 f   fltk:filename_list.obj
 0001:000774c0       ?fl_filename_list@@YAHPBDPAPAPAUdirent@@P6AHPAPAU1@2@Z@Z 004784c0 f   fltk:filename_list.obj
 0001:000774e0       _fl_alphasort              004784e0 f   fltk:filename_list.obj
 0001:00077520       _fl_casealphasort          00478520 f   fltk:filename_list.obj
 0001:00077620       ?fl_define_FL_PLASTIC_UP_BOX@@YA?AW4Fl_Boxtype@@XZ 00478620 f   fltk:fl_plastic.obj
 0001:000790c0       ?fl_define_FL_GTK_UP_BOX@@YA?AW4Fl_Boxtype@@XZ 0047a0c0 f   fltk:fl_gtk.obj
 0001:0007b740       ?fl_define_FL_GLEAM_UP_BOX@@YA?AW4Fl_Boxtype@@XZ 0047c740 f   fltk:fl_gleam.obj
 0001:0007bd90       ??0Fl_Tiled_Image@@QAE@PAVFl_Image@@HH@Z 0047cd90 f   fltk:Fl_Tiled_Image.obj
 0001:0007bde0       ??1Fl_Tiled_Image@@UAE@XZ  0047cde0 f   fltk:Fl_Tiled_Image.obj
 0001:0007be10       ??_EFl_Tiled_Image@@UAEPAXI@Z 0047ce10 f i fltk:Fl_Tiled_Image.obj
 0001:0007be10       ??_GFl_Tiled_Image@@UAEPAXI@Z 0047ce10 f i fltk:Fl_Tiled_Image.obj
 0001:0007be50       ?color_average@Fl_Tiled_Image@@UAEXIM@Z 0047ce50 f   fltk:Fl_Tiled_Image.obj
 0001:0007be90       ?copy@Fl_Tiled_Image@@UAEPAVFl_Image@@HH@Z 0047ce90 f   fltk:Fl_Tiled_Image.obj
 0001:0007bf10       ?desaturate@Fl_Tiled_Image@@UAEXXZ 0047cf10 f   fltk:Fl_Tiled_Image.obj
 0001:0007bf40       ?draw@Fl_Tiled_Image@@UAEXHHHHHH@Z 0047cf40 f   fltk:Fl_Tiled_Image.obj
 0001:0007c3c0       ?fl_define_FL_ROUND_UP_BOX@@YA?AW4Fl_Boxtype@@XZ 0047d3c0 f   fltk:fl_round_box.obj
 0001:0007c3f0       ?fl_round_down_box@@YAXHHHHI@Z 0047d3f0 f   fltk:fl_round_box.obj
 0001:0007cee0       ?fl_round_up_box@@YAXHHHHI@Z 0047dee0 f   fltk:fl_round_box.obj
 0001:0007d9d0       _XUtf8Tolower              0047e9d0 f   fltk:case.obj
 0001:0007dab0       _XUtf8Toupper              0047eab0 f   fltk:case.obj
 0001:0007dc60       _XUtf8IsNonSpacing         0047ec60 f   fltk:is_spacing.obj
 0001:00081420       ?fl_add_symbol@@YAHPBDP6AXI@ZH@Z 00482420 f   fltk:fl_symbols.obj
 0001:00081480       ?fl_draw_symbol@@YAHPBDHHHHI@Z 00482480 f   fltk:fl_symbols.obj
 0001:00082440       ??0Fl_XBM_Image@@QAE@PBD@Z 00483440 f   fltk:Fl_XBM_Image.obj
 0001:000826d0       ??_EFl_XBM_Image@@UAEPAXI@Z 004836d0 f i fltk:Fl_XBM_Image.obj
 0001:000826d0       ??_GFl_XBM_Image@@UAEPAXI@Z 004836d0 f i fltk:Fl_XBM_Image.obj
 0001:00082700       ??0Fl_XPM_Image@@QAE@PBD@Z 00483700 f   fltk:Fl_XPM_Image.obj
 0001:00082c00       ??_GFl_XPM_Image@@UAEPAXI@Z 00483c00 f i fltk:Fl_XPM_Image.obj
 0001:00082c00       ??_EFl_XPM_Image@@UAEPAXI@Z 00483c00 f i fltk:Fl_XPM_Image.obj
 0001:00082c30       ??0Fl_Single_Window@@QAE@HHHHPBD@Z 00483c30 f   fltk:Fl_Single_Window.obj
 0001:00082c60       ??0Fl_Single_Window@@QAE@HHPBD@Z 00483c60 f   fltk:Fl_Single_Window.obj
 0001:00082c90       ??_GFl_Single_Window@@UAEPAXI@Z 00483c90 f i fltk:Fl_Single_Window.obj
 0001:00082c90       ??_EFl_Single_Window@@UAEPAXI@Z 00483c90 f i fltk:Fl_Single_Window.obj
 0001:00082cc0       ?flush@Fl_Single_Window@@UAEXXZ 00483cc0 f   fltk:Fl_Single_Window.obj
 0001:00082cd0       ?show@Fl_Single_Window@@UAEXXZ 00483cd0 f   fltk:Fl_Single_Window.obj
 0001:00082ce0       _fl_scandir                00483ce0 f   fltk:scandir.obj
 0001:000830b0       ??1Fl_Gl_Window@@UAE@XZ    004840b0 f   fltk_gl:Fl_Gl_Window.obj
 0001:00083130       ?can_do@Fl_Gl_Window@@CAHHPBH@Z 00484130 f   fltk_gl:Fl_Gl_Window.obj
 0001:00083150       ?context@Fl_Gl_Window@@QAEXPAXH@Z 00484150 f   fltk_gl:Fl_Gl_Window.obj
 0001:000831b0       ?draw@Fl_Gl_Window@@MAEXXZ 004841b0 f   fltk_gl:Fl_Gl_Window.obj
 0001:000831c0       ?draw_overlay@Fl_Gl_Window@@EAEXXZ 004841c0 f   fltk_gl:Fl_Gl_Window.obj
 0001:000831d0       ?flush@Fl_Gl_Window@@UAEXXZ 004841d0 f   fltk_gl:Fl_Gl_Window.obj
 0001:00083520       ?gl_plugin_linkage@Fl_Gl_Window@@CAHXZ 00484520 f   fltk_gl:Fl_Gl_Window.obj
 0001:00083530       ?handle@Fl_Gl_Window@@UAEHH@Z 00484530 f   fltk_gl:Fl_Gl_Window.obj
 0001:00083540       ?hide@Fl_Gl_Window@@UAEXXZ 00484540 f   fltk_gl:Fl_Gl_Window.obj
 0001:00083580       ?init@Fl_Gl_Window@@AAEXXZ 00484580 f   fltk_gl:Fl_Gl_Window.obj
 0001:000835d0       ?invalidate@Fl_Gl_Window@@QAEXXZ 004845d0 f   fltk_gl:Fl_Gl_Window.obj
 0001:000835e0       ?make_current@Fl_Gl_Window@@QAEXXZ 004845e0 f   fltk_gl:Fl_Gl_Window.obj
 0001:00083690       ?mode@Fl_Gl_Window@@AAEHHPBH@Z 00484690 f   fltk_gl:Fl_Gl_Window.obj
 0001:00083740       ?ortho@Fl_Gl_Window@@QAEXXZ 00484740 f   fltk_gl:Fl_Gl_Window.obj
 0001:000837e0       ?resize@Fl_Gl_Window@@UAEXHHHH@Z 004847e0 f   fltk_gl:Fl_Gl_Window.obj
 0001:00083810       ?show@Fl_Gl_Window@@UAEXXZ 00484810 f   fltk_gl:Fl_Gl_Window.obj
 0001:000838a0       ?swap_buffers@Fl_Gl_Window@@QAEXXZ 004848a0 f   fltk_gl:Fl_Gl_Window.obj
 0001:00083990       ?find@Fl_Gl_Choice@@SAPAV1@HPBH@Z 00484990 f   fltk_gl:Fl_Gl_Choice.obj
 0001:00083b60       ?fl_create_gl_context@@YAPAUHGLRC__@@PAVFl_Window@@PBVFl_Gl_Choice@@H@Z 00484b60 f   fltk_gl:Fl_Gl_Choice.obj
 0001:00083c00       ?fl_delete_gl_context@@YAXPAUHGLRC__@@@Z 00484c00 f   fltk_gl:Fl_Gl_Choice.obj
 0001:00083c40       ?fl_no_gl_context@@YAXXZ   00484c40 f   fltk_gl:Fl_Gl_Choice.obj
 0001:00083c60       ?fl_set_gl_context@@YAXPAVFl_Window@@PAUHGLRC__@@@Z 00484c60 f   fltk_gl:Fl_Gl_Choice.obj
 0001:00083ca0       ??_GFl_Device_Plugin@@UAEPAXI@Z 00484ca0 f i fltk_gl:Fl_Gl_Device_Plugin.obj
 0001:00083ca0       ??_EFl_Device_Plugin@@UAEPAXI@Z 00484ca0 f i fltk_gl:Fl_Gl_Device_Plugin.obj
 0001:00083cd0       ??_GFl_Gl_Device_Plugin@@UAEPAXI@Z 00484cd0 f i fltk_gl:Fl_Gl_Device_Plugin.obj
 0001:00083cd0       ??_EFl_Gl_Device_Plugin@@UAEPAXI@Z 00484cd0 f i fltk_gl:Fl_Gl_Device_Plugin.obj
 0001:00083d00       ?klass@Fl_Device_Plugin@@UAEPBDXZ 00484d00 f i fltk_gl:Fl_Gl_Device_Plugin.obj
 0001:00083d10       ?name@Fl_Gl_Device_Plugin@@UAEPBDXZ 00484d10 f i fltk_gl:Fl_Gl_Device_Plugin.obj
 0001:00083d20       ?print@Fl_Gl_Device_Plugin@@UAEHPAVFl_Widget@@HHH@Z 00484d20 f i fltk_gl:Fl_Gl_Device_Plugin.obj
 0001:00083e10       ?gl_color@@YAXI@Z          00484e10 f   fltk_gl:gl_draw.obj
 0001:00083e40       ?gl_descent@@YAHXZ         00484e40 f   fltk_gl:gl_draw.obj
 0001:00083e50       ?gl_draw@@YAXPBD@Z         00484e50 f   fltk_gl:gl_draw.obj
 0001:00083e80       ?gl_draw@@YAXPBDH@Z        00484e80 f   fltk_gl:gl_draw.obj
 0001:00083f80       ?gl_draw@@YAXPBDHH@Z       00484f80 f   fltk_gl:gl_draw.obj
 0001:00083fc0       ?gl_draw@@YAXPBDHHH@Z      00484fc0 f   fltk_gl:gl_draw.obj
 0001:00083fe0       ?gl_draw@@YAXPBDHHHHI@Z    00484fe0 f   fltk_gl:gl_draw.obj
 0001:00084010       ?gl_draw@@YAXPBDHMM@Z      00485010 f   fltk_gl:gl_draw.obj
 0001:00084050       ?gl_draw@@YAXPBDMM@Z       00485050 f   fltk_gl:gl_draw.obj
 0001:000840a0       ?gl_draw_image@@YAXPBEHHHHHH@Z 004850a0 f   fltk_gl:gl_draw.obj
 0001:00084130       ?gl_font@@YAXHH@Z          00485130 f   fltk_gl:gl_draw.obj
 0001:00084190       ?gl_height@@YAHXZ          00485190 f   fltk_gl:gl_draw.obj
 0001:000841a0       ?gl_measure@@YAXPBDAAH1@Z  004851a0 f   fltk_gl:gl_draw.obj
 0001:000841c0       ?gl_rect@@YAXHHHH@Z        004851c0 f   fltk_gl:gl_draw.obj
 0001:00084230       ?gl_remove_displaylist_fonts@@YAXXZ 00485230 f   fltk_gl:gl_draw.obj
 0001:000842e0       ?gl_width@@YANE@Z          004852e0 f   fltk_gl:gl_draw.obj
 0001:00084300       ?gl_width@@YANPBD@Z        00485300 f   fltk_gl:gl_draw.obj
 0001:00084310       ?gl_width@@YANPBDH@Z       00485310 f   fltk_gl:gl_draw.obj
 0001:0008432c       _glBegin@4                 0048532c f   opengl32:OPENGL32.dll
 0001:00084332       _glBindTexture@8           00485332 f   opengl32:OPENGL32.dll
 0001:00084338       _glBitmap@28               00485338 f   opengl32:OPENGL32.dll
 0001:0008433e       _glBlendFunc@8             0048533e f   opengl32:OPENGL32.dll
 0001:00084344       _glCallLists@12            00485344 f   opengl32:OPENGL32.dll
 0001:0008434a       _glClear@4                 0048534a f   opengl32:OPENGL32.dll
 0001:00084350       _glColor3f@12              00485350 f   opengl32:OPENGL32.dll
 0001:00084356       _glColor4f@16              00485356 f   opengl32:OPENGL32.dll
 0001:0008435c       _glDisable@4               0048535c f   opengl32:OPENGL32.dll
 0001:00084362       _glEnable@4                00485362 f   opengl32:OPENGL32.dll
 0001:00084368       _glEnd@0                   00485368 f   opengl32:OPENGL32.dll
 0001:0008436e       _glEndList@0               0048536e f   opengl32:OPENGL32.dll
 0001:00084374       _glGenLists@4              00485374 f   opengl32:OPENGL32.dll
 0001:0008437a       _glGenTextures@8           0048537a f   opengl32:OPENGL32.dll
 0001:00084380       _glGetError@0              00485380 f   opengl32:OPENGL32.dll
 0001:00084386       _glLightModelfv@8          00485386 f   opengl32:OPENGL32.dll
 0001:0008438c       _glLightModeli@8           0048538c f   opengl32:OPENGL32.dll
 0001:00084392       _glLightfv@12              00485392 f   opengl32:OPENGL32.dll
 0001:00084398       _glLineStipple@8           00485398 f   opengl32:OPENGL32.dll
 0001:0008439e       _glListBase@4              0048539e f   opengl32:OPENGL32.dll
 0001:000843a4       _glLoadIdentity@0          004853a4 f   opengl32:OPENGL32.dll
 0001:000843aa       _glMaterialfv@12           004853aa f   opengl32:OPENGL32.dll
 0001:000843b0       _glMatrixMode@4            004853b0 f   opengl32:OPENGL32.dll
 0001:000843b6       _glMultMatrixd@4           004853b6 f   opengl32:OPENGL32.dll
 0001:000843bc       _glNewList@8               004853bc f   opengl32:OPENGL32.dll
 0001:000843c2       _glPixelStorei@8           004853c2 f   opengl32:OPENGL32.dll
 0001:000843c8       _glPolygonMode@8           004853c8 f   opengl32:OPENGL32.dll
 0001:000843ce       _glPopAttrib@0             004853ce f   opengl32:OPENGL32.dll
 0001:000843d4       _glPopMatrix@0             004853d4 f   opengl32:OPENGL32.dll
 0001:000843da       _glPushAttrib@4            004853da f   opengl32:OPENGL32.dll
 0001:000843e0       _glPushMatrix@0            004853e0 f   opengl32:OPENGL32.dll
 0001:000843e6       _glRasterPos3f@12          004853e6 f   opengl32:OPENGL32.dll
 0001:000843ec       _glShadeModel@4            004853ec f   opengl32:OPENGL32.dll
 0001:000843f2       _glTexCoord2f@8            004853f2 f   opengl32:OPENGL32.dll
 0001:000843f8       _glTexParameteri@12        004853f8 f   opengl32:OPENGL32.dll
 0001:000843fe       _glTranslated@24           004853fe f   opengl32:OPENGL32.dll
 0001:00084404       _glTranslatef@12           00485404 f   opengl32:OPENGL32.dll
 0001:0008440a       _glVertex3d@24             0048540a f   opengl32:OPENGL32.dll
 0001:00084410       _glVertex3dv@4             00485410 f   opengl32:OPENGL32.dll
 0001:00084416       _glViewport@16             00485416 f   opengl32:OPENGL32.dll
 0001:0008441c       _glCallList@4              0048541c f   opengl32:OPENGL32.dll
 0001:00084422       _glColor3fv@4              00485422 f   opengl32:OPENGL32.dll
 0001:00084428       _glGetFloatv@8             00485428 f   opengl32:OPENGL32.dll
 0001:0008442e       _glGetIntegerv@8           0048542e f   opengl32:OPENGL32.dll
 0001:00084434       _glLightf@12               00485434 f   opengl32:OPENGL32.dll
 0001:0008443a       _glLoadMatrixf@4           0048543a f   opengl32:OPENGL32.dll
 0001:00084440       _glMaterialf@12            00485440 f   opengl32:OPENGL32.dll
 0001:00084446       _glNormal3d@24             00485446 f   opengl32:OPENGL32.dll
 0001:0008444c       _glNormal3dv@4             0048544c f   opengl32:OPENGL32.dll
 0001:00084452       _glRotated@32              00485452 f   opengl32:OPENGL32.dll
 0001:00084458       _glScaled@24               00485458 f   opengl32:OPENGL32.dll
 0001:0008445e       _glClearColor@16           0048545e f   opengl32:OPENGL32.dll
 0001:00084464       _glDrawBuffer@4            00485464 f   opengl32:OPENGL32.dll
 0001:0008446a       _glDrawPixels@20           0048546a f   opengl32:OPENGL32.dll
 0001:00084470       _glFlush@0                 00485470 f   opengl32:OPENGL32.dll
 0001:00084476       _glRasterPos2i@8           00485476 f   opengl32:OPENGL32.dll
 0001:0008447c       _glCopyPixels@20           0048547c f   opengl32:OPENGL32.dll
 0001:00084482       _glOrtho@48                00485482 f   opengl32:OPENGL32.dll
 0001:00084488       _glReadBuffer@4            00485488 f   opengl32:OPENGL32.dll
 0001:0008448e       _wglCreateContext@4        0048548e f   opengl32:OPENGL32.dll
 0001:00084494       _wglCreateLayerContext@8   00485494 f   opengl32:OPENGL32.dll
 0001:0008449a       _wglDeleteContext@4        0048549a f   opengl32:OPENGL32.dll
 0001:000844a0       _wglMakeCurrent@8          004854a0 f   opengl32:OPENGL32.dll
 0001:000844a6       _wglShareLists@8           004854a6 f   opengl32:OPENGL32.dll
 0001:000844ac       _glPopClientAttrib@0       004854ac f   opengl32:OPENGL32.dll
 0001:000844b2       _glPushClientAttrib@4      004854b2 f   opengl32:OPENGL32.dll
 0001:000844b8       _glReadPixels@28           004854b8 f   opengl32:OPENGL32.dll
 0001:000844be       _wglUseFontBitmapsW@16     004854be f   opengl32:OPENGL32.dll
 0001:000844c4       _glColor3ub@12             004854c4 f   opengl32:OPENGL32.dll
 0001:000844ca       _glDeleteLists@8           004854ca f   opengl32:OPENGL32.dll
 0001:000844d0       _glRasterPos2f@8           004854d0 f   opengl32:OPENGL32.dll
 0001:000844d6       _glVertex2i@8              004854d6 f   opengl32:OPENGL32.dll
 0001:000844dc       _gluErrorString@4          004854dc f   glu32:GLU32.dll
 0001:000844e2       _gluPerspective@32         004854e2 f   glu32:GLU32.dll
 0001:000844e8       _gluBuild2DMipmaps@28      004854e8 f   glu32:GLU32.dll
 0001:000844ee       _gluNewQuadric@0           004854ee f   glu32:GLU32.dll
 0001:000844f4       _gluDeleteQuadric@4        004854f4 f   glu32:GLU32.dll
 0001:000844fa       _gluQuadricTexture@8       004854fa f   glu32:GLU32.dll
 0001:00084500       _gluQuadricOrientation@8   00485500 f   glu32:GLU32.dll
 0001:00084506       _gluQuadricDrawStyle@8     00485506 f   glu32:GLU32.dll
 0001:0008450c       _gluCylinder@36            0048550c f   glu32:GLU32.dll
 0001:00084512       _gluDisk@28                00485512 f   glu32:GLU32.dll
 0001:00084518       _gluSphere@20              00485518 f   glu32:GLU32.dll
 0001:0008451e       _gluLookAt@72              0048551e f   glu32:GLU32.dll
 0001:00084524       _CloseHandle@4             00485524 f   kernel32:KERNEL32.dll
 0001:0008452a       _SetEvent@4                0048552a f   kernel32:KERNEL32.dll
 0001:00084530       _ReleaseMutex@4            00485530 f   kernel32:KERNEL32.dll
 0001:00084536       _WaitForSingleObject@8     00485536 f   kernel32:KERNEL32.dll
 0001:0008453c       _CreateMutexA@12           0048553c f   kernel32:KERNEL32.dll
 0001:00084542       _CreateEventA@16           00485542 f   kernel32:KERNEL32.dll
 0001:00084548       _Sleep@4                   00485548 f   kernel32:KERNEL32.dll
 0001:0008454e       _CreateThread@24           0048554e f   kernel32:KERNEL32.dll
 0001:00084554       _TerminateThread@8         00485554 f   kernel32:KERNEL32.dll
 0001:0008455a       _CreateProcessA@40         0048555a f   kernel32:KERNEL32.dll
 0001:00084560       _GetSystemTime@4           00485560 f   kernel32:KERNEL32.dll
 0001:00084566       _GetStartupInfoA@4         00485566 f   kernel32:KERNEL32.dll
 0001:0008456c       _GetModuleHandleA@4        0048556c f   kernel32:KERNEL32.dll
 0001:00084572       _GetProcAddress@8          00485572 f   kernel32:KERNEL32.dll
 0001:00084578       _GlobalAlloc@8             00485578 f   kernel32:KERNEL32.dll
 0001:0008457e       _GlobalLock@4              0048557e f   kernel32:KERNEL32.dll
 0001:00084584       _GlobalUnlock@4            00485584 f   kernel32:KERNEL32.dll
 0001:0008458a       _LoadLibraryA@4            0048558a f   kernel32:KERNEL32.dll
 0001:00084590       _GetLocaleInfoA@16         00485590 f   kernel32:KERNEL32.dll
 0001:00084596       _GetLastError@0            00485596 f   kernel32:KERNEL32.dll
 0001:0008459c       _MultiByteToWideChar@24    0048559c f   kernel32:KERNEL32.dll
 0001:000845a2       _WideCharToMultiByte@32    004855a2 f   kernel32:KERNEL32.dll
 0001:000845a8       _GetACP@0                  004855a8 f   kernel32:KERNEL32.dll
 0001:000845ae       _InitializeCriticalSection@4 004855ae f   kernel32:KERNEL32.dll
 0001:000845b4       _EnterCriticalSection@4    004855b4 f   kernel32:KERNEL32.dll
 0001:000845ba       _LeaveCriticalSection@4    004855ba f   kernel32:KERNEL32.dll
 0001:000845c0       _GetCurrentThreadId@0      004855c0 f   kernel32:KERNEL32.dll
 0001:000845c6       _GetComputerNameA@8        004855c6 f   kernel32:KERNEL32.dll
 0001:000845cc       _GetLogicalDrives@0        004855cc f   kernel32:KERNEL32.dll
 0001:000845d2       _FindClose@4               004855d2 f   kernel32:KERNEL32.dll
 0001:000845d8       _FindFirstFileW@8          004855d8 f   kernel32:KERNEL32.dll
 0001:000845de       _FindNextFileW@8           004855de f   kernel32:KERNEL32.dll
 0001:000845e4       _GetFileAttributesA@4      004855e4 f   kernel32:KERNEL32.dll
 0001:000845ea       _GetMessageA@16            004855ea f   user32:USER32.dll
 0001:000845f0       _DispatchMessageA@4        004855f0 f   user32:USER32.dll
 0001:000845f6       _PeekMessageA@20           004855f6 f   user32:USER32.dll
 0001:000845fc       _DefWindowProcA@16         004855fc f   user32:USER32.dll
 0001:00084602       _CreateWindowExA@48        00485602 f   user32:USER32.dll
 0001:00084608       _DestroyWindow@4           00485608 f   user32:USER32.dll
 0001:0008460e       _ShowWindow@8              0048560e f   user32:USER32.dll
 0001:00084614       _SetWindowPos@28           00485614 f   user32:USER32.dll
 0001:0008461a       _SetForegroundWindow@4     0048561a f   user32:USER32.dll
 0001:00084620       _GetDC@4                   00485620 f   user32:USER32.dll
 0001:00084626       _GetWindowRect@8           00485626 f   user32:USER32.dll
 0001:0008462c       _AdjustWindowRect@12       0048562c f   user32:USER32.dll
 0001:00084632       _GetWindowLongA@8          00485632 f   user32:USER32.dll
 0001:00084638       _SetWindowLongA@12         00485638 f   user32:USER32.dll
 0001:0008463e       _ChangeDisplaySettingsA@8  0048563e f   user32:USER32.dll
 0001:00084644       _EnumDisplaySettingsA@12   00485644 f   user32:USER32.dll
 0001:0008464a       _GetKeyboardLayout@4       0048564a f   user32:USER32.dll
 0001:00084650       _RegisterWindowMessageW@4  00485650 f   user32:USER32.dll
 0001:00084656       _TranslateMessage@4        00485656 f   user32:USER32.dll
 0001:0008465c       _DispatchMessageW@4        0048565c f   user32:USER32.dll
 0001:00084662       _PeekMessageW@20           00485662 f   user32:USER32.dll
 0001:00084668       _SendMessageA@16           00485668 f   user32:USER32.dll
 0001:0008466e       _PostMessageA@16           0048566e f   user32:USER32.dll
 0001:00084674       _DefWindowProcW@16         00485674 f   user32:USER32.dll
 0001:0008467a       _RegisterClassExA@4        0048567a f   user32:USER32.dll
 0001:00084680       _RegisterClassExW@4        00485680 f   user32:USER32.dll
 0001:00084686       _CreateWindowExW@48        00485686 f   user32:USER32.dll
 0001:0008468c       _IsWindow@4                0048568c f   user32:USER32.dll
 0001:00084692       _OpenIcon@4                00485692 f   user32:USER32.dll
 0001:00084698       _IsIconic@4                00485698 f   user32:USER32.dll
 0001:0008469e       _BringWindowToTop@4        0048569e f   user32:USER32.dll
 0001:000846a4       _OpenClipboard@4           004856a4 f   user32:USER32.dll
 0001:000846aa       _CloseClipboard@0          004856aa f   user32:USER32.dll
 0001:000846b0       _GetClipboardOwner@0       004856b0 f   user32:USER32.dll
 0001:000846b6       _SetClipboardViewer@4      004856b6 f   user32:USER32.dll
 0001:000846bc       _ChangeClipboardChain@8    004856bc f   user32:USER32.dll
 0001:000846c2       _SetClipboardData@8        004856c2 f   user32:USER32.dll
 0001:000846c8       _GetClipboardData@4        004856c8 f   user32:USER32.dll
 0001:000846ce       _EmptyClipboard@0          004856ce f   user32:USER32.dll
 0001:000846d4       _IsClipboardFormatAvailable@4 004856d4 f   user32:USER32.dll
 0001:000846da       _SetFocus@4                004856da f   user32:USER32.dll
 0001:000846e0       _GetKeyState@4             004856e0 f   user32:USER32.dll
 0001:000846e6       _GetAsyncKeyState@4        004856e6 f   user32:USER32.dll
 0001:000846ec       _SetCapture@4              004856ec f   user32:USER32.dll
 0001:000846f2       _ReleaseCapture@0          004856f2 f   user32:USER32.dll
 0001:000846f8       _MsgWaitForMultipleObjects@20 004856f8 f   user32:USER32.dll
 0001:000846fe       _SetTimer@16               004856fe f   user32:USER32.dll
 0001:00084704       _KillTimer@8               00485704 f   user32:USER32.dll
 0001:0008470a       _GetSystemMetrics@4        0048570a f   user32:USER32.dll
 0001:00084710       _GetForegroundWindow@0     00485710 f   user32:USER32.dll
 0001:00084716       _ReleaseDC@8               00485716 f   user32:USER32.dll
 0001:0008471c       _GetUpdateRgn@12           0048571c f   user32:USER32.dll
 0001:00084722       _InvalidateRect@12         00485722 f   user32:USER32.dll
 0001:00084728       _ValidateRgn@8             00485728 f   user32:USER32.dll
 0001:0008472e       _SetWindowTextW@8          0048572e f   user32:USER32.dll
 0001:00084734       _AdjustWindowRectEx@16     00485734 f   user32:USER32.dll
 0001:0008473a       _SetCursor@4               0048573a f   user32:USER32.dll
 0001:00084740       _GetCursorPos@4            00485740 f   user32:USER32.dll
 0001:00084746       _ClientToScreen@8          00485746 f   user32:USER32.dll
 0001:0008474c       _MapWindowPoints@16        0048574c f   user32:USER32.dll
 0001:00084752       _GetParent@4               00485752 f   user32:USER32.dll
 0001:00084758       _GetWindow@8               00485758 f   user32:USER32.dll
 0001:0008475e       _LoadCursorA@8             0048575e f   user32:USER32.dll
 0001:00084764       _LoadIconA@8               00485764 f   user32:USER32.dll
 0001:0008476a       _DestroyIcon@4             0048576a f   user32:USER32.dll
 0001:00084770       _CreateIconIndirect@4      00485770 f   user32:USER32.dll
 0001:00084776       _CopyIcon@4                00485776 f   user32:USER32.dll
 0001:0008477c       _SystemParametersInfoA@16  0048577c f   user32:USER32.dll
 0001:00084782       _MessageBeep@4             00485782 f   user32:USER32.dll
 0001:00084788       _PostThreadMessageA@16     00485788 f   user32:USER32.dll
 0001:0008478e       _FillRect@12               0048578e f   user32:USER32.dll
 0001:00084794       _GetSysColor@4             00485794 f   user32:USER32.dll
 0001:0008479a       _MessageBoxA@16            0048579a f   user32:USER32.dll
 0001:000847a0       _WindowFromPoint@8         004857a0 f   user32:USER32.dll
 0001:000847a6       _SetWindowRgn@12           004857a6 f   user32:USER32.dll
 0001:000847ac       _SetRect@20                004857ac f   user32:USER32.dll
 0001:000847b2       _SetActiveWindow@4         004857b2 f   user32:USER32.dll
 0001:000847b8       _GetDCEx@12                004857b8 f   user32:USER32.dll
 0001:000847be       _SetDIBitsToDevice@48      004857be f   gdi32:GDI32.dll
 0001:000847c4       _CombineRgn@16             004857c4 f   gdi32:GDI32.dll
 0001:000847ca       _CreateBitmap@20           004857ca f   gdi32:GDI32.dll
 0001:000847d0       _CreateCompatibleBitmap@12 004857d0 f   gdi32:GDI32.dll
 0001:000847d6       _CreateRectRgn@16          004857d6 f   gdi32:GDI32.dll
 0001:000847dc       _DeleteDC@4                004857dc f   gdi32:GDI32.dll
 0001:000847e2       _DeleteObject@4            004857e2 f   gdi32:GDI32.dll
 0001:000847e8       _GetDeviceCaps@8           004857e8 f   gdi32:GDI32.dll
 0001:000847ee       _RestoreDC@8               004857ee f   gdi32:GDI32.dll
 0001:000847f4       _SaveDC@4                  004857f4 f   gdi32:GDI32.dll
 0001:000847fa       _SetBkMode@8               004857fa f   gdi32:GDI32.dll
 0001:00084800       _SetTextAlign@8            00485800 f   gdi32:GDI32.dll
 0001:00084806       _UpdateColors@4            00485806 f   gdi32:GDI32.dll
 0001:0008480c       _GetEnhMetaFileHeader@12   0048580c f   gdi32:GDI32.dll
 0001:00084812       _PlayEnhMetaFile@12        00485812 f   gdi32:GDI32.dll
 0001:00084818       _CreateDIBSection@24       00485818 f   gdi32:GDI32.dll
 0001:0008481e       _CreatePolygonRgn@12       0048581e f   gdi32:GDI32.dll
 0001:00084824       _LPtoDP@12                 00485824 f   gdi32:GDI32.dll
 0001:0008482a       _GdiFlush@0                0048582a f   gdi32:GDI32.dll
 0001:00084830       _CreateDCA@16              00485830 f   gdi32:GDI32.dll
 0001:00084836       _BitBlt@36                 00485836 f   gdi32:GDI32.dll
 0001:0008483c       _CreateCompatibleDC@4      0048583c f   gdi32:GDI32.dll
 0001:00084842       _SelectObject@8            00485842 f   gdi32:GDI32.dll
 0001:00084848       _CreatePalette@4           00485848 f   gdi32:GDI32.dll
 0001:0008484e       _CreatePen@12              0048584e f   gdi32:GDI32.dll
 0001:00084854       _CreateSolidBrush@4        00485854 f   gdi32:GDI32.dll
 0001:0008485a       _GetStockObject@4          0048585a f   gdi32:GDI32.dll
 0001:00084860       _RealizePalette@4          00485860 f   gdi32:GDI32.dll
 0001:00084866       _SelectPalette@12          00485866 f   gdi32:GDI32.dll
 0001:0008486c       _SetPixel@16               0048586c f   gdi32:GDI32.dll
 0001:00084872       _EqualRgn@8                00485872 f   gdi32:GDI32.dll
 0001:00084878       _GetRgnBox@8               00485878 f   gdi32:GDI32.dll
 0001:0008487e       _LineTo@12                 0048587e f   gdi32:GDI32.dll
 0001:00084884       _RectInRegion@8            00485884 f   gdi32:GDI32.dll
 0001:0008488a       _SelectClipRgn@8           0048588a f   gdi32:GDI32.dll
 0001:00084890       _MoveToEx@16               00485890 f   gdi32:GDI32.dll
 0001:00084896       _DPtoLP@12                 00485896 f   gdi32:GDI32.dll
 0001:0008489c       _Polygon@12                0048589c f   gdi32:GDI32.dll
 0001:000848a2       _ExtCreatePen@20           004858a2 f   gdi32:GDI32.dll
 0001:000848a8       _Arc@36                    004858a8 f   gdi32:GDI32.dll
 0001:000848ae       _Pie@36                    004858ae f   gdi32:GDI32.dll
 0001:000848b4       _PolyPolygon@16            004858b4 f   gdi32:GDI32.dll
 0001:000848ba       _Polyline@12               004858ba f   gdi32:GDI32.dll
 0001:000848c0       _CreateFontA@56            004858c0 f   gdi32:GDI32.dll
 0001:000848c6       _GetGlyphOutlineW@28       004858c6 f   gdi32:GDI32.dll
 0001:000848cc       _GetTextExtentPoint32W@16  004858cc f   gdi32:GDI32.dll
 0001:000848d2       _GetCharacterPlacementW@24 004858d2 f   gdi32:GDI32.dll
 0001:000848d8       _SetTextColor@8            004858d8 f   gdi32:GDI32.dll
 0001:000848de       _GetTextMetricsA@8         004858de f   gdi32:GDI32.dll
 0001:000848e4       _TextOutW@20               004858e4 f   gdi32:GDI32.dll
 0001:000848ea       _StretchDIBits@52          004858ea f   gdi32:GDI32.dll
 0001:000848f0       _GetDIBits@28              004858f0 f   gdi32:GDI32.dll
 0001:000848f6       _ExtCreateRegion@12        004858f6 f   gdi32:GDI32.dll
 0001:000848fc       _SwapBuffers@4             004858fc f   gdi32:GDI32.dll
 0001:00084902       _DescribePixelFormat@16    00485902 f   gdi32:GDI32.dll
 0001:00084908       _SetPixelFormat@12         00485908 f   gdi32:GDI32.dll
 0001:0008490e       _RegCloseKey@4             0048590e f   advapi32:ADVAPI32.dll
 0001:00084914       _RegOpenKeyW@12            00485914 f   advapi32:ADVAPI32.dll
 0001:0008491a       _RegQueryValueExW@24       0048591a f   advapi32:ADVAPI32.dll
 0001:00084920       _DragQueryFileW@16         00485920 f   shell32:SHELL32.dll
 0001:00084926       _OleInitialize@4           00485926 f   ole32:ole32.dll
 0001:0008492c       _OleUninitialize@0         0048592c f   ole32:ole32.dll
 0001:00084932       _RegisterDragDrop@8        00485932 f   ole32:ole32.dll
 0001:00084938       _DoDragDrop@16             00485938 f   ole32:ole32.dll
 0001:0008493e       _ReleaseStgMedium@4        0048593e f   ole32:ole32.dll
 0001:00084944       ??2@YAPAXI@Z               00485944 f   MSVCRT:new_scalar.obj
 0001:00084977       ??3@YAXPAXI@Z              00485977 f   MSVCRT:delete_scalar_size.obj
 0001:00084985       @__security_check_cookie@4 00485985 f   MSVCRT:_secchk_.obj
 0001:00084996       ??1type_info@@UAE@XZ       00485996 f   MSVCRT:std_type_info_static.obj
 0001:0008499d       ??_Gtype_info@@UAEPAXI@Z   0048599d f i MSVCRT:std_type_info_static.obj
 0001:0008499d       ??_Etype_info@@UAEPAXI@Z   0048599d f i MSVCRT:std_type_info_static.obj
 0001:000849c0       ??3@YAXPAX@Z               004859c0 f   MSVCRT:delete_scalar.obj
 0001:000849c5       ??_U@YAPAXI@Z              004859c5 f   MSVCRT:new_array.obj
 0001:000849ce       ??_V@YAXPAX@Z              004859ce f   MSVCRT:delete_array.obj
 0001:000849d3       ??$__crt_fast_decode_pointer@PAP6AXXZ@@YAPAP6AXXZQAP6AXXZ@Z 004859d3 f i MSVCRT:utility.obj
 0001:000849e7       ??$__crt_fast_encode_pointer@PAP6AXXZ@@YAPAP6AXXZQAP6AXXZ@Z 004859e7 f i MSVCRT:utility.obj
 0001:00084a04       ?__crt_rotate_pointer_value@@YAIIH@Z 00485a04 f i MSVCRT:utility.obj
 0001:00084a11       ?configure_argv@__scrt_narrow_argv_policy@@SAHXZ 00485a11 f i MSVCRT:utility.obj
 0001:00084a95       _NtCurrentTeb              00485a95 f i MSVCRT:utility.obj
 0001:00084a9c       ___scrt_acquire_startup_lock 00485a9c f   MSVCRT:utility.obj
 0001:00084ad1       ___scrt_dllmain_after_initialize_c 00485ad1 f   MSVCRT:utility.obj
 0001:00084afc       ___scrt_dllmain_before_initialize_c 00485afc f   MSVCRT:utility.obj
 0001:00084b0a       ___scrt_dllmain_crt_thread_attach 00485b0a f   MSVCRT:utility.obj
 0001:00084b29       ___scrt_dllmain_crt_thread_detach 00485b29 f   MSVCRT:utility.obj
 0001:00084b36       ___scrt_dllmain_exception_filter 00485b36 f   MSVCRT:utility.obj
 0001:00084b69       ___scrt_dllmain_uninitialize_c 00485b69 f   MSVCRT:utility.obj
 0001:00084b8c       ___scrt_dllmain_uninitialize_critical 00485b8c f   MSVCRT:utility.obj
 0001:00084b99       ___scrt_initialize_crt     00485b99 f   MSVCRT:utility.obj
 0001:00084bd2       ___scrt_initialize_onexit_tables 00485bd2 f   MSVCRT:utility.obj
 0001:00084c69       ___scrt_is_nonwritable_in_current_image 00485c69 f   MSVCRT:utility.obj
 0001:00084cf3       ___scrt_release_startup_lock 00485cf3 f   MSVCRT:utility.obj
 0001:00084d10       ___scrt_uninitialize_crt   00485d10 f   MSVCRT:utility.obj
 0001:00084d38       __onexit                   00485d38 f   MSVCRT:utility.obj
 0001:00084d73       _at_quick_exit             00485d73 f   MSVCRT:utility.obj
 0001:00084da4       _atexit                    00485da4 f   MSVCRT:utility.obj
 0001:00084e79       ??$__crt_fast_decode_pointer@P6GHPAU_RTL_CONDITION_VARIABLE@@PAU_RTL_CRITICAL_SECTION@@K@Z@@YAP6GHPAU_RTL_CONDITION_VARIABLE@@PAU_RTL_CRITICAL_SECTION@@K@ZQ6GH01K@Z@Z 00485e79 f i MSVCRT:thread_safe_statics.obj
 0001:00084e8d       ??$__crt_fast_decode_pointer@P6GXPAU_RTL_CONDITION_VARIABLE@@@Z@@YAP6GXPAU_RTL_CONDITION_VARIABLE@@@ZQ6GX0@Z@Z 00485e8d f i MSVCRT:thread_safe_statics.obj
 0001:00084ea1       ??$__crt_fast_encode_pointer@P6GHPAU_RTL_CONDITION_VARIABLE@@PAU_RTL_CRITICAL_SECTION@@K@Z@@YAP6GHPAU_RTL_CONDITION_VARIABLE@@PAU_RTL_CRITICAL_SECTION@@K@ZQ6GH01K@Z@Z 00485ea1 f i MSVCRT:thread_safe_statics.obj
 0001:00084ebe       ??$__crt_fast_encode_pointer@P6GXPAU_RTL_CONDITION_VARIABLE@@@Z@@YAP6GXPAU_RTL_CONDITION_VARIABLE@@@ZQ6GX0@Z@Z 00485ebe f i MSVCRT:thread_safe_statics.obj
 0001:00084ef7       __Init_thread_abort        00485ef7 f   MSVCRT:thread_safe_statics.obj
 0001:00084f10       __Init_thread_footer       00485f10 f   MSVCRT:thread_safe_statics.obj
 0001:00084f4f       __Init_thread_header       00485f4f f   MSVCRT:thread_safe_statics.obj
 0001:00084f95       __Init_thread_lock         00485f95 f   MSVCRT:thread_safe_statics.obj
 0001:00084fa1       __Init_thread_notify       00485fa1 f   MSVCRT:thread_safe_statics.obj
 0001:00084fe2       __Init_thread_unlock       00485fe2 f   MSVCRT:thread_safe_statics.obj
 0001:00084ff1       __Init_thread_wait         00485ff1 f   MSVCRT:thread_safe_statics.obj
 0001:00085060       __chkstk                   00486060 f   MSVCRT:chkstk.obj
 0001:00085060       __alloca_probe             00486060 f   MSVCRT:chkstk.obj
 0001:0008508d       ??_L@YGXPAXIHP6EX0@Z1@Z    0048608d f   MSVCRT:ehvecctr.obj
 0001:00085092       ??_L@YGXPAXIIP6EX0@Z1@Z    00486092 f   MSVCRT:ehvecctr.obj
 0001:000850fb       ??_M@YGXPAXIHP6EX0@Z@Z     004860fb f   MSVCRT:ehvecdtr.obj
 0001:00085100       ??_M@YGXPAXIIP6EX0@Z@Z     00486100 f   MSVCRT:ehvecdtr.obj
 0001:00085193       ?__ArrayUnwind@@YGXPAXIIP6EX0@Z@Z 00486193 f   MSVCRT:ehvecdtr.obj
 0001:00085200       ??_V@YAXPAXI@Z             00486200 f   MSVCRT:delete_array_size.obj
 0001:0008520e       ___raise_securityfailure   0048620e f   MSVCRT:gs_report.obj
 0001:00085236       ___report_gsfailure        00486236 f   MSVCRT:gs_report.obj
 0001:00085331       ___report_rangecheckfailure 00486331 f   MSVCRT:gs_report.obj
 0001:0008533d       ___report_securityfailure  0048633d f   MSVCRT:gs_report.obj
 0001:0008540d       ___report_securityfailureEx 0048640d f   MSVCRT:gs_report.obj
 0001:00085530       __ftoui3                   00486530 f   MSVCRT:_ftol3_.obj
 0001:0008553f       __ftoul3                   0048653f f   MSVCRT:_ftol3_.obj
 0001:0008554e       __ftol3                    0048654e f   MSVCRT:_ftol3_.obj
 0001:0008555b       __ftol3_NaN                0048655b f   MSVCRT:_ftol3_.obj
 0001:00085573       __ftol3_work               00486573 f   MSVCRT:_ftol3_.obj
 0001:000855f9       __ftol3_common             004865f9 f   MSVCRT:_ftol3_.obj
 0001:000856bb       __ftol3_arg_error          004866bb f   MSVCRT:_ftol3_.obj
 0001:000856cd       __ftol3_except             004866cd f   MSVCRT:_ftol3_.obj
 0001:00085711       __dtoui3                   00486711 f   MSVCRT:_ftol3_.obj
 0001:00085720       __dtoul3                   00486720 f   MSVCRT:_ftol3_.obj
 0001:0008572f       __dtol3                    0048672f f   MSVCRT:_ftol3_.obj
 0001:0008573c       __dtol3_NaN                0048673c f   MSVCRT:_ftol3_.obj
 0001:00085759       __dtol3_work               00486759 f   MSVCRT:_ftol3_.obj
 0001:00085840       __ultod3                   00486840 f   MSVCRT:_ftol3_.obj
 0001:00085880       __ltod3                    00486880 f   MSVCRT:_ftol3_.obj
 0001:000858a7       ___isa_available_init      004868a7 f   MSVCRT:_cpu_disp_.obj
 0001:00085c78       ?get_app_type@__scrt_main_policy@@SA?AW4_crt_app_type@@XZ 00486c78 f i MSVCRT:exe_main.obj
 0001:00085ca6       _mainCRTStartup            00486ca6 f   MSVCRT:exe_main.obj
 0001:00085cb0       __ftol2_sse                00486cb0 f   MSVCRT:_ftol2_.obj
 0001:00085cb9       __ftol2_pentium4           00486cb9 f   MSVCRT:_ftol2_.obj
 0001:00085ccc       __ftol2_sse_excpt          00486ccc f   MSVCRT:_ftol2_.obj
 0001:00085cf0       __ftol2                    00486cf0 f   MSVCRT:_ftol2_.obj
 0001:00085d65       ??0bad_alloc@std@@AAE@QBD@Z 00486d65 f i MSVCRT:throw_bad_alloc.obj
 0001:00085d82       ??0bad_alloc@std@@QAE@ABV01@@Z 00486d82 f i MSVCRT:throw_bad_alloc.obj
 0001:00085d9d       ??0bad_alloc@std@@QAE@XZ   00486d9d f i MSVCRT:throw_bad_alloc.obj
 0001:00085db5       ??0bad_array_new_length@std@@QAE@ABV01@@Z 00486db5 f i MSVCRT:throw_bad_alloc.obj
 0001:00085dd0       ??0bad_array_new_length@std@@QAE@XZ 00486dd0 f i MSVCRT:throw_bad_alloc.obj
 0001:00085de8       ??0exception@std@@QAE@QBDH@Z 00486de8 f i MSVCRT:throw_bad_alloc.obj
 0001:00085e05       ??1bad_alloc@std@@UAE@XZ   00486e05 f i MSVCRT:throw_bad_alloc.obj
 0001:00085e16       ??1bad_array_new_length@std@@UAE@XZ 00486e16 f i MSVCRT:throw_bad_alloc.obj
 0001:00085e27       ??_Gbad_alloc@std@@UAEPAXI@Z 00486e27 f i MSVCRT:throw_bad_alloc.obj
 0001:00085e27       ??_Ebad_alloc@std@@UAEPAXI@Z 00486e27 f i MSVCRT:throw_bad_alloc.obj
 0001:00085e54       ??_Ebad_array_new_length@std@@UAEPAXI@Z 00486e54 f i MSVCRT:throw_bad_alloc.obj
 0001:00085e54       ??_Gbad_array_new_length@std@@UAEPAXI@Z 00486e54 f i MSVCRT:throw_bad_alloc.obj
 0001:00085e81       ?__scrt_throw_std_bad_alloc@@YAXXZ 00486e81 f   MSVCRT:throw_bad_alloc.obj
 0001:00085e9e       ?__scrt_throw_std_bad_array_new_length@@YAXXZ 00486e9e f   MSVCRT:throw_bad_alloc.obj
 0001:00085ebb       __get_startup_argv_mode    00486ebb f   MSVCRT:argv_mode.obj
 0001:00085ebf       ___scrt_is_ucrt_dll_in_use 00486ebf f   MSVCRT:ucrt_detection.obj
 0001:00085ecb       ___scrt_fastfail           00486ecb f   MSVCRT:utility_desktop.obj
 0001:00085fe6       ___scrt_get_show_window_mode 00486fe6 f   MSVCRT:utility_desktop.obj
 0001:00086019       ___scrt_initialize_winrt   00487019 f   MSVCRT:utility_desktop.obj
 0001:0008601c       ___scrt_is_managed_app     0048701c f   MSVCRT:utility_desktop.obj
 0001:00086060       ___scrt_set_unhandled_exception_filter 00487060 f   MSVCRT:utility_desktop.obj
 0001:0008606c       ___scrt_unhandled_exception_filter@4 0048706c f   MSVCRT:utility_desktop.obj
 0001:000860ad       __crt_debugger_hook        004870ad f   MSVCRT:utility_desktop.obj
 0001:000860b5       @_guard_check_icall@4      004870b5 f i MSVCRT:checkcfg.obj
 0001:000860c0       __SEH_prolog4              004870c0 f   MSVCRT:_sehprolg4_.obj
 0001:00086106       __SEH_epilog4              00487106 f   MSVCRT:_sehprolg4_.obj
 0001:0008611b       __except_handler4          0048711b f   MSVCRT:_chandler4gs_.obj
 0001:0008613e       ___security_init_cookie    0048713e f   MSVCRT:gs_support.obj
 0001:000861da       __matherr                  004871da f   MSVCRT:matherr.obj
 0001:000861dd       __get_startup_commit_mode  004871dd f   MSVCRT:commit_mode.obj
 0001:000861e0       __get_startup_file_mode    004871e0 f   MSVCRT:file_mode.obj
 0001:000861e6       __get_startup_new_mode     004871e6 f   MSVCRT:new_mode.obj
 0001:000861e9       __get_startup_thread_locale_mode 004871e9 f   MSVCRT:thread_locale.obj
 0001:000861ec       ?__scrt_initialize_type_info@@YAXXZ 004871ec f   MSVCRT:tncleanup.obj
 0001:000861f8       ?__scrt_uninitialize_type_info@@YAXXZ 004871f8 f   MSVCRT:tncleanup.obj
 0001:00086204       __should_initialize_environment 00487204 f   MSVCRT:env_mode.obj
 0001:00086207       __initialize_default_precision 00487207 f   MSVCRT:default_precision.obj
 0001:00086228       __initialize_invalid_parameter_handler 00487228 f   MSVCRT:invalid_parameter_handler.obj
 0001:00086229       __initialize_denormal_control 00487229 f   MSVCRT:denormal_control.obj
 0001:0008622a       ___scrt_initialize_default_local_stdio_options 0048722a f   MSVCRT:default_local_stdio_options.obj
 0001:00086247       ___scrt_is_user_matherr_present 00487247 f   MSVCRT:matherr_detection.obj
 0001:00086253       ___scrt_get_dyn_tls_init_callback 00487253 f   MSVCRT:dyn_tls_init.obj
 0001:00086259       ___scrt_get_dyn_tls_dtor_callback 00487259 f   MSVCRT:dyn_tls_dtor.obj
 0001:0008625f       __RTC_Initialize           0048725f f   MSVCRT:_initsect_.obj
 0001:0008628a       __RTC_Terminate            0048728a f   MSVCRT:_initsect_.obj
 0001:000862b5       @_guard_check_icall_nop@4  004872b5 f i MSVCRT:guard_support.obj
 0001:000862b6       __guard_icall_checks_enforced 004872b6 f i MSVCRT:guard_support.obj
 0001:000862c8       __vcomp_for_static_end     004872c8 f   VCOMP:VCOMP140.DLL
 0001:000862ce       __vcomp_for_static_simple_init 004872ce f   VCOMP:VCOMP140.DLL
 0001:000862d4       __vcomp_fork               004872d4 f   VCOMP:VCOMP140.DLL
 0001:000862e0       ?uncaught_exception@std@@YA_NXZ 004872e0 f   msvcprt:MSVCP140.dll
 0001:000862e6       ?sputc@?$basic_streambuf@DU?$char_traits@D@std@@@std@@QAEHD@Z 004872e6 f   msvcprt:MSVCP140.dll
 0001:000862ec       ?sputn@?$basic_streambuf@DU?$char_traits@D@std@@@std@@QAE_JPBD_J@Z 004872ec f   msvcprt:MSVCP140.dll
 0001:000862f2       ?setstate@?$basic_ios@DU?$char_traits@D@std@@@std@@QAEXH_N@Z 004872f2 f   msvcprt:MSVCP140.dll
 0001:000862f8       ?widen@?$basic_ios@DU?$char_traits@D@std@@@std@@QBEDD@Z 004872f8 f   msvcprt:MSVCP140.dll
 0001:000862fe       ?_Osfx@?$basic_ostream@DU?$char_traits@D@std@@@std@@QAEXXZ 004872fe f   msvcprt:MSVCP140.dll
 0001:00086304       ??6?$basic_ostream@DU?$char_traits@D@std@@@std@@QAEAAV01@P6AAAV01@AAV01@@Z@Z 00487304 f   msvcprt:MSVCP140.dll
 0001:0008630a       ?put@?$basic_ostream@DU?$char_traits@D@std@@@std@@QAEAAV12@D@Z 0048730a f   msvcprt:MSVCP140.dll
 0001:00086310       ?flush@?$basic_ostream@DU?$char_traits@D@std@@@std@@QAEAAV12@XZ 00487310 f   msvcprt:MSVCP140.dll
 0001:00086316       ??0_Lockit@std@@QAE@H@Z    00487316 f   msvcprt:MSVCP140.dll
 0001:0008631c       ??1_Lockit@std@@QAE@XZ     0048731c f   msvcprt:MSVCP140.dll
 0001:00086322       ?_Xbad_alloc@std@@YAXXZ    00487322 f   msvcprt:MSVCP140.dll
 0001:00086328       ?_Xlength_error@std@@YAXPBD@Z 00487328 f   msvcprt:MSVCP140.dll
 0001:0008632e       ?_Xout_of_range@std@@YAXPBD@Z 0048732e f   msvcprt:MSVCP140.dll
 0001:00086334       ??0_Fac_node@std@@QAE@PAU01@PAV_Facet_base@1@@Z 00487334 f i msvcprt:locale0_implib.obj
 0001:00086348       ??1_Fac_node@std@@QAE@XZ   00487348 f i msvcprt:locale0_implib.obj
 0001:000863a7       ??1_Fac_tidy_reg_t@std@@QAE@XZ 004873a7 f i msvcprt:locale0_implib.obj
 0001:000863ce       ??_G_Fac_node@std@@QAEPAXI@Z 004873ce f i msvcprt:locale0_implib.obj
 0001:000863f0       ?_Facet_Register@std@@YAXPAV_Facet_base@1@@Z 004873f0 f   msvcprt:locale0_implib.obj
 0001:0008641e       ??Bid@locale@std@@QAEIXZ   0048741e f   msvcprt:MSVCP140.dll
 0001:00086424       ?_Getgloballocale@locale@std@@CAPAV_Locimp@12@XZ 00487424 f   msvcprt:MSVCP140.dll
 0001:0008642a       ?always_noconv@codecvt_base@std@@QBE_NXZ 0048742a f   msvcprt:MSVCP140.dll
 0001:00086430       ?in@?$codecvt@DDU_Mbstatet@@@std@@QBEHAAU_Mbstatet@@PBD1AAPBDPAD3AAPAD@Z 00487430 f   msvcprt:MSVCP140.dll
 0001:00086436       ?out@?$codecvt@DDU_Mbstatet@@@std@@QBEHAAU_Mbstatet@@PBD1AAPBDPAD3AAPAD@Z 00487436 f   msvcprt:MSVCP140.dll
 0001:0008643c       ?unshift@?$codecvt@DDU_Mbstatet@@@std@@QBEHAAU_Mbstatet@@PAD1AAPAD@Z 0048743c f   msvcprt:MSVCP140.dll
 0001:00086442       ?_Getcat@?$codecvt@DDU_Mbstatet@@@std@@SAIPAPBVfacet@locale@2@PBV42@@Z 00487442 f   msvcprt:MSVCP140.dll
 0001:00086448       ??0?$basic_streambuf@DU?$char_traits@D@std@@@std@@IAE@XZ 00487448 f   msvcprt:MSVCP140.dll
 0001:0008644e       ??1?$basic_streambuf@DU?$char_traits@D@std@@@std@@UAE@XZ 0048744e f   msvcprt:MSVCP140.dll
 0001:00086454       ?getloc@?$basic_streambuf@DU?$char_traits@D@std@@@std@@QBE?AVlocale@2@XZ 00487454 f   msvcprt:MSVCP140.dll
 0001:0008645a       ?_Init@?$basic_streambuf@DU?$char_traits@D@std@@@std@@IAEXXZ 0048745a f   msvcprt:MSVCP140.dll
 0001:00086460       ??1?$basic_ios@DU?$char_traits@D@std@@@std@@UAE@XZ 00487460 f   msvcprt:MSVCP140.dll
 0001:00086466       ??0?$basic_ios@DU?$char_traits@D@std@@@std@@IAE@XZ 00487466 f   msvcprt:MSVCP140.dll
 0001:0008646c       ??6?$basic_ostream@DU?$char_traits@D@std@@@std@@QAEAAV01@_N@Z 0048746c f   msvcprt:MSVCP140.dll
 0001:00086472       ??6?$basic_ostream@DU?$char_traits@D@std@@@std@@QAEAAV01@H@Z 00487472 f   msvcprt:MSVCP140.dll
 0001:00086478       ??0?$basic_istream@DU?$char_traits@D@std@@@std@@QAE@PAV?$basic_streambuf@DU?$char_traits@D@std@@@1@_N@Z 00487478 f   msvcprt:MSVCP140.dll
 0001:0008647e       ??1?$basic_istream@DU?$char_traits@D@std@@@std@@UAE@XZ 0048747e f   msvcprt:MSVCP140.dll
 0001:00086484       ?_Fiopen@std@@YAPAU_iobuf@@PBDHH@Z 00487484 f   msvcprt:MSVCP140.dll
 0001:0008648a       ?showmanyc@?$basic_streambuf@DU?$char_traits@D@std@@@std@@MAE_JXZ 0048748a f   msvcprt:MSVCP140.dll
 0001:00086490       ?xsgetn@?$basic_streambuf@DU?$char_traits@D@std@@@std@@MAE_JPAD_J@Z 00487490 f   msvcprt:MSVCP140.dll
 0001:00086496       ?xsputn@?$basic_streambuf@DU?$char_traits@D@std@@@std@@MAE_JPBD_J@Z 00487496 f   msvcprt:MSVCP140.dll
 0001:0008649c       ??6?$basic_ostream@DU?$char_traits@D@std@@@std@@QAEAAV01@N@Z 0048749c f   msvcprt:MSVCP140.dll
 0001:000864a2       ?sbumpc@?$basic_streambuf@DU?$char_traits@D@std@@@std@@QAEHXZ 004874a2 f   msvcprt:MSVCP140.dll
 0001:000864a8       ?sgetc@?$basic_streambuf@DU?$char_traits@D@std@@@std@@QAEHXZ 004874a8 f   msvcprt:MSVCP140.dll
 0001:000864ae       ?snextc@?$basic_streambuf@DU?$char_traits@D@std@@@std@@QAEHXZ 004874ae f   msvcprt:MSVCP140.dll
 0001:000864b4       ?_Ipfx@?$basic_istream@DU?$char_traits@D@std@@@std@@QAE_N_N@Z 004874b4 f   msvcprt:MSVCP140.dll
 0001:000864ba       ??0?$basic_ostream@DU?$char_traits@D@std@@@std@@QAE@PAV?$basic_streambuf@DU?$char_traits@D@std@@@1@_N@Z 004874ba f   msvcprt:MSVCP140.dll
 0001:000864c0       ??1?$basic_ostream@DU?$char_traits@D@std@@@std@@UAE@XZ 004874c0 f   msvcprt:MSVCP140.dll
 0001:000864c6       ?_Lock@?$basic_streambuf@DU?$char_traits@D@std@@@std@@UAEXXZ 004874c6 f   msvcprt:MSVCP140.dll
 0001:000864cc       ?_Unlock@?$basic_streambuf@DU?$char_traits@D@std@@@std@@UAEXXZ 004874cc f   msvcprt:MSVCP140.dll
 0001:000864d2       ?imbue@?$basic_streambuf@DU?$char_traits@D@std@@@std@@MAEXABVlocale@2@@Z 004874d2 f   msvcprt:MSVCP140.dll
 0001:000864d8       ?setbuf@?$basic_streambuf@DU?$char_traits@D@std@@@std@@MAEPAV12@PAD_J@Z 004874d8 f   msvcprt:MSVCP140.dll
 0001:000864de       ?sync@?$basic_streambuf@DU?$char_traits@D@std@@@std@@MAEHXZ 004874de f   msvcprt:MSVCP140.dll
 0001:000864e4       ?uflow@?$basic_streambuf@DU?$char_traits@D@std@@@std@@MAEHXZ 004874e4 f   msvcprt:MSVCP140.dll
 0001:000864ea       _strchr                    004874ea f   vcruntime:VCRUNTIME140.dll
 0001:000864f0       ___std_terminate           004874f0 f   vcruntime:VCRUNTIME140.dll
 0001:000864f6       ___std_exception_copy      004874f6 f   vcruntime:VCRUNTIME140.dll
 0001:000864fc       ___std_exception_destroy   004874fc f   vcruntime:VCRUNTIME140.dll
 0001:00086502       __CxxThrowException@8      00487502 f   vcruntime:VCRUNTIME140.dll
 0001:00086508       ___CxxFrameHandler3        00487508 f   vcruntime:VCRUNTIME140.dll
 0001:0008650e       _memchr                    0048750e f   vcruntime:VCRUNTIME140.dll
 0001:00086514       _memmove                   00487514 f   vcruntime:VCRUNTIME140.dll
 0001:0008651a       _memcpy                    0048751a f   vcruntime:VCRUNTIME140.dll
 0001:00086520       _memset                    00487520 f   vcruntime:VCRUNTIME140.dll
 0001:00086526       __purecall                 00487526 f   vcruntime:VCRUNTIME140.dll
 0001:0008652c       _strrchr                   0048752c f   vcruntime:VCRUNTIME140.dll
 0001:00086532       _strstr                    00487532 f   vcruntime:VCRUNTIME140.dll
 0001:00086538       ___vcrt_InitializeCriticalSectionEx 00487538 f   vcruntime:VCRUNTIME140.dll
 0001:0008653e       __except_handler4_common   0048753e f   vcruntime:VCRUNTIME140.dll
 0001:00086544       ___std_type_info_destroy_list 00487544 f   vcruntime:VCRUNTIME140.dll
 0001:0008654a       _ispunct                   0048754a f   ucrt:api-ms-win-crt-string-l1-1-0.dll
 0001:00086550       _isalnum                   00487550 f   ucrt:api-ms-win-crt-string-l1-1-0.dll
 0001:00086556       __invalid_parameter_noinfo 00487556 f   ucrt:api-ms-win-crt-runtime-l1-1-0.dll
 0001:0008655c       __invalid_parameter_noinfo_noreturn 0048755c f   ucrt:api-ms-win-crt-runtime-l1-1-0.dll
 0001:00086562       _log2                      00487562 f   ucrt:api-ms-win-crt-math-l1-1-0.dll
 0001:00086568       __errno                    00487568 f   ucrt:api-ms-win-crt-runtime-l1-1-0.dll
 0001:0008656e       __get_stream_buffer_pointers 0048756e f   ucrt:api-ms-win-crt-stdio-l1-1-0.dll
 0001:00086574       _fclose                    00487574 f   ucrt:api-ms-win-crt-stdio-l1-1-0.dll
 0001:0008657a       _fflush                    0048757a f   ucrt:api-ms-win-crt-stdio-l1-1-0.dll
 0001:00086580       _fgetc                     00487580 f   ucrt:api-ms-win-crt-stdio-l1-1-0.dll
 0001:00086586       _fgetpos                   00487586 f   ucrt:api-ms-win-crt-stdio-l1-1-0.dll
 0001:0008658c       _fputc                     0048758c f   ucrt:api-ms-win-crt-stdio-l1-1-0.dll
 0001:00086592       _fsetpos                   00487592 f   ucrt:api-ms-win-crt-stdio-l1-1-0.dll
 0001:00086598       __fseeki64                 00487598 f   ucrt:api-ms-win-crt-stdio-l1-1-0.dll
 0001:0008659e       _fwrite                    0048759e f   ucrt:api-ms-win-crt-stdio-l1-1-0.dll
 0001:000865a4       _setvbuf                   004875a4 f   ucrt:api-ms-win-crt-stdio-l1-1-0.dll
 0001:000865aa       _ungetc                    004875aa f   ucrt:api-ms-win-crt-stdio-l1-1-0.dll
 0001:000865b0       __lock_file                004875b0 f   ucrt:api-ms-win-crt-filesystem-l1-1-0.dll
 0001:000865b6       __unlock_file              004875b6 f   ucrt:api-ms-win-crt-filesystem-l1-1-0.dll
 0001:000865bc       __libm_sse2_log_precise    004875bc f   ucrt:api-ms-win-crt-math-l1-1-0.dll
 0001:000865c2       __libm_sse2_sqrt_precise   004875c2 f   ucrt:api-ms-win-crt-math-l1-1-0.dll
 0001:000865c8       _ceil                      004875c8 f   ucrt:api-ms-win-crt-math-l1-1-0.dll
 0001:000865ce       _exit                      004875ce f   ucrt:api-ms-win-crt-runtime-l1-1-0.dll
 0001:000865d4       _atoi                      004875d4 f   ucrt:api-ms-win-crt-convert-l1-1-0.dll
 0001:000865da       _clock                     004875da f   ucrt:api-ms-win-crt-time-l1-1-0.dll
 0001:000865e0       ___acrt_iob_func           004875e0 f   ucrt:api-ms-win-crt-stdio-l1-1-0.dll
 0001:000865e6       ___stdio_common_vfprintf   004875e6 f   ucrt:api-ms-win-crt-stdio-l1-1-0.dll
 0001:000865ec       __libm_sse2_cos_precise    004875ec f   ucrt:api-ms-win-crt-math-l1-1-0.dll
 0001:000865f2       __libm_sse2_sin_precise    004875f2 f   ucrt:api-ms-win-crt-math-l1-1-0.dll
 0001:000865f8       ___stdio_common_vsprintf   004875f8 f   ucrt:api-ms-win-crt-stdio-l1-1-0.dll
 0001:000865fe       __stricmp                  004875fe f   ucrt:api-ms-win-crt-string-l1-1-0.dll
 0001:00086604       __splitpath                00487604 f   ucrt:api-ms-win-crt-filesystem-l1-1-0.dll
 0001:0008660a       __CIfmod                   0048760a f   ucrt:api-ms-win-crt-math-l1-1-0.dll
 0001:00086610       _fopen                     00487610 f   ucrt:api-ms-win-crt-stdio-l1-1-0.dll
 0001:00086616       _fread                     00487616 f   ucrt:api-ms-win-crt-stdio-l1-1-0.dll
 0001:0008661c       _fseek                     0048761c f   ucrt:api-ms-win-crt-stdio-l1-1-0.dll
 0001:00086622       _remove                    00487622 f   ucrt:api-ms-win-crt-filesystem-l1-1-0.dll
 0001:00086628       ___stdio_common_vfscanf    00487628 f   ucrt:api-ms-win-crt-stdio-l1-1-0.dll
 0001:0008662e       ___stdio_common_vsscanf    0048762e f   ucrt:api-ms-win-crt-stdio-l1-1-0.dll
 0001:00086634       _srand                     00487634 f   ucrt:api-ms-win-crt-utility-l1-1-0.dll
 0001:0008663a       _rand                      0048763a f   ucrt:api-ms-win-crt-utility-l1-1-0.dll
 0001:00086640       _strncpy                   00487640 f   ucrt:api-ms-win-crt-string-l1-1-0.dll
 0001:00086646       __time64                   00487646 f   ucrt:api-ms-win-crt-time-l1-1-0.dll
 0001:0008664c       __libm_sse2_tan_precise    0048764c f   ucrt:api-ms-win-crt-math-l1-1-0.dll
 0001:00086652       __libm_sse2_pow_precise    00487652 f   ucrt:api-ms-win-crt-math-l1-1-0.dll
 0001:00086658       _atof                      00487658 f   ucrt:api-ms-win-crt-convert-l1-1-0.dll
 0001:0008665e       _isalpha                   0048765e f   ucrt:api-ms-win-crt-string-l1-1-0.dll
 0001:00086664       _isdigit                   00487664 f   ucrt:api-ms-win-crt-string-l1-1-0.dll
 0001:0008666a       _isspace                   0048766a f   ucrt:api-ms-win-crt-string-l1-1-0.dll
 0001:00086670       _isupper                   00487670 f   ucrt:api-ms-win-crt-string-l1-1-0.dll
 0001:00086676       _toupper                   00487676 f   ucrt:api-ms-win-crt-string-l1-1-0.dll
 0001:0008667c       _tolower                   0048767c f   ucrt:api-ms-win-crt-string-l1-1-0.dll
 0001:00086682       __strdup                   00487682 f   ucrt:api-ms-win-crt-string-l1-1-0.dll
 0001:00086688       _free                      00487688 f   ucrt:api-ms-win-crt-heap-l1-1-0.dll
 0001:0008668e       _malloc                    0048768e f   ucrt:api-ms-win-crt-heap-l1-1-0.dll
 0001:00086694       _realloc                   00487694 f   ucrt:api-ms-win-crt-heap-l1-1-0.dll
 0001:0008669a       _atol                      0048769a f   ucrt:api-ms-win-crt-convert-l1-1-0.dll
 0001:000866a0       _raise                     004876a0 f   ucrt:api-ms-win-crt-runtime-l1-1-0.dll
 0001:000866a6       _floor                     004876a6 f   ucrt:api-ms-win-crt-math-l1-1-0.dll
 0001:000866ac       _strncmp                   004876ac f   ucrt:api-ms-win-crt-string-l1-1-0.dll
 0001:000866b2       _isxdigit                  004876b2 f   ucrt:api-ms-win-crt-string-l1-1-0.dll
 0001:000866b8       _strerror                  004876b8 f   ucrt:api-ms-win-crt-runtime-l1-1-0.dll
 0001:000866be       __strnicmp                 004876be f   ucrt:api-ms-win-crt-string-l1-1-0.dll
 0001:000866c4       _getenv                    004876c4 f   ucrt:api-ms-win-crt-environment-l1-1-0.dll
 0001:000866ca       _isprint                   004876ca f   ucrt:api-ms-win-crt-string-l1-1-0.dll
 0001:000866d0       __mkdir                    004876d0 f   ucrt:api-ms-win-crt-filesystem-l1-1-0.dll
 0001:000866d6       __access                   004876d6 f   ucrt:api-ms-win-crt-filesystem-l1-1-0.dll
 0001:000866dc       _localeconv                004876dc f   ucrt:api-ms-win-crt-locale-l1-1-0.dll
 0001:000866e2       _fgets                     004876e2 f   ucrt:api-ms-win-crt-stdio-l1-1-0.dll
 0001:000866e8       _strcspn                   004876e8 f   ucrt:api-ms-win-crt-string-l1-1-0.dll
 0001:000866ee       __libm_sse2_acos_precise   004876ee f   ucrt:api-ms-win-crt-math-l1-1-0.dll
 0001:000866f4       __putenv                   004876f4 f   ucrt:api-ms-win-crt-environment-l1-1-0.dll
 0001:000866fa       __waccess                  004876fa f   ucrt:api-ms-win-crt-filesystem-l1-1-0.dll
 0001:00086700       __wchmod                   00487700 f   ucrt:api-ms-win-crt-filesystem-l1-1-0.dll
 0001:00086706       __wunlink                  00487706 f   ucrt:api-ms-win-crt-filesystem-l1-1-0.dll
 0001:0008670c       __wrename                  0048770c f   ucrt:api-ms-win-crt-filesystem-l1-1-0.dll
 0001:00086712       __wsopen_dispatch          00487712 f   ucrt:api-ms-win-crt-stdio-l1-1-0.dll
 0001:00086718       __wexecvp                  00487718 f   ucrt:api-ms-win-crt-process-l1-1-0.dll
 0001:0008671e       __wsystem                  0048771e f   ucrt:api-ms-win-crt-runtime-l1-1-0.dll
 0001:00086724       __wgetcwd                  00487724 f   ucrt:api-ms-win-crt-environment-l1-1-0.dll
 0001:0008672a       __wmkdir                   0048772a f   ucrt:api-ms-win-crt-filesystem-l1-1-0.dll
 0001:00086730       __wrmdir                   00487730 f   ucrt:api-ms-win-crt-filesystem-l1-1-0.dll
 0001:00086736       __wfopen                   00487736 f   ucrt:api-ms-win-crt-stdio-l1-1-0.dll
 0001:0008673c       __wgetenv                  0048773c f   ucrt:api-ms-win-crt-environment-l1-1-0.dll
 0001:00086742       _wcstombs                  00487742 f   ucrt:api-ms-win-crt-convert-l1-1-0.dll
 0001:00086748       __wstat64i32               00487748 f   ucrt:api-ms-win-crt-filesystem-l1-1-0.dll
 0001:0008674e       _strtol                    0048774e f   ucrt:api-ms-win-crt-convert-l1-1-0.dll
 0001:00086754       _calloc                    00487754 f   ucrt:api-ms-win-crt-heap-l1-1-0.dll
 0001:0008675a       _bsearch                   0048775a f   ucrt:api-ms-win-crt-utility-l1-1-0.dll
 0001:00086760       _qsort                     00487760 f   ucrt:api-ms-win-crt-utility-l1-1-0.dll
 0001:00086766       _ferror                    00487766 f   ucrt:api-ms-win-crt-stdio-l1-1-0.dll
 0001:0008676c       _islower                   0048776c f   ucrt:api-ms-win-crt-string-l1-1-0.dll
 0001:00086772       __callnewh                 00487772 f   ucrt:api-ms-win-crt-heap-l1-1-0.dll
 0001:00086778       __seh_filter_dll           00487778 f   ucrt:api-ms-win-crt-runtime-l1-1-0.dll
 0001:0008677e       __configure_narrow_argv    0048777e f   ucrt:api-ms-win-crt-runtime-l1-1-0.dll
 0001:00086784       __initialize_narrow_environment 00487784 f   ucrt:api-ms-win-crt-runtime-l1-1-0.dll
 0001:0008678a       __initialize_onexit_table  0048778a f   ucrt:api-ms-win-crt-runtime-l1-1-0.dll
 0001:00086790       __register_onexit_function 00487790 f   ucrt:api-ms-win-crt-runtime-l1-1-0.dll
 0001:00086796       __execute_onexit_table     00487796 f   ucrt:api-ms-win-crt-runtime-l1-1-0.dll
 0001:0008679c       __crt_atexit               0048779c f   ucrt:api-ms-win-crt-runtime-l1-1-0.dll
 0001:000867a2       __crt_at_quick_exit        004877a2 f   ucrt:api-ms-win-crt-runtime-l1-1-0.dll
 0001:000867a8       __cexit                    004877a8 f   ucrt:api-ms-win-crt-runtime-l1-1-0.dll
 0001:000867ae       _terminate                 004877ae f   ucrt:api-ms-win-crt-runtime-l1-1-0.dll
 0001:000867b4       __except1                  004877b4 f   ucrt:api-ms-win-crt-math-l1-1-0.dll
 0001:000867ba       __seh_filter_exe           004877ba f   ucrt:api-ms-win-crt-runtime-l1-1-0.dll
 0001:000867c0       __set_app_type             004877c0 f   ucrt:api-ms-win-crt-runtime-l1-1-0.dll
 0001:000867c6       ___setusermatherr          004877c6 f   ucrt:api-ms-win-crt-math-l1-1-0.dll
 0001:000867cc       __get_initial_narrow_environment 004877cc f   ucrt:api-ms-win-crt-runtime-l1-1-0.dll
 0001:000867d2       __initterm                 004877d2 f   ucrt:api-ms-win-crt-runtime-l1-1-0.dll
 0001:000867d8       __initterm_e               004877d8 f   ucrt:api-ms-win-crt-runtime-l1-1-0.dll
 0001:000867de       __exit                     004877de f   ucrt:api-ms-win-crt-runtime-l1-1-0.dll
 0001:000867e4       __set_fmode                004877e4 f   ucrt:api-ms-win-crt-stdio-l1-1-0.dll
 0001:000867ea       ___p___argc                004877ea f   ucrt:api-ms-win-crt-runtime-l1-1-0.dll
 0001:000867f0       ___p___argv                004877f0 f   ucrt:api-ms-win-crt-runtime-l1-1-0.dll
 0001:000867f6       __c_exit                   004877f6 f   ucrt:api-ms-win-crt-runtime-l1-1-0.dll
 0001:000867fc       __register_thread_local_exe_atexit_callback 004877fc f   ucrt:api-ms-win-crt-runtime-l1-1-0.dll
 0001:00086802       __configthreadlocale       00487802 f   ucrt:api-ms-win-crt-locale-l1-1-0.dll
 0001:00086808       __set_new_mode             00487808 f   ucrt:api-ms-win-crt-heap-l1-1-0.dll
 0001:0008680e       ___p__commode              0048780e f   ucrt:api-ms-win-crt-stdio-l1-1-0.dll
 0001:00086814       __controlfp_s              00487814 f   ucrt:api-ms-win-crt-runtime-l1-1-0.dll
 0001:0008681a       __TrackMouseEvent@4        0048781a f   comctl32:COMCTL32.dll
 0001:00086820       _DeleteCriticalSection@4   00487820 f   kernel32:KERNEL32.dll
 0001:00086826       _ResetEvent@4              00487826 f   kernel32:KERNEL32.dll
 0001:0008682c       _WaitForSingleObjectEx@12  0048782c f   kernel32:KERNEL32.dll
 0001:00086832       _CreateEventW@16           00487832 f   kernel32:KERNEL32.dll
 0001:00086838       _GetModuleHandleW@4        00487838 f   kernel32:KERNEL32.dll
 0001:0008683e       _UnhandledExceptionFilter@4 0048783e f   kernel32:KERNEL32.dll
 0001:00086844       _SetUnhandledExceptionFilter@4 00487844 f   kernel32:KERNEL32.dll
 0001:0008684a       _GetCurrentProcess@0       0048784a f   kernel32:KERNEL32.dll
 0001:00086850       _TerminateProcess@8        00487850 f   kernel32:KERNEL32.dll
 0001:00086856       _IsProcessorFeaturePresent@4 00487856 f   kernel32:KERNEL32.dll
 0001:0008685c       _IsDebuggerPresent@0       0048785c f   kernel32:KERNEL32.dll
 0001:00086862       _GetStartupInfoW@4         00487862 f   kernel32:KERNEL32.dll
 0001:00086868       _QueryPerformanceCounter@4 00487868 f   kernel32:KERNEL32.dll
 0001:0008686e       _GetCurrentProcessId@0     0048786e f   kernel32:KERNEL32.dll
 0001:00086874       _GetSystemTimeAsFileTime@4 00487874 f   kernel32:KERNEL32.dll
 0001:0008687a       _InitializeSListHead@4     0048787a f   kernel32:KERNEL32.dll
 0001:00086880       ___vcrt_initialize         00487880 f   MSVCRT:ucrt_stubs.obj
 0001:00086880       ___acrt_initialize         00487880 f   MSVCRT:ucrt_stubs.obj
 0001:00086880       ___scrt_stub_for_acrt_initialize 00487880 f   MSVCRT:ucrt_stubs.obj
 0001:00086883       ___vcrt_thread_attach      00487883 f   MSVCRT:ucrt_stubs.obj
 0001:00086883       ___acrt_thread_attach      00487883 f   MSVCRT:ucrt_stubs.obj
 0001:00086883       ___scrt_stub_for_acrt_thread_attach 00487883 f   MSVCRT:ucrt_stubs.obj
 0001:00086886       ___acrt_thread_detach      00487886 f   MSVCRT:ucrt_stubs.obj
 0001:00086886       ___scrt_stub_for_acrt_thread_detach 00487886 f   MSVCRT:ucrt_stubs.obj
 0001:00086886       ___vcrt_thread_detach      00487886 f   MSVCRT:ucrt_stubs.obj
 0001:00086889       ___acrt_uninitialize       00487889 f   MSVCRT:ucrt_stubs.obj
 0001:00086889       ___scrt_stub_for_acrt_uninitialize 00487889 f   MSVCRT:ucrt_stubs.obj
 0001:00086889       ___vcrt_uninitialize       00487889 f   MSVCRT:ucrt_stubs.obj
 0001:0008688c       ___vcrt_uninitialize_critical 0048788c f   MSVCRT:ucrt_stubs.obj
 0001:0008688c       ___acrt_uninitialize_critical 0048788c f   MSVCRT:ucrt_stubs.obj
 0001:0008688c       ___scrt_stub_for_acrt_uninitialize_critical 0048788c f   MSVCRT:ucrt_stubs.obj
 0001:0008688f       ___scrt_stub_for_is_c_termination_complete 0048788f f   MSVCRT:ucrt_stubs.obj
 0001:0008688f       __is_c_termination_complete 0048788f f   MSVCRT:ucrt_stubs.obj
 0001:0008af50       ??__Ffont10x13@?M@??get_font@?$CImgl@E@cimg_library@@SA?AU12@I_N@Z@YAXXZ 0048bf50 f i imageio.obj
 0001:0008afc0       ??__Ffont10x19@?BK@??get_font@?$CImgl@E@cimg_library@@SA?AU12@I_N@Z@YAXXZ 0048bfc0 f i imageio.obj
 0001:0008b030       ??__Ffont12x24@?CB@??get_font@?$CImgl@E@cimg_library@@SA?AU12@I_N@Z@YAXXZ 0048c030 f i imageio.obj
 0001:0008b0a0       ??__Ffont16x32@?CI@??get_font@?$CImgl@E@cimg_library@@SA?AU12@I_N@Z@YAXXZ 0048c0a0 f i imageio.obj
 0001:0008b110       ??__Ffont19x38@?CP@??get_font@?$CImgl@E@cimg_library@@SA?AU12@I_N@Z@YAXXZ 0048c110 f i imageio.obj
 0001:0008b180       ??__Ffont29x57@?1??get_font@?$CImgl@E@cimg_library@@SA?AU12@I_N@Z@YAXXZ 0048c180 f i imageio.obj
 0001:0008b1f0       ??__Ffont7x11@?4??get_font@?$CImgl@E@cimg_library@@SA?AU12@I_N@Z@YAXXZ 0048c1f0 f i imageio.obj
 0001:0008b260       ??__Ffont8x17@?BD@??get_font@?$CImgl@E@cimg_library@@SA?AU12@I_N@Z@YAXXZ 0048c260 f i imageio.obj
 0001:0008b2d0       ??__Fnfont10x13@?M@??get_font@?$CImgl@E@cimg_library@@SA?AU12@I_N@Z@YAXXZ 0048c2d0 f i imageio.obj
 0001:0008b340       ??__Fnfont10x19@?BK@??get_font@?$CImgl@E@cimg_library@@SA?AU12@I_N@Z@YAXXZ 0048c340 f i imageio.obj
 0001:0008b3b0       ??__Fnfont12x24@?CB@??get_font@?$CImgl@E@cimg_library@@SA?AU12@I_N@Z@YAXXZ 0048c3b0 f i imageio.obj
 0001:0008b420       ??__Fnfont16x32@?CI@??get_font@?$CImgl@E@cimg_library@@SA?AU12@I_N@Z@YAXXZ 0048c420 f i imageio.obj
 0001:0008b490       ??__Fnfont19x38@?CP@??get_font@?$CImgl@E@cimg_library@@SA?AU12@I_N@Z@YAXXZ 0048c490 f i imageio.obj
 0001:0008b500       ??__Fnfont29x57@?1??get_font@?$CImgl@E@cimg_library@@SA?AU12@I_N@Z@YAXXZ 0048c500 f i imageio.obj
 0001:0008b570       ??__Fnfont7x11@?4??get_font@?$CImgl@E@cimg_library@@SA?AU12@I_N@Z@YAXXZ 0048c570 f i imageio.obj
 0001:0008b5e0       ??__Fnfont8x17@?BD@??get_font@?$CImgl@E@cimg_library@@SA?AU12@I_N@Z@YAXXZ 0048c5e0 f i imageio.obj
 0001:0008b650       ??__Fres@?1??get_logo40x38@?$CImg@E@cimg_library@@SA?AU12@XZ@YAXXZ 0048c650 f i imageio.obj
 0002:00000000       __imp__RegCloseKey@4       0048d000     advapi32:ADVAPI32.dll
 0002:00000004       __imp__RegQueryValueExW@24 0048d004     advapi32:ADVAPI32.dll
 0002:00000008       __imp__RegOpenKeyW@12      0048d008     advapi32:ADVAPI32.dll
 0002:0000000c       \177ADVAPI32_NULL_THUNK_DATA 0048d00c     advapi32:ADVAPI32.dll
 0002:00000010       __imp___TrackMouseEvent@4  0048d010     comctl32:COMCTL32.dll
 0002:00000014       \177COMCTL32_NULL_THUNK_DATA 0048d014     comctl32:COMCTL32.dll
 0002:00000018       __imp__DeleteObject@4      0048d018     gdi32:GDI32.dll
 0002:0000001c       __imp__GetDeviceCaps@8     0048d01c     gdi32:GDI32.dll
 0002:00000020       __imp__RestoreDC@8         0048d020     gdi32:GDI32.dll
 0002:00000024       __imp__SaveDC@4            0048d024     gdi32:GDI32.dll
 0002:00000028       __imp__DeleteDC@4          0048d028     gdi32:GDI32.dll
 0002:0000002c       __imp__SetTextAlign@8      0048d02c     gdi32:GDI32.dll
 0002:00000030       __imp__UpdateColors@4      0048d030     gdi32:GDI32.dll
 0002:00000034       __imp__GetEnhMetaFileHeader@12 0048d034     gdi32:GDI32.dll
 0002:00000038       __imp__PlayEnhMetaFile@12  0048d038     gdi32:GDI32.dll
 0002:0000003c       __imp__CreateDIBSection@24 0048d03c     gdi32:GDI32.dll
 0002:00000040       __imp__CreateCompatibleBitmap@12 0048d040     gdi32:GDI32.dll
 0002:00000044       __imp__CreateRectRgn@16    0048d044     gdi32:GDI32.dll
 0002:00000048       __imp__CreateBitmap@20     0048d048     gdi32:GDI32.dll
 0002:0000004c       __imp__CombineRgn@16       0048d04c     gdi32:GDI32.dll
 0002:00000050       __imp__SetBkMode@8         0048d050     gdi32:GDI32.dll
 0002:00000054       __imp__SetTextColor@8      0048d054     gdi32:GDI32.dll
 0002:00000058       __imp__SetPixelFormat@12   0048d058     gdi32:GDI32.dll
 0002:0000005c       __imp__DescribePixelFormat@16 0048d05c     gdi32:GDI32.dll
 0002:00000060       __imp__SwapBuffers@4       0048d060     gdi32:GDI32.dll
 0002:00000064       __imp__ExtCreateRegion@12  0048d064     gdi32:GDI32.dll
 0002:00000068       __imp__GetDIBits@28        0048d068     gdi32:GDI32.dll
 0002:0000006c       __imp__StretchDIBits@52    0048d06c     gdi32:GDI32.dll
 0002:00000070       __imp__TextOutW@20         0048d070     gdi32:GDI32.dll
 0002:00000074       __imp__GetTextMetricsA@8   0048d074     gdi32:GDI32.dll
 0002:00000078       __imp__CreatePolygonRgn@12 0048d078     gdi32:GDI32.dll
 0002:0000007c       __imp__GetCharacterPlacementW@24 0048d07c     gdi32:GDI32.dll
 0002:00000080       __imp__GetTextExtentPoint32W@16 0048d080     gdi32:GDI32.dll
 0002:00000084       __imp__GetGlyphOutlineW@28 0048d084     gdi32:GDI32.dll
 0002:00000088       __imp__CreateFontA@56      0048d088     gdi32:GDI32.dll
 0002:0000008c       __imp__Polyline@12         0048d08c     gdi32:GDI32.dll
 0002:00000090       __imp__PolyPolygon@16      0048d090     gdi32:GDI32.dll
 0002:00000094       __imp__Pie@36              0048d094     gdi32:GDI32.dll
 0002:00000098       __imp__Arc@36              0048d098     gdi32:GDI32.dll
 0002:0000009c       __imp__ExtCreatePen@20     0048d09c     gdi32:GDI32.dll
 0002:000000a0       __imp__Polygon@12          0048d0a0     gdi32:GDI32.dll
 0002:000000a4       __imp__DPtoLP@12           0048d0a4     gdi32:GDI32.dll
 0002:000000a8       __imp__MoveToEx@16         0048d0a8     gdi32:GDI32.dll
 0002:000000ac       __imp__SelectClipRgn@8     0048d0ac     gdi32:GDI32.dll
 0002:000000b0       __imp__RectInRegion@8      0048d0b0     gdi32:GDI32.dll
 0002:000000b4       __imp__LineTo@12           0048d0b4     gdi32:GDI32.dll
 0002:000000b8       __imp__GetRgnBox@8         0048d0b8     gdi32:GDI32.dll
 0002:000000bc       __imp__EqualRgn@8          0048d0bc     gdi32:GDI32.dll
 0002:000000c0       __imp__SetPixel@16         0048d0c0     gdi32:GDI32.dll
 0002:000000c4       __imp__SelectPalette@12    0048d0c4     gdi32:GDI32.dll
 0002:000000c8       __imp__RealizePalette@4    0048d0c8     gdi32:GDI32.dll
 0002:000000cc       __imp__GetStockObject@4    0048d0cc     gdi32:GDI32.dll
 0002:000000d0       __imp__CreateSolidBrush@4  0048d0d0     gdi32:GDI32.dll
 0002:000000d4       __imp__CreatePen@12        0048d0d4     gdi32:GDI32.dll
 0002:000000d8       __imp__CreatePalette@4     0048d0d8     gdi32:GDI32.dll
 0002:000000dc       __imp__SelectObject@8      0048d0dc     gdi32:GDI32.dll
 0002:000000e0       __imp__CreateCompatibleDC@4 0048d0e0     gdi32:GDI32.dll
 0002:000000e4       __imp__BitBlt@36           0048d0e4     gdi32:GDI32.dll
 0002:000000e8       __imp__CreateDCA@16        0048d0e8     gdi32:GDI32.dll
 0002:000000ec       __imp__GdiFlush@0          0048d0ec     gdi32:GDI32.dll
 0002:000000f0       __imp__LPtoDP@12           0048d0f0     gdi32:GDI32.dll
 0002:000000f4       __imp__SetDIBitsToDevice@48 0048d0f4     gdi32:GDI32.dll
 0002:000000f8       \177GDI32_NULL_THUNK_DATA  0048d0f8     gdi32:GDI32.dll
 0002:000000fc       __imp__gluLookAt@72        0048d0fc     glu32:GLU32.dll
 0002:00000100       __imp__gluSphere@20        0048d100     glu32:GLU32.dll
 0002:00000104       __imp__gluDisk@28          0048d104     glu32:GLU32.dll
 0002:00000108       __imp__gluCylinder@36      0048d108     glu32:GLU32.dll
 0002:0000010c       __imp__gluQuadricDrawStyle@8 0048d10c     glu32:GLU32.dll
 0002:00000110       __imp__gluQuadricOrientation@8 0048d110     glu32:GLU32.dll
 0002:00000114       __imp__gluQuadricTexture@8 0048d114     glu32:GLU32.dll
 0002:00000118       __imp__gluDeleteQuadric@4  0048d118     glu32:GLU32.dll
 0002:0000011c       __imp__gluNewQuadric@0     0048d11c     glu32:GLU32.dll
 0002:00000120       __imp__gluBuild2DMipmaps@28 0048d120     glu32:GLU32.dll
 0002:00000124       __imp__gluErrorString@4    0048d124     glu32:GLU32.dll
 0002:00000128       __imp__gluPerspective@32   0048d128     glu32:GLU32.dll
 0002:0000012c       \177GLU32_NULL_THUNK_DATA  0048d12c     glu32:GLU32.dll
 0002:00000130       __imp__TerminateProcess@8  0048d130     kernel32:KERNEL32.dll
 0002:00000134       __imp__GetCurrentProcess@0 0048d134     kernel32:KERNEL32.dll
 0002:00000138       __imp__SetUnhandledExceptionFilter@4 0048d138     kernel32:KERNEL32.dll
 0002:0000013c       __imp__UnhandledExceptionFilter@4 0048d13c     kernel32:KERNEL32.dll
 0002:00000140       __imp__GetModuleHandleW@4  0048d140     kernel32:KERNEL32.dll
 0002:00000144       __imp__CreateEventW@16     0048d144     kernel32:KERNEL32.dll
 0002:00000148       __imp__WaitForSingleObjectEx@12 0048d148     kernel32:KERNEL32.dll
 0002:0000014c       __imp__ResetEvent@4        0048d14c     kernel32:KERNEL32.dll
 0002:00000150       __imp__DeleteCriticalSection@4 0048d150     kernel32:KERNEL32.dll
 0002:00000154       __imp__IsProcessorFeaturePresent@4 0048d154     kernel32:KERNEL32.dll
 0002:00000158       __imp__CloseHandle@4       0048d158     kernel32:KERNEL32.dll
 0002:0000015c       __imp__SetEvent@4          0048d15c     kernel32:KERNEL32.dll
 0002:00000160       __imp__ReleaseMutex@4      0048d160     kernel32:KERNEL32.dll
 0002:00000164       __imp__WaitForSingleObject@8 0048d164     kernel32:KERNEL32.dll
 0002:00000168       __imp__CreateMutexA@12     0048d168     kernel32:KERNEL32.dll
 0002:0000016c       __imp__CreateEventA@16     0048d16c     kernel32:KERNEL32.dll
 0002:00000170       __imp__Sleep@4             0048d170     kernel32:KERNEL32.dll
 0002:00000174       __imp__CreateThread@24     0048d174     kernel32:KERNEL32.dll
 0002:00000178       __imp__TerminateThread@8   0048d178     kernel32:KERNEL32.dll
 0002:0000017c       __imp__CreateProcessA@40   0048d17c     kernel32:KERNEL32.dll
 0002:00000180       __imp__GetSystemTime@4     0048d180     kernel32:KERNEL32.dll
 0002:00000184       __imp__GetStartupInfoA@4   0048d184     kernel32:KERNEL32.dll
 0002:00000188       __imp__GetModuleHandleA@4  0048d188     kernel32:KERNEL32.dll
 0002:0000018c       __imp__GetProcAddress@8    0048d18c     kernel32:KERNEL32.dll
 0002:00000190       __imp__GlobalAlloc@8       0048d190     kernel32:KERNEL32.dll
 0002:00000194       __imp__GlobalLock@4        0048d194     kernel32:KERNEL32.dll
 0002:00000198       __imp__GlobalUnlock@4      0048d198     kernel32:KERNEL32.dll
 0002:0000019c       __imp__LoadLibraryA@4      0048d19c     kernel32:KERNEL32.dll
 0002:000001a0       __imp__GetLocaleInfoA@16   0048d1a0     kernel32:KERNEL32.dll
 0002:000001a4       __imp__GetLastError@0      0048d1a4     kernel32:KERNEL32.dll
 0002:000001a8       __imp__MultiByteToWideChar@24 0048d1a8     kernel32:KERNEL32.dll
 0002:000001ac       __imp__WideCharToMultiByte@32 0048d1ac     kernel32:KERNEL32.dll
 0002:000001b0       __imp__GetACP@0            0048d1b0     kernel32:KERNEL32.dll
 0002:000001b4       __imp__InitializeCriticalSection@4 0048d1b4     kernel32:KERNEL32.dll
 0002:000001b8       __imp__EnterCriticalSection@4 0048d1b8     kernel32:KERNEL32.dll
 0002:000001bc       __imp__LeaveCriticalSection@4 0048d1bc     kernel32:KERNEL32.dll
 0002:000001c0       __imp__GetCurrentThreadId@0 0048d1c0     kernel32:KERNEL32.dll
 0002:000001c4       __imp__GetComputerNameA@8  0048d1c4     kernel32:KERNEL32.dll
 0002:000001c8       __imp__GetLogicalDrives@0  0048d1c8     kernel32:KERNEL32.dll
 0002:000001cc       __imp__FindClose@4         0048d1cc     kernel32:KERNEL32.dll
 0002:000001d0       __imp__FindFirstFileW@8    0048d1d0     kernel32:KERNEL32.dll
 0002:000001d4       __imp__FindNextFileW@8     0048d1d4     kernel32:KERNEL32.dll
 0002:000001d8       __imp__GetFileAttributesA@4 0048d1d8     kernel32:KERNEL32.dll
 0002:000001dc       __imp__IsDebuggerPresent@0 0048d1dc     kernel32:KERNEL32.dll
 0002:000001e0       __imp__GetStartupInfoW@4   0048d1e0     kernel32:KERNEL32.dll
 0002:000001e4       __imp__QueryPerformanceCounter@4 0048d1e4     kernel32:KERNEL32.dll
 0002:000001e8       __imp__GetCurrentProcessId@0 0048d1e8     kernel32:KERNEL32.dll
 0002:000001ec       __imp__GetSystemTimeAsFileTime@4 0048d1ec     kernel32:KERNEL32.dll
 0002:000001f0       __imp__InitializeSListHead@4 0048d1f0     kernel32:KERNEL32.dll
 0002:000001f4       \177KERNEL32_NULL_THUNK_DATA 0048d1f4     kernel32:KERNEL32.dll
 0002:000001f8       __imp_?id@?$codecvt@DDU_Mbstatet@@@std@@2V0locale@2@A 0048d1f8     msvcprt:MSVCP140.dll
 0002:000001fc       __imp_?sputc@?$basic_streambuf@DU?$char_traits@D@std@@@std@@QAEHD@Z 0048d1fc     msvcprt:MSVCP140.dll
 0002:00000200       __imp_?sputn@?$basic_streambuf@DU?$char_traits@D@std@@@std@@QAE_JPBD_J@Z 0048d200     msvcprt:MSVCP140.dll
 0002:00000204       __imp_?setstate@?$basic_ios@DU?$char_traits@D@std@@@std@@QAEXH_N@Z 0048d204     msvcprt:MSVCP140.dll
 0002:00000208       __imp_?widen@?$basic_ios@DU?$char_traits@D@std@@@std@@QBEDD@Z 0048d208     msvcprt:MSVCP140.dll
 0002:0000020c       __imp_?_Osfx@?$basic_ostream@DU?$char_traits@D@std@@@std@@QAEXXZ 0048d20c     msvcprt:MSVCP140.dll
 0002:00000210       __imp_??6?$basic_ostream@DU?$char_traits@D@std@@@std@@QAEAAV01@P6AAAV01@AAV01@@Z@Z 0048d210     msvcprt:MSVCP140.dll
 0002:00000214       __imp_?put@?$basic_ostream@DU?$char_traits@D@std@@@std@@QAEAAV12@D@Z 0048d214     msvcprt:MSVCP140.dll
 0002:00000218       __imp_?flush@?$basic_ostream@DU?$char_traits@D@std@@@std@@QAEAAV12@XZ 0048d218     msvcprt:MSVCP140.dll
 0002:0000021c       __imp_?cerr@std@@3V?$basic_ostream@DU?$char_traits@D@std@@@1@A 0048d21c     msvcprt:MSVCP140.dll
 0002:00000220       __imp_??0_Lockit@std@@QAE@H@Z 0048d220     msvcprt:MSVCP140.dll
 0002:00000224       __imp_??1_Lockit@std@@QAE@XZ 0048d224     msvcprt:MSVCP140.dll
 0002:00000228       __imp_?_Xbad_alloc@std@@YAXXZ 0048d228     msvcprt:MSVCP140.dll
 0002:0000022c       __imp_?_Xlength_error@std@@YAXPBD@Z 0048d22c     msvcprt:MSVCP140.dll
 0002:00000230       __imp_?_Xout_of_range@std@@YAXPBD@Z 0048d230     msvcprt:MSVCP140.dll
 0002:00000234       __imp_??Bid@locale@std@@QAEIXZ 0048d234     msvcprt:MSVCP140.dll
 0002:00000238       __imp_?_Getgloballocale@locale@std@@CAPAV_Locimp@12@XZ 0048d238     msvcprt:MSVCP140.dll
 0002:0000023c       __imp_?always_noconv@codecvt_base@std@@QBE_NXZ 0048d23c     msvcprt:MSVCP140.dll
 0002:00000240       __imp_?uflow@?$basic_streambuf@DU?$char_traits@D@std@@@std@@MAEHXZ 0048d240     msvcprt:MSVCP140.dll
 0002:00000244       __imp_?sync@?$basic_streambuf@DU?$char_traits@D@std@@@std@@MAEHXZ 0048d244     msvcprt:MSVCP140.dll
 0002:00000248       __imp_?setbuf@?$basic_streambuf@DU?$char_traits@D@std@@@std@@MAEPAV12@PAD_J@Z 0048d248     msvcprt:MSVCP140.dll
 0002:0000024c       __imp_?imbue@?$basic_streambuf@DU?$char_traits@D@std@@@std@@MAEXABVlocale@2@@Z 0048d24c     msvcprt:MSVCP140.dll
 0002:00000250       __imp_?_Unlock@?$basic_streambuf@DU?$char_traits@D@std@@@std@@UAEXXZ 0048d250     msvcprt:MSVCP140.dll
 0002:00000254       __imp_?_Lock@?$basic_streambuf@DU?$char_traits@D@std@@@std@@UAEXXZ 0048d254     msvcprt:MSVCP140.dll
 0002:00000258       __imp_??1?$basic_ostream@DU?$char_traits@D@std@@@std@@UAE@XZ 0048d258     msvcprt:MSVCP140.dll
 0002:0000025c       __imp_??0?$basic_ostream@DU?$char_traits@D@std@@@std@@QAE@PAV?$basic_streambuf@DU?$char_traits@D@std@@@1@_N@Z 0048d25c     msvcprt:MSVCP140.dll
 0002:00000260       __imp_?_Ipfx@?$basic_istream@DU?$char_traits@D@std@@@std@@QAE_N_N@Z 0048d260     msvcprt:MSVCP140.dll
 0002:00000264       __imp_?snextc@?$basic_streambuf@DU?$char_traits@D@std@@@std@@QAEHXZ 0048d264     msvcprt:MSVCP140.dll
 0002:00000268       __imp_?sgetc@?$basic_streambuf@DU?$char_traits@D@std@@@std@@QAEHXZ 0048d268     msvcprt:MSVCP140.dll
 0002:0000026c       __imp_?sbumpc@?$basic_streambuf@DU?$char_traits@D@std@@@std@@QAEHXZ 0048d26c     msvcprt:MSVCP140.dll
 0002:00000270       __imp_??6?$basic_ostream@DU?$char_traits@D@std@@@std@@QAEAAV01@N@Z 0048d270     msvcprt:MSVCP140.dll
 0002:00000274       __imp_?cout@std@@3V?$basic_ostream@DU?$char_traits@D@std@@@1@A 0048d274     msvcprt:MSVCP140.dll
 0002:00000278       __imp_?in@?$codecvt@DDU_Mbstatet@@@std@@QBEHAAU_Mbstatet@@PBD1AAPBDPAD3AAPAD@Z 0048d278     msvcprt:MSVCP140.dll
 0002:0000027c       __imp_?_BADOFF@std@@3_JB   0048d27c     msvcprt:MSVCP140.dll
 0002:00000280       __imp_?xsputn@?$basic_streambuf@DU?$char_traits@D@std@@@std@@MAE_JPBD_J@Z 0048d280     msvcprt:MSVCP140.dll
 0002:00000284       __imp_?xsgetn@?$basic_streambuf@DU?$char_traits@D@std@@@std@@MAE_JPAD_J@Z 0048d284     msvcprt:MSVCP140.dll
 0002:00000288       __imp_?showmanyc@?$basic_streambuf@DU?$char_traits@D@std@@@std@@MAE_JXZ 0048d288     msvcprt:MSVCP140.dll
 0002:0000028c       __imp_?_Fiopen@std@@YAPAU_iobuf@@PBDHH@Z 0048d28c     msvcprt:MSVCP140.dll
 0002:00000290       __imp_??1?$basic_istream@DU?$char_traits@D@std@@@std@@UAE@XZ 0048d290     msvcprt:MSVCP140.dll
 0002:00000294       __imp_??0?$basic_istream@DU?$char_traits@D@std@@@std@@QAE@PAV?$basic_streambuf@DU?$char_traits@D@std@@@1@_N@Z 0048d294     msvcprt:MSVCP140.dll
 0002:00000298       __imp_??6?$basic_ostream@DU?$char_traits@D@std@@@std@@QAEAAV01@H@Z 0048d298     msvcprt:MSVCP140.dll
 0002:0000029c       __imp_??6?$basic_ostream@DU?$char_traits@D@std@@@std@@QAEAAV01@_N@Z 0048d29c     msvcprt:MSVCP140.dll
 0002:000002a0       __imp_??0?$basic_ios@DU?$char_traits@D@std@@@std@@IAE@XZ 0048d2a0     msvcprt:MSVCP140.dll
 0002:000002a4       __imp_??1?$basic_ios@DU?$char_traits@D@std@@@std@@UAE@XZ 0048d2a4     msvcprt:MSVCP140.dll
 0002:000002a8       __imp_?_Init@?$basic_streambuf@DU?$char_traits@D@std@@@std@@IAEXXZ 0048d2a8     msvcprt:MSVCP140.dll
 0002:000002ac       __imp_?getloc@?$basic_streambuf@DU?$char_traits@D@std@@@std@@QBE?AVlocale@2@XZ 0048d2ac     msvcprt:MSVCP140.dll
 0002:000002b0       __imp_??1?$basic_streambuf@DU?$char_traits@D@std@@@std@@UAE@XZ 0048d2b0     msvcprt:MSVCP140.dll
 0002:000002b4       __imp_??0?$basic_streambuf@DU?$char_traits@D@std@@@std@@IAE@XZ 0048d2b4     msvcprt:MSVCP140.dll
 0002:000002b8       __imp_?_Getcat@?$codecvt@DDU_Mbstatet@@@std@@SAIPAPBVfacet@locale@2@PBV42@@Z 0048d2b8     msvcprt:MSVCP140.dll
 0002:000002bc       __imp_?unshift@?$codecvt@DDU_Mbstatet@@@std@@QBEHAAU_Mbstatet@@PAD1AAPAD@Z 0048d2bc     msvcprt:MSVCP140.dll
 0002:000002c0       __imp_?out@?$codecvt@DDU_Mbstatet@@@std@@QBEHAAU_Mbstatet@@PBD1AAPBDPAD3AAPAD@Z 0048d2c0     msvcprt:MSVCP140.dll
 0002:000002c4       __imp_?uncaught_exception@std@@YA_NXZ 0048d2c4     msvcprt:MSVCP140.dll
 0002:000002c8       \177MSVCP140_NULL_THUNK_DATA 0048d2c8     msvcprt:MSVCP140.dll
 0002:000002cc       __imp__glLightfv@12        0048d2cc     opengl32:OPENGL32.dll
 0002:000002d0       __imp__glLightModeli@8     0048d2d0     opengl32:OPENGL32.dll
 0002:000002d4       __imp__glLightModelfv@8    0048d2d4     opengl32:OPENGL32.dll
 0002:000002d8       __imp__glGetError@0        0048d2d8     opengl32:OPENGL32.dll
 0002:000002dc       __imp__glGenTextures@8     0048d2dc     opengl32:OPENGL32.dll
 0002:000002e0       __imp__glGenLists@4        0048d2e0     opengl32:OPENGL32.dll
 0002:000002e4       __imp__glEndList@0         0048d2e4     opengl32:OPENGL32.dll
 0002:000002e8       __imp__glEnd@0             0048d2e8     opengl32:OPENGL32.dll
 0002:000002ec       __imp__glEnable@4          0048d2ec     opengl32:OPENGL32.dll
 0002:000002f0       __imp__glDisable@4         0048d2f0     opengl32:OPENGL32.dll
 0002:000002f4       __imp__glColor4f@16        0048d2f4     opengl32:OPENGL32.dll
 0002:000002f8       __imp__glColor3f@12        0048d2f8     opengl32:OPENGL32.dll
 0002:000002fc       __imp__glClear@4           0048d2fc     opengl32:OPENGL32.dll
 0002:00000300       __imp__glCallLists@12      0048d300     opengl32:OPENGL32.dll
 0002:00000304       __imp__glBlendFunc@8       0048d304     opengl32:OPENGL32.dll
 0002:00000308       __imp__glBitmap@28         0048d308     opengl32:OPENGL32.dll
 0002:0000030c       __imp__glBindTexture@8     0048d30c     opengl32:OPENGL32.dll
 0002:00000310       __imp__glBegin@4           0048d310     opengl32:OPENGL32.dll
 0002:00000314       __imp__glLineStipple@8     0048d314     opengl32:OPENGL32.dll
 0002:00000318       __imp__glListBase@4        0048d318     opengl32:OPENGL32.dll
 0002:0000031c       __imp__glLoadIdentity@0    0048d31c     opengl32:OPENGL32.dll
 0002:00000320       __imp__glMaterialfv@12     0048d320     opengl32:OPENGL32.dll
 0002:00000324       __imp__glMatrixMode@4      0048d324     opengl32:OPENGL32.dll
 0002:00000328       __imp__glMultMatrixd@4     0048d328     opengl32:OPENGL32.dll
 0002:0000032c       __imp__glNewList@8         0048d32c     opengl32:OPENGL32.dll
 0002:00000330       __imp__glPixelStorei@8     0048d330     opengl32:OPENGL32.dll
 0002:00000334       __imp__glVertex2i@8        0048d334     opengl32:OPENGL32.dll
 0002:00000338       __imp__glRasterPos2f@8     0048d338     opengl32:OPENGL32.dll
 0002:0000033c       __imp__glDeleteLists@8     0048d33c     opengl32:OPENGL32.dll
 0002:00000340       __imp__glColor3ub@12       0048d340     opengl32:OPENGL32.dll
 0002:00000344       __imp__wglUseFontBitmapsW@16 0048d344     opengl32:OPENGL32.dll
 0002:00000348       __imp__glReadPixels@28     0048d348     opengl32:OPENGL32.dll
 0002:0000034c       __imp__glPushClientAttrib@4 0048d34c     opengl32:OPENGL32.dll
 0002:00000350       __imp__glPopClientAttrib@0 0048d350     opengl32:OPENGL32.dll
 0002:00000354       __imp__wglShareLists@8     0048d354     opengl32:OPENGL32.dll
 0002:00000358       __imp__wglMakeCurrent@8    0048d358     opengl32:OPENGL32.dll
 0002:0000035c       __imp__wglDeleteContext@4  0048d35c     opengl32:OPENGL32.dll
 0002:00000360       __imp__wglCreateLayerContext@8 0048d360     opengl32:OPENGL32.dll
 0002:00000364       __imp__wglCreateContext@4  0048d364     opengl32:OPENGL32.dll
 0002:00000368       __imp__glReadBuffer@4      0048d368     opengl32:OPENGL32.dll
 0002:0000036c       __imp__glOrtho@48          0048d36c     opengl32:OPENGL32.dll
 0002:00000370       __imp__glCopyPixels@20     0048d370     opengl32:OPENGL32.dll
 0002:00000374       __imp__glRasterPos2i@8     0048d374     opengl32:OPENGL32.dll
 0002:00000378       __imp__glFlush@0           0048d378     opengl32:OPENGL32.dll
 0002:0000037c       __imp__glDrawPixels@20     0048d37c     opengl32:OPENGL32.dll
 0002:00000380       __imp__glDrawBuffer@4      0048d380     opengl32:OPENGL32.dll
 0002:00000384       __imp__glClearColor@16     0048d384     opengl32:OPENGL32.dll
 0002:00000388       __imp__glScaled@24         0048d388     opengl32:OPENGL32.dll
 0002:0000038c       __imp__glRotated@32        0048d38c     opengl32:OPENGL32.dll
 0002:00000390       __imp__glNormal3dv@4       0048d390     opengl32:OPENGL32.dll
 0002:00000394       __imp__glNormal3d@24       0048d394     opengl32:OPENGL32.dll
 0002:00000398       __imp__glMaterialf@12      0048d398     opengl32:OPENGL32.dll
 0002:0000039c       __imp__glLoadMatrixf@4     0048d39c     opengl32:OPENGL32.dll
 0002:000003a0       __imp__glLightf@12         0048d3a0     opengl32:OPENGL32.dll
 0002:000003a4       __imp__glGetIntegerv@8     0048d3a4     opengl32:OPENGL32.dll
 0002:000003a8       __imp__glGetFloatv@8       0048d3a8     opengl32:OPENGL32.dll
 0002:000003ac       __imp__glColor3fv@4        0048d3ac     opengl32:OPENGL32.dll
 0002:000003b0       __imp__glCallList@4        0048d3b0     opengl32:OPENGL32.dll
 0002:000003b4       __imp__glViewport@16       0048d3b4     opengl32:OPENGL32.dll
 0002:000003b8       __imp__glVertex3dv@4       0048d3b8     opengl32:OPENGL32.dll
 0002:000003bc       __imp__glVertex3d@24       0048d3bc     opengl32:OPENGL32.dll
 0002:000003c0       __imp__glTranslatef@12     0048d3c0     opengl32:OPENGL32.dll
 0002:000003c4       __imp__glTranslated@24     0048d3c4     opengl32:OPENGL32.dll
 0002:000003c8       __imp__glTexParameteri@12  0048d3c8     opengl32:OPENGL32.dll
 0002:000003cc       __imp__glTexCoord2f@8      0048d3cc     opengl32:OPENGL32.dll
 0002:000003d0       __imp__glShadeModel@4      0048d3d0     opengl32:OPENGL32.dll
 0002:000003d4       __imp__glRasterPos3f@12    0048d3d4     opengl32:OPENGL32.dll
 0002:000003d8       __imp__glPushMatrix@0      0048d3d8     opengl32:OPENGL32.dll
 0002:000003dc       __imp__glPushAttrib@4      0048d3dc     opengl32:OPENGL32.dll
 0002:000003e0       __imp__glPopMatrix@0       0048d3e0     opengl32:OPENGL32.dll
 0002:000003e4       __imp__glPopAttrib@0       0048d3e4     opengl32:OPENGL32.dll
 0002:000003e8       __imp__glPolygonMode@8     0048d3e8     opengl32:OPENGL32.dll
 0002:000003ec       \177OPENGL32_NULL_THUNK_DATA 0048d3ec     opengl32:OPENGL32.dll
 0002:000003f0       __imp__DragQueryFileW@16   0048d3f0     shell32:SHELL32.dll
 0002:000003f4       \177SHELL32_NULL_THUNK_DATA 0048d3f4     shell32:SHELL32.dll
 0002:000003f8       __imp__DefWindowProcA@16   0048d3f8     user32:USER32.dll
 0002:000003fc       __imp__DispatchMessageA@4  0048d3fc     user32:USER32.dll
 0002:00000400       __imp__DestroyWindow@4     0048d400     user32:USER32.dll
 0002:00000404       __imp__GetDCEx@12          0048d404     user32:USER32.dll
 0002:00000408       __imp__CreateWindowExA@48  0048d408     user32:USER32.dll
 0002:0000040c       __imp__PeekMessageA@20     0048d40c     user32:USER32.dll
 0002:00000410       __imp__GetMessageA@16      0048d410     user32:USER32.dll
 0002:00000414       __imp__SetWindowPos@28     0048d414     user32:USER32.dll
 0002:00000418       __imp__SetForegroundWindow@4 0048d418     user32:USER32.dll
 0002:0000041c       __imp__GetDC@4             0048d41c     user32:USER32.dll
 0002:00000420       __imp__GetWindowRect@8     0048d420     user32:USER32.dll
 0002:00000424       __imp__AdjustWindowRect@12 0048d424     user32:USER32.dll
 0002:00000428       __imp__GetWindowLongA@8    0048d428     user32:USER32.dll
 0002:0000042c       __imp__SetWindowLongA@12   0048d42c     user32:USER32.dll
 0002:00000430       __imp__ChangeDisplaySettingsA@8 0048d430     user32:USER32.dll
 0002:00000434       __imp__EnumDisplaySettingsA@12 0048d434     user32:USER32.dll
 0002:00000438       __imp__GetKeyboardLayout@4 0048d438     user32:USER32.dll
 0002:0000043c       __imp__SetActiveWindow@4   0048d43c     user32:USER32.dll
 0002:00000440       __imp__SetRect@20          0048d440     user32:USER32.dll
 0002:00000444       __imp__SetWindowRgn@12     0048d444     user32:USER32.dll
 0002:00000448       __imp__WindowFromPoint@8   0048d448     user32:USER32.dll
 0002:0000044c       __imp__MessageBoxA@16      0048d44c     user32:USER32.dll
 0002:00000450       __imp__GetSysColor@4       0048d450     user32:USER32.dll
 0002:00000454       __imp__FillRect@12         0048d454     user32:USER32.dll
 0002:00000458       __imp__PostThreadMessageA@16 0048d458     user32:USER32.dll
 0002:0000045c       __imp__MessageBeep@4       0048d45c     user32:USER32.dll
 0002:00000460       __imp__SystemParametersInfoA@16 0048d460     user32:USER32.dll
 0002:00000464       __imp__CopyIcon@4          0048d464     user32:USER32.dll
 0002:00000468       __imp__CreateIconIndirect@4 0048d468     user32:USER32.dll
 0002:0000046c       __imp__DestroyIcon@4       0048d46c     user32:USER32.dll
 0002:00000470       __imp__LoadIconA@8         0048d470     user32:USER32.dll
 0002:00000474       __imp__LoadCursorA@8       0048d474     user32:USER32.dll
 0002:00000478       __imp__GetWindow@8         0048d478     user32:USER32.dll
 0002:0000047c       __imp__GetParent@4         0048d47c     user32:USER32.dll
 0002:00000480       __imp__MapWindowPoints@16  0048d480     user32:USER32.dll
 0002:00000484       __imp__ClientToScreen@8    0048d484     user32:USER32.dll
 0002:00000488       __imp__GetCursorPos@4      0048d488     user32:USER32.dll
 0002:0000048c       __imp__SetCursor@4         0048d48c     user32:USER32.dll
 0002:00000490       __imp__AdjustWindowRectEx@16 0048d490     user32:USER32.dll
 0002:00000494       __imp__SetWindowTextW@8    0048d494     user32:USER32.dll
 0002:00000498       __imp__ValidateRgn@8       0048d498     user32:USER32.dll
 0002:0000049c       __imp__InvalidateRect@12   0048d49c     user32:USER32.dll
 0002:000004a0       __imp__GetUpdateRgn@12     0048d4a0     user32:USER32.dll
 0002:000004a4       __imp__ReleaseDC@8         0048d4a4     user32:USER32.dll
 0002:000004a8       __imp__GetForegroundWindow@0 0048d4a8     user32:USER32.dll
 0002:000004ac       __imp__GetSystemMetrics@4  0048d4ac     user32:USER32.dll
 0002:000004b0       __imp__KillTimer@8         0048d4b0     user32:USER32.dll
 0002:000004b4       __imp__SetTimer@16         0048d4b4     user32:USER32.dll
 0002:000004b8       __imp__MsgWaitForMultipleObjects@20 0048d4b8     user32:USER32.dll
 0002:000004bc       __imp__ReleaseCapture@0    0048d4bc     user32:USER32.dll
 0002:000004c0       __imp__SetCapture@4        0048d4c0     user32:USER32.dll
 0002:000004c4       __imp__GetAsyncKeyState@4  0048d4c4     user32:USER32.dll
 0002:000004c8       __imp__GetKeyState@4       0048d4c8     user32:USER32.dll
 0002:000004cc       __imp__SetFocus@4          0048d4cc     user32:USER32.dll
 0002:000004d0       __imp__IsClipboardFormatAvailable@4 0048d4d0     user32:USER32.dll
 0002:000004d4       __imp__EmptyClipboard@0    0048d4d4     user32:USER32.dll
 0002:000004d8       __imp__GetClipboardData@4  0048d4d8     user32:USER32.dll
 0002:000004dc       __imp__SetClipboardData@8  0048d4dc     user32:USER32.dll
 0002:000004e0       __imp__ChangeClipboardChain@8 0048d4e0     user32:USER32.dll
 0002:000004e4       __imp__SetClipboardViewer@4 0048d4e4     user32:USER32.dll
 0002:000004e8       __imp__GetClipboardOwner@0 0048d4e8     user32:USER32.dll
 0002:000004ec       __imp__CloseClipboard@0    0048d4ec     user32:USER32.dll
 0002:000004f0       __imp__OpenClipboard@4     0048d4f0     user32:USER32.dll
 0002:000004f4       __imp__BringWindowToTop@4  0048d4f4     user32:USER32.dll
 0002:000004f8       __imp__IsIconic@4          0048d4f8     user32:USER32.dll
 0002:000004fc       __imp__OpenIcon@4          0048d4fc     user32:USER32.dll
 0002:00000500       __imp__IsWindow@4          0048d500     user32:USER32.dll
 0002:00000504       __imp__CreateWindowExW@48  0048d504     user32:USER32.dll
 0002:00000508       __imp__RegisterClassExW@4  0048d508     user32:USER32.dll
 0002:0000050c       __imp__RegisterClassExA@4  0048d50c     user32:USER32.dll
 0002:00000510       __imp__RegisterWindowMessageW@4 0048d510     user32:USER32.dll
 0002:00000514       __imp__TranslateMessage@4  0048d514     user32:USER32.dll
 0002:00000518       __imp__DispatchMessageW@4  0048d518     user32:USER32.dll
 0002:0000051c       __imp__PeekMessageW@20     0048d51c     user32:USER32.dll
 0002:00000520       __imp__SendMessageA@16     0048d520     user32:USER32.dll
 0002:00000524       __imp__PostMessageA@16     0048d524     user32:USER32.dll
 0002:00000528       __imp__DefWindowProcW@16   0048d528     user32:USER32.dll
 0002:0000052c       __imp__ShowWindow@8        0048d52c     user32:USER32.dll
 0002:00000530       \177USER32_NULL_THUNK_DATA 0048d530     user32:USER32.dll
 0002:00000534       __imp___vcomp_for_static_simple_init 0048d534     VCOMP:VCOMP140.DLL
 0002:00000538       __imp___vcomp_for_static_end 0048d538     VCOMP:VCOMP140.DLL
 0002:0000053c       __imp___vcomp_fork         0048d53c     VCOMP:VCOMP140.DLL
 0002:00000540       \177VCOMP140_NULL_THUNK_DATA 0048d540     VCOMP:VCOMP140.DLL
 0002:00000544       __imp____vcrt_InitializeCriticalSectionEx 0048d544     vcruntime:VCRUNTIME140.dll
 0002:00000548       __imp__strrchr             0048d548     vcruntime:VCRUNTIME140.dll
 0002:0000054c       __imp____std_type_info_destroy_list 0048d54c     vcruntime:VCRUNTIME140.dll
 0002:00000550       __imp___purecall           0048d550     vcruntime:VCRUNTIME140.dll
 0002:00000554       __imp__memset              0048d554     vcruntime:VCRUNTIME140.dll
 0002:00000558       __imp___except_handler4_common 0048d558     vcruntime:VCRUNTIME140.dll
 0002:0000055c       __imp__strstr              0048d55c     vcruntime:VCRUNTIME140.dll
 0002:00000560       __imp__memcpy              0048d560     vcruntime:VCRUNTIME140.dll
 0002:00000564       __imp__memmove             0048d564     vcruntime:VCRUNTIME140.dll
 0002:00000568       __imp__strchr              0048d568     vcruntime:VCRUNTIME140.dll
 0002:0000056c       __imp____std_terminate     0048d56c     vcruntime:VCRUNTIME140.dll
 0002:00000570       __imp____std_exception_copy 0048d570     vcruntime:VCRUNTIME140.dll
 0002:00000574       __imp____std_exception_destroy 0048d574     vcruntime:VCRUNTIME140.dll
 0002:00000578       __imp___CxxThrowException@8 0048d578     vcruntime:VCRUNTIME140.dll
 0002:0000057c       __imp____CxxFrameHandler3  0048d57c     vcruntime:VCRUNTIME140.dll
 0002:00000580       __imp__memchr              0048d580     vcruntime:VCRUNTIME140.dll
 0002:00000584       \177VCRUNTIME140_NULL_THUNK_DATA 0048d584     vcruntime:VCRUNTIME140.dll
 0002:00000588       __imp__atoi                0048d588     ucrt:api-ms-win-crt-convert-l1-1-0.dll
 0002:0000058c       __imp__strtol              0048d58c     ucrt:api-ms-win-crt-convert-l1-1-0.dll
 0002:00000590       __imp__atof                0048d590     ucrt:api-ms-win-crt-convert-l1-1-0.dll
 0002:00000594       __imp__atol                0048d594     ucrt:api-ms-win-crt-convert-l1-1-0.dll
 0002:00000598       __imp__wcstombs            0048d598     ucrt:api-ms-win-crt-convert-l1-1-0.dll
 0002:0000059c       \177api-ms-win-crt-convert-l1-1-0_NULL_THUNK_DATA 0048d59c     ucrt:api-ms-win-crt-convert-l1-1-0.dll
 0002:000005a0       __imp___wgetcwd            0048d5a0     ucrt:api-ms-win-crt-environment-l1-1-0.dll
 0002:000005a4       __imp___wgetenv            0048d5a4     ucrt:api-ms-win-crt-environment-l1-1-0.dll
 0002:000005a8       __imp__getenv              0048d5a8     ucrt:api-ms-win-crt-environment-l1-1-0.dll
 0002:000005ac       __imp___putenv             0048d5ac     ucrt:api-ms-win-crt-environment-l1-1-0.dll
 0002:000005b0       \177api-ms-win-crt-environment-l1-1-0_NULL_THUNK_DATA 0048d5b0     ucrt:api-ms-win-crt-environment-l1-1-0.dll
 0002:000005b4       __imp___access             0048d5b4     ucrt:api-ms-win-crt-filesystem-l1-1-0.dll
 0002:000005b8       __imp___waccess            0048d5b8     ucrt:api-ms-win-crt-filesystem-l1-1-0.dll
 0002:000005bc       __imp___wchmod             0048d5bc     ucrt:api-ms-win-crt-filesystem-l1-1-0.dll
 0002:000005c0       __imp___wunlink            0048d5c0     ucrt:api-ms-win-crt-filesystem-l1-1-0.dll
 0002:000005c4       __imp___wrename            0048d5c4     ucrt:api-ms-win-crt-filesystem-l1-1-0.dll
 0002:000005c8       __imp___wmkdir             0048d5c8     ucrt:api-ms-win-crt-filesystem-l1-1-0.dll
 0002:000005cc       __imp___wrmdir             0048d5cc     ucrt:api-ms-win-crt-filesystem-l1-1-0.dll
 0002:000005d0       __imp___splitpath          0048d5d0     ucrt:api-ms-win-crt-filesystem-l1-1-0.dll
 0002:000005d4       __imp___lock_file          0048d5d4     ucrt:api-ms-win-crt-filesystem-l1-1-0.dll
 0002:000005d8       __imp___unlock_file        0048d5d8     ucrt:api-ms-win-crt-filesystem-l1-1-0.dll
 0002:000005dc       __imp___wstat64i32         0048d5dc     ucrt:api-ms-win-crt-filesystem-l1-1-0.dll
 0002:000005e0       __imp__remove              0048d5e0     ucrt:api-ms-win-crt-filesystem-l1-1-0.dll
 0002:000005e4       __imp___mkdir              0048d5e4     ucrt:api-ms-win-crt-filesystem-l1-1-0.dll
 0002:000005e8       \177api-ms-win-crt-filesystem-l1-1-0_NULL_THUNK_DATA 0048d5e8     ucrt:api-ms-win-crt-filesystem-l1-1-0.dll
 0002:000005ec       __imp__calloc              0048d5ec     ucrt:api-ms-win-crt-heap-l1-1-0.dll
 0002:000005f0       __imp___callnewh           0048d5f0     ucrt:api-ms-win-crt-heap-l1-1-0.dll
 0002:000005f4       __imp__realloc             0048d5f4     ucrt:api-ms-win-crt-heap-l1-1-0.dll
 0002:000005f8       __imp__malloc              0048d5f8     ucrt:api-ms-win-crt-heap-l1-1-0.dll
 0002:000005fc       __imp__free                0048d5fc     ucrt:api-ms-win-crt-heap-l1-1-0.dll
 0002:00000600       __imp___set_new_mode       0048d600     ucrt:api-ms-win-crt-heap-l1-1-0.dll
 0002:00000604       \177api-ms-win-crt-heap-l1-1-0_NULL_THUNK_DATA 0048d604     ucrt:api-ms-win-crt-heap-l1-1-0.dll
 0002:00000608       __imp___configthreadlocale 0048d608     ucrt:api-ms-win-crt-locale-l1-1-0.dll
 0002:0000060c       __imp__localeconv          0048d60c     ucrt:api-ms-win-crt-locale-l1-1-0.dll
 0002:00000610       \177api-ms-win-crt-locale-l1-1-0_NULL_THUNK_DATA 0048d610     ucrt:api-ms-win-crt-locale-l1-1-0.dll
 0002:00000614       __imp__ceil                0048d614     ucrt:api-ms-win-crt-math-l1-1-0.dll
 0002:00000618       __imp___libm_sse2_sin_precise 0048d618     ucrt:api-ms-win-crt-math-l1-1-0.dll
 0002:0000061c       __imp___libm_sse2_tan_precise 0048d61c     ucrt:api-ms-win-crt-math-l1-1-0.dll
 0002:00000620       __imp___libm_sse2_acos_precise 0048d620     ucrt:api-ms-win-crt-math-l1-1-0.dll
 0002:00000624       __imp___libm_sse2_pow_precise 0048d624     ucrt:api-ms-win-crt-math-l1-1-0.dll
 0002:00000628       __imp___except1            0048d628     ucrt:api-ms-win-crt-math-l1-1-0.dll
 0002:0000062c       __imp___libm_sse2_sqrt_precise 0048d62c     ucrt:api-ms-win-crt-math-l1-1-0.dll
 0002:00000630       __imp___CIfmod             0048d630     ucrt:api-ms-win-crt-math-l1-1-0.dll
 0002:00000634       __imp__log2                0048d634     ucrt:api-ms-win-crt-math-l1-1-0.dll
 0002:00000638       __imp___libm_sse2_cos_precise 0048d638     ucrt:api-ms-win-crt-math-l1-1-0.dll
 0002:0000063c       __imp__floor               0048d63c     ucrt:api-ms-win-crt-math-l1-1-0.dll
 0002:00000640       __imp___libm_sse2_log_precise 0048d640     ucrt:api-ms-win-crt-math-l1-1-0.dll
 0002:00000644       __imp____setusermatherr    0048d644     ucrt:api-ms-win-crt-math-l1-1-0.dll
 0002:00000648       \177api-ms-win-crt-math-l1-1-0_NULL_THUNK_DATA 0048d648     ucrt:api-ms-win-crt-math-l1-1-0.dll
 0002:0000064c       __imp___wexecvp            0048d64c     ucrt:api-ms-win-crt-process-l1-1-0.dll
 0002:00000650       \177api-ms-win-crt-process-l1-1-0_NULL_THUNK_DATA 0048d650     ucrt:api-ms-win-crt-process-l1-1-0.dll
 0002:00000654       __imp___errno              0048d654     ucrt:api-ms-win-crt-runtime-l1-1-0.dll
 0002:00000658       __imp___invalid_parameter_noinfo_noreturn 0048d658     ucrt:api-ms-win-crt-runtime-l1-1-0.dll
 0002:0000065c       __imp___invalid_parameter_noinfo 0048d65c     ucrt:api-ms-win-crt-runtime-l1-1-0.dll
 0002:00000660       __imp__raise               0048d660     ucrt:api-ms-win-crt-runtime-l1-1-0.dll
 0002:00000664       __imp__exit                0048d664     ucrt:api-ms-win-crt-runtime-l1-1-0.dll
 0002:00000668       __imp___controlfp_s        0048d668     ucrt:api-ms-win-crt-runtime-l1-1-0.dll
 0002:0000066c       __imp___register_thread_local_exe_atexit_callback 0048d66c     ucrt:api-ms-win-crt-runtime-l1-1-0.dll
 0002:00000670       __imp___c_exit             0048d670     ucrt:api-ms-win-crt-runtime-l1-1-0.dll
 0002:00000674       __imp____p___argv          0048d674     ucrt:api-ms-win-crt-runtime-l1-1-0.dll
 0002:00000678       __imp____p___argc          0048d678     ucrt:api-ms-win-crt-runtime-l1-1-0.dll
 0002:0000067c       __imp___exit               0048d67c     ucrt:api-ms-win-crt-runtime-l1-1-0.dll
 0002:00000680       __imp___initterm_e         0048d680     ucrt:api-ms-win-crt-runtime-l1-1-0.dll
 0002:00000684       __imp___initterm           0048d684     ucrt:api-ms-win-crt-runtime-l1-1-0.dll
 0002:00000688       __imp__strerror            0048d688     ucrt:api-ms-win-crt-runtime-l1-1-0.dll
 0002:0000068c       __imp___wsystem            0048d68c     ucrt:api-ms-win-crt-runtime-l1-1-0.dll
 0002:00000690       __imp___get_initial_narrow_environment 0048d690     ucrt:api-ms-win-crt-runtime-l1-1-0.dll
 0002:00000694       __imp___set_app_type       0048d694     ucrt:api-ms-win-crt-runtime-l1-1-0.dll
 0002:00000698       __imp___seh_filter_exe     0048d698     ucrt:api-ms-win-crt-runtime-l1-1-0.dll
 0002:0000069c       __imp__terminate           0048d69c     ucrt:api-ms-win-crt-runtime-l1-1-0.dll
 0002:000006a0       __imp___cexit              0048d6a0     ucrt:api-ms-win-crt-runtime-l1-1-0.dll
 0002:000006a4       __imp___crt_at_quick_exit  0048d6a4     ucrt:api-ms-win-crt-runtime-l1-1-0.dll
 0002:000006a8       __imp___crt_atexit         0048d6a8     ucrt:api-ms-win-crt-runtime-l1-1-0.dll
 0002:000006ac       __imp___execute_onexit_table 0048d6ac     ucrt:api-ms-win-crt-runtime-l1-1-0.dll
 0002:000006b0       __imp___register_onexit_function 0048d6b0     ucrt:api-ms-win-crt-runtime-l1-1-0.dll
 0002:000006b4       __imp___initialize_onexit_table 0048d6b4     ucrt:api-ms-win-crt-runtime-l1-1-0.dll
 0002:000006b8       __imp___initialize_narrow_environment 0048d6b8     ucrt:api-ms-win-crt-runtime-l1-1-0.dll
 0002:000006bc       __imp___configure_narrow_argv 0048d6bc     ucrt:api-ms-win-crt-runtime-l1-1-0.dll
 0002:000006c0       __imp___seh_filter_dll     0048d6c0     ucrt:api-ms-win-crt-runtime-l1-1-0.dll
 0002:000006c4       \177api-ms-win-crt-runtime-l1-1-0_NULL_THUNK_DATA 0048d6c4     ucrt:api-ms-win-crt-runtime-l1-1-0.dll
 0002:000006c8       __imp__fopen               0048d6c8     ucrt:api-ms-win-crt-stdio-l1-1-0.dll
 0002:000006cc       __imp___get_stream_buffer_pointers 0048d6cc     ucrt:api-ms-win-crt-stdio-l1-1-0.dll
 0002:000006d0       __imp__ferror              0048d6d0     ucrt:api-ms-win-crt-stdio-l1-1-0.dll
 0002:000006d4       __imp__fclose              0048d6d4     ucrt:api-ms-win-crt-stdio-l1-1-0.dll
 0002:000006d8       __imp__fflush              0048d6d8     ucrt:api-ms-win-crt-stdio-l1-1-0.dll
 0002:000006dc       __imp__fread               0048d6dc     ucrt:api-ms-win-crt-stdio-l1-1-0.dll
 0002:000006e0       __imp__fseek               0048d6e0     ucrt:api-ms-win-crt-stdio-l1-1-0.dll
 0002:000006e4       __imp____stdio_common_vfscanf 0048d6e4     ucrt:api-ms-win-crt-stdio-l1-1-0.dll
 0002:000006e8       __imp____stdio_common_vsscanf 0048d6e8     ucrt:api-ms-win-crt-stdio-l1-1-0.dll
 0002:000006ec       __imp__fgetc               0048d6ec     ucrt:api-ms-win-crt-stdio-l1-1-0.dll
 0002:000006f0       __imp___wfopen             0048d6f0     ucrt:api-ms-win-crt-stdio-l1-1-0.dll
 0002:000006f4       __imp____stdio_common_vsprintf 0048d6f4     ucrt:api-ms-win-crt-stdio-l1-1-0.dll
 0002:000006f8       __imp__fgetpos             0048d6f8     ucrt:api-ms-win-crt-stdio-l1-1-0.dll
 0002:000006fc       __imp__fputc               0048d6fc     ucrt:api-ms-win-crt-stdio-l1-1-0.dll
 0002:00000700       __imp____stdio_common_vfprintf 0048d700     ucrt:api-ms-win-crt-stdio-l1-1-0.dll
 0002:00000704       __imp__fsetpos             0048d704     ucrt:api-ms-win-crt-stdio-l1-1-0.dll
 0002:00000708       __imp___wsopen_dispatch    0048d708     ucrt:api-ms-win-crt-stdio-l1-1-0.dll
 0002:0000070c       __imp___fseeki64           0048d70c     ucrt:api-ms-win-crt-stdio-l1-1-0.dll
 0002:00000710       __imp__fwrite              0048d710     ucrt:api-ms-win-crt-stdio-l1-1-0.dll
 0002:00000714       __imp___set_fmode          0048d714     ucrt:api-ms-win-crt-stdio-l1-1-0.dll
 0002:00000718       __imp__setvbuf             0048d718     ucrt:api-ms-win-crt-stdio-l1-1-0.dll
 0002:0000071c       __imp__ungetc              0048d71c     ucrt:api-ms-win-crt-stdio-l1-1-0.dll
 0002:00000720       __imp__fgets               0048d720     ucrt:api-ms-win-crt-stdio-l1-1-0.dll
 0002:00000724       __imp____acrt_iob_func     0048d724     ucrt:api-ms-win-crt-stdio-l1-1-0.dll
 0002:00000728       __imp____p__commode        0048d728     ucrt:api-ms-win-crt-stdio-l1-1-0.dll
 0002:0000072c       \177api-ms-win-crt-stdio-l1-1-0_NULL_THUNK_DATA 0048d72c     ucrt:api-ms-win-crt-stdio-l1-1-0.dll
 0002:00000730       __imp___stricmp            0048d730     ucrt:api-ms-win-crt-string-l1-1-0.dll
 0002:00000734       __imp__strcspn             0048d734     ucrt:api-ms-win-crt-string-l1-1-0.dll
 0002:00000738       __imp__tolower             0048d738     ucrt:api-ms-win-crt-string-l1-1-0.dll
 0002:0000073c       __imp___strdup             0048d73c     ucrt:api-ms-win-crt-string-l1-1-0.dll
 0002:00000740       __imp__toupper             0048d740     ucrt:api-ms-win-crt-string-l1-1-0.dll
 0002:00000744       __imp__isupper             0048d744     ucrt:api-ms-win-crt-string-l1-1-0.dll
 0002:00000748       __imp__isspace             0048d748     ucrt:api-ms-win-crt-string-l1-1-0.dll
 0002:0000074c       __imp__islower             0048d74c     ucrt:api-ms-win-crt-string-l1-1-0.dll
 0002:00000750       __imp__ispunct             0048d750     ucrt:api-ms-win-crt-string-l1-1-0.dll
 0002:00000754       __imp__isdigit             0048d754     ucrt:api-ms-win-crt-string-l1-1-0.dll
 0002:00000758       __imp__isalpha             0048d758     ucrt:api-ms-win-crt-string-l1-1-0.dll
 0002:0000075c       __imp__isxdigit            0048d75c     ucrt:api-ms-win-crt-string-l1-1-0.dll
 0002:00000760       __imp__strncmp             0048d760     ucrt:api-ms-win-crt-string-l1-1-0.dll
 0002:00000764       __imp__strncpy             0048d764     ucrt:api-ms-win-crt-string-l1-1-0.dll
 0002:00000768       __imp__isalnum             0048d768     ucrt:api-ms-win-crt-string-l1-1-0.dll
 0002:0000076c       __imp___strnicmp           0048d76c     ucrt:api-ms-win-crt-string-l1-1-0.dll
 0002:00000770       __imp__isprint             0048d770     ucrt:api-ms-win-crt-string-l1-1-0.dll
 0002:00000774       \177api-ms-win-crt-string-l1-1-0_NULL_THUNK_DATA 0048d774     ucrt:api-ms-win-crt-string-l1-1-0.dll
 0002:00000778       __imp___time64             0048d778     ucrt:api-ms-win-crt-time-l1-1-0.dll
 0002:0000077c       __imp__clock               0048d77c     ucrt:api-ms-win-crt-time-l1-1-0.dll
 0002:00000780       \177api-ms-win-crt-time-l1-1-0_NULL_THUNK_DATA 0048d780     ucrt:api-ms-win-crt-time-l1-1-0.dll
 0002:00000784       __imp__qsort               0048d784     ucrt:api-ms-win-crt-utility-l1-1-0.dll
 0002:00000788       __imp__bsearch             0048d788     ucrt:api-ms-win-crt-utility-l1-1-0.dll
 0002:0000078c       __imp__rand                0048d78c     ucrt:api-ms-win-crt-utility-l1-1-0.dll
 0002:00000790       __imp__srand               0048d790     ucrt:api-ms-win-crt-utility-l1-1-0.dll
 0002:00000794       \177api-ms-win-crt-utility-l1-1-0_NULL_THUNK_DATA 0048d794     ucrt:api-ms-win-crt-utility-l1-1-0.dll
 0002:00000798       __imp__DoDragDrop@16       0048d798     ole32:ole32.dll
 0002:0000079c       __imp__RegisterDragDrop@8  0048d79c     ole32:ole32.dll
 0002:000007a0       __imp__OleUninitialize@0   0048d7a0     ole32:ole32.dll
 0002:000007a4       __imp__OleInitialize@4     0048d7a4     ole32:ole32.dll
 0002:000007a8       __imp__ReleaseStgMedium@4  0048d7a8     ole32:ole32.dll
 0002:000007ac       \177ole32_NULL_THUNK_DATA  0048d7ac     ole32:ole32.dll
 0002:000007b0       ___guard_check_icall_fptr  0048d7b0     MSVCRT:guard_support.obj
 0002:000007b4       ___xc_a                    0048d7b4     MSVCRT:initializers.obj
 0002:000007e8       ___xc_z                    0048d7e8     MSVCRT:initializers.obj
 0002:000007ec       ___xi_a                    0048d7ec     MSVCRT:initializers.obj
 0002:000007fc       ___xi_z                    0048d7fc     MSVCRT:initializers.obj
 0002:00000800       ___xl_a                    0048d800     MSVCRT:tlssup.obj
 0002:00000804       ___xl_z                    0048d804     MSVCRT:tlssup.obj
 0002:00000808       ___xp_a                    0048d808     MSVCRT:initializers.obj
 0002:0000080c       ___xp_z                    0048d80c     MSVCRT:initializers.obj
 0002:00000810       ___xt_a                    0048d810     MSVCRT:initializers.obj
 0002:00000814       ___xt_z                    0048d814     MSVCRT:initializers.obj
 0002:00000824       ??_7exception@std@@6B@     0048d824     main.obj
 0002:0000082c       ??_C@_0BC@EOODALEL@Unknown?5exception?$AA@ 0048d82c     main.obj
 0002:00000840       ??_C@_0P@EHDHLDOK@ERROR?5in?5main?6?$AA@ 0048d840     main.obj
 0002:00000854       ??_7bad_cast@std@@6B@      0048d854     RayTracer.obj
 0002:0000085c       ??_C@_08EPJLHIJG@bad?5cast?$AA@ 0048d85c     RayTracer.obj
 0002:00000868       ??_C@_0BO@PMAMBHPG@ERROR?5in?5RayTracer?3?3traceRay?6?$AA@ 0048d868     RayTracer.obj
 0002:0000088c       ??_7?$basic_filebuf@DU?$char_traits@D@std@@@std@@6B@ 0048d88c     RayTracer.obj
 0002:000008cc       ??_7?$basic_ifstream@DU?$char_traits@D@std@@@std@@6B@ 0048d8cc     RayTracer.obj
 0002:000008d0       ??_8?$basic_ifstream@DU?$char_traits@D@std@@@std@@7B@ 0048d8d0     RayTracer.obj
 0002:000008d8       ??_C@_0CB@CMNMOCL@Error?3?5couldn?8t?5read?5scene?5file?5@ 0048d8d8     RayTracer.obj
 0002:000008fc       ??_C@_02HHAEMJFE@?2?1?$AA@ 0048d8fc     RayTracer.obj
 0002:00000900       ??_C@_01LFCBOECM@?4?$AA@   0048d900     RayTracer.obj
 0002:00000904       ??_C@_0BJ@FMNIMAIN@Parser?3?5fatal?5exception?5?$AA@ 0048d904     RayTracer.obj
 0002:00000920       ??_C@_0BM@JOJOBHEM@Texture?5mapping?5exception?3?5?$AA@ 0048d920     RayTracer.obj
 0002:0000093c       ??_C@_0L@OIEGGMJH@AA?5set?5to?5?$AA@ 0048d93c     RayTracer.obj
 0002:00000948       ??_C@_0BC@GMLGNDLL@KDTree?5is?5set?5to?5?$AA@ 0048d948     RayTracer.obj
 0002:0000095c       ??_C@_0BB@MOHPDGMC@Depth?5is?5set?5to?5?$AA@ 0048d95c     RayTracer.obj
 0002:00000970       ??_C@_0BA@JFNIOLAK@string?5too?5long?$AA@ 0048d970     RayTracer.obj
 0002:00000980       ??_C@_0BI@CFPLBAOH@invalid?5string?5position?$AA@ 0048d980     RayTracer.obj
 0002:00000998       __real@3ee4f8b588e368f1    0048d998     RayTracer.obj
 0002:000009a0       __real@3ff0000000000000    0048d9a0     RayTracer.obj
 0002:000009a8       __real@4000000000000000    0048d9a8     RayTracer.obj
 0002:000009b0       __real@404a800000000000    0048d9b0     RayTracer.obj
 0002:000009b8       __real@406fe00000000000    0048d9b8     RayTracer.obj
 0002:000009c0       __real@41f0000000000000    0048d9c0     RayTracer.obj
 0002:000009c8       __real@c000000000000000    0048d9c8     RayTracer.obj
 0002:000009d0       __xmm@3fd00000000000000000000000000000 0048d9d0     RayTracer.obj
 0002:000009e0       __xmm@3ff00000000000003ff0000000000000 0048d9e0     RayTracer.obj
 0002:000009f0       __xmm@41f00000000000000000000000000000 0048d9f0     RayTracer.obj
 0002:00000a00       __xmm@80000000000000008000000000000000 0048da00     RayTracer.obj
 0002:00000a14       ??_7TraceUI@@6B@           0048da14     CommandLineUI.obj
 0002:00000a30       ??_7CommandLineUI@@6B@     0048da30     CommandLineUI.obj
 0002:00000a48       ??_C@_09MHLJNJLD@r?3w?3bBaAh?$AA@ 0048da48     CommandLineUI.obj
 0002:00000a54       ??_C@_02DGLLHPKE@?8?4?$AA@ 0048da54     CommandLineUI.obj
 0002:00000a58       ??_C@_0BE@DAIMBGDF@Invalid?5argument?3?5?8?$AA@ 0048da58     CommandLineUI.obj
 0002:00000a6c       ??_C@_0BN@CFAJPOPK@no?5input?5and?1or?5output?5name?4?$AA@ 0048da6c     CommandLineUI.obj
 0002:00000a8c       ??_C@_04EEOGCCFB@?4png?$AA@ 0048da8c     CommandLineUI.obj
 0002:00000a94       ??_C@_08GFGBMIFC@?5seconds?$AA@ 0048da94     CommandLineUI.obj
 0002:00000aa0       ??_C@_0O@MBLBKPJJ@total?5time?5?$DN?5?$AA@ 0048daa0     CommandLineUI.obj
 0002:00000ab0       ??_C@_01GEODFPGF@?8?$AA@   0048dab0     CommandLineUI.obj
 0002:00000ab4       ??_C@_0BK@PGGNIJBI@Unable?5to?5load?5ray?5file?5?8?$AA@ 0048dab4     CommandLineUI.obj
 0002:00000ad0       ??_C@_0CC@FHJNLMCA@?5?$FLoptions?$FN?5?$FLinput?4ray?5output?4bmp@ 0048dad0     CommandLineUI.obj
 0002:00000af4       ??_C@_07PLNHEBKD@usage?3?5?$AA@ 0048daf4     CommandLineUI.obj
 0002:00000afc       ??_C@_01PKGAHCOL@?$CJ?$AA@ 0048dafc     CommandLineUI.obj
 0002:00000b00       ??_C@_0CM@DLNMLAOK@?5?5?9r?5?$DM?$CD?$DO?5?5?5?5?5?5set?5recursion?5leve@ 0048db00     CommandLineUI.obj
 0002:00000b2c       ??_C@_0CP@EJMAGDHO@?5?5?9w?5?$DM?$CD?$DO?5?5?5?5?5?5set?5output?5image?5w@ 0048db2c     CommandLineUI.obj
 0002:00000b60       ??_C@_0EH@GPGPOMN@?5?5?9b?5?5?5?5?5?5?5?5?5?5?$CITODO?$CJ?5enable?5acce@ 0048db60     CommandLineUI.obj
 0002:00000ba8       ??_C@_0DO@OHPGBHMM@?5?5?9B?5?5?5?5?5?5?5?5?5?5?$CITODO?$CJ?5disable?5acc@ 0048dba8     CommandLineUI.obj
 0002:00000be8       ??_C@_0CJ@HEBMACPC@?5?5?9a?5?5?5?5?5?5?5?5?5?5?$CITODO?$CJ?5enable?5anti@ 0048dbe8     CommandLineUI.obj
 0002:00000c14       ??_C@_0DE@OKPIAAJB@?5?5?9A?5?5?5?5?5?5?5?5?5?5?$CITODO?$CJ?5disable?5ant@ 0048dc14     CommandLineUI.obj
 0002:00000c48       ??_C@_0CI@HIBPNGKJ@?5?5?9h?5?5?5?5?5?5?5?5?5?5display?5this?5help?5@ 0048dc48     CommandLineUI.obj
 0002:00000c70       __real@3fe0000000000000    0048dc70     CommandLineUI.obj
 0002:00000c78       __real@408f400000000000    0048dc78     CommandLineUI.obj
 0002:00000c84       ??_7Fl_Gl_Window@@6B@      0048dc84     debuggingView.obj
 0002:00000cb4       ??_7DebuggingView@@6B@     0048dcb4     debuggingView.obj
 0002:00000ce0       ??_C@_0M@IHMOCJFO@method?5name?$AA@ 0048dce0     debuggingView.obj
 0002:00000cec       ??_C@_0BJ@BBEBHHEK@Error?3?5?$CF1s?5?$CI?$CFi?$CJ?5in?5?$CF1s?4?6?$AA@ 0048dcec     debuggingView.obj
 0002:00000d08       ??_C@_01MMEEDKFM@X?$AA@    0048dd08     debuggingView.obj
 0002:00000d0c       ??_C@_01NFFPALBN@Y?$AA@    0048dd0c     debuggingView.obj
 0002:00000d10       ??_C@_01POHCFINO@Z?$AA@    0048dd10     debuggingView.obj
 0002:00000d18       ??_C@_0ED@PENGFHIN@Not?5displaying?5all?5lights?5in?5deb@ 0048dd18     debuggingView.obj
 0002:00000d5c       ??_C@_0BD@OLBABOEK@vector?$DMT?$DO?5too?5long?$AA@ 0048dd5c     debuggingView.obj
 0002:00000d70       __real@3fe051eb851eb852    0048dd70     debuggingView.obj
 0002:00000d78       __real@403e000000000000    0048dd78     debuggingView.obj
 0002:00000d80       __real@bfe0000000000000    0048dd80     debuggingView.obj
 0002:00000d88       __real@bfe051eb851eb852    0048dd88     debuggingView.obj
 0002:00000d90       __xmm@3f800000000000000000000000000000 0048dd90     debuggingView.obj
 0002:00000da0       __xmm@3f8000003e4ccccd3dcccccd3dcccccd 0048dda0     debuggingView.obj
 0002:00000db0       __xmm@3f8000003f4ccccd3ecccccd3ecccccd 0048ddb0     debuggingView.obj
 0002:00000dc0       __xmm@40590000000000003ff0000000000000 0048ddc0     debuggingView.obj
 0002:00000dd0       __xmm@80000000800000008000000080000000 0048ddd0     debuggingView.obj
 0002:00000de0       ??_C@_07HIOMHIIA@Shading?$AA@ 0048dde0     debuggingWindow.obj
 0002:00000de8       ??_C@_06EFAGIKOH@Normal?$AA@ 0048dde8     debuggingWindow.obj
 0002:00000df0       ??_C@_0N@DHPFACHL@Flat?5shading?$AA@ 0048ddf0     debuggingWindow.obj
 0002:00000e00       ??_C@_09GCGMAPH@Wireframe?$AA@ 0048de00     debuggingWindow.obj
 0002:00000e0c       ??_C@_07MJEANAEL@Quality?$AA@ 0048de0c     debuggingWindow.obj
 0002:00000e14       ??_C@_04PHMMJPOJ@High?$AA@ 0048de14     debuggingWindow.obj
 0002:00000e1c       ??_C@_06LHIDHMIE@Medium?$AA@ 0048de1c     debuggingWindow.obj
 0002:00000e24       ??_C@_03CMIMKEEK@Low?$AA@  0048de24     debuggingWindow.obj
 0002:00000e28       ??_C@_04DMAJLHBF@Poor?$AA@ 0048de28     debuggingWindow.obj
 0002:00000e30       ??_C@_08GGMLLKEC@Lighting?$AA@ 0048de30     debuggingWindow.obj
 0002:00000e3c       ??_C@_0BB@FMLJPMKJ@Default?5lighting?$AA@ 0048de3c     debuggingWindow.obj
 0002:00000e50       ??_C@_0P@GNJOEOA@Scene?5lighting?$AA@ 0048de50     debuggingWindow.obj
 0002:00000e60       ??_C@_09NJDAEDLH@Materials?$AA@ 0048de60     debuggingWindow.obj
 0002:00000e6c       ??_C@_0BE@BNGHFPHG@Use?5scene?5materials?$AA@ 0048de6c     debuggingWindow.obj
 0002:00000e80       ??_C@_07JLFIFBAE@Display?$AA@ 0048de80     debuggingWindow.obj
 0002:00000e88       ??_C@_08OOJNLKLP@Geometry?$AA@ 0048de88     debuggingWindow.obj
 0002:00000e94       ??_C@_06EMKJPPBG@Lights?$AA@ 0048de94     debuggingWindow.obj
 0002:00000e9c       ??_C@_06JCBBMBIP@Camera?$AA@ 0048de9c     debuggingWindow.obj
 0002:00000ea4       ??_C@_04LIMLNCJG@Axes?$AA@ 0048dea4     debuggingWindow.obj
 0002:00000eac       ??_C@_07DKDJFLGE@Normals?$AA@ 0048deac     debuggingWindow.obj
 0002:00000eb4       ??_C@_04KHKGHNMF@Rays?$AA@ 0048deb4     debuggingWindow.obj
 0002:00000ebc       ??_C@_0L@KLDABBOG@Visibility?$AA@ 0048debc     debuggingWindow.obj
 0002:00000ec8       ??_C@_0L@IODOICBM@Reflection?$AA@ 0048dec8     debuggingWindow.obj
 0002:00000ed4       ??_C@_0L@BDEAIFBG@Refraction?$AA@ 0048ded4     debuggingWindow.obj
 0002:00000ee0       ??_C@_06KHOKADBJ@Shadow?$AA@ 0048dee0     debuggingWindow.obj
 0002:00000ee8       ??_C@_0BA@BJBPBEKH@Debugging?5trace?$AA@ 0048dee8     debuggingWindow.obj
 0002:00000ef8       ??_C@_0O@PLGLLPAP@DebuggingView?$AA@ 0048def8     debuggingWindow.obj
 0002:00000f08       ??_C@_0BE@JONHPENG@map?1set?$DMT?$DO?5too?5long?$AA@ 0048df08     glObjects.obj
 0002:00000f20       __real@3fc0000000000000    0048df20     glObjects.obj
 0002:00000f28       __real@3ff4cccccccccccd    0048df28     glObjects.obj
 0002:00000f30       __real@3ff8000000000000    0048df30     glObjects.obj
 0002:00000f38       __real@401921fb54442d18    0048df38     glObjects.obj
 0002:00000f40       __real@4038000000000000    0048df40     glObjects.obj
 0002:00000f48       __real@4056800000000000    0048df48     glObjects.obj
 0002:00000f50       __real@4060000000000000    0048df50     glObjects.obj
 0002:00000f58       __real@bff4cccccccccccd    0048df58     glObjects.obj
 0002:00000f60       __real@bff8000000000000    0048df60     glObjects.obj
 0002:00000f68       __real@c056800000000000    0048df68     glObjects.obj
 0002:00000f70       __xmm@3fb999999999999a3fb999999999999a 0048df70     glObjects.obj
 0002:00000f80       __xmm@3fc999999999999a3fc999999999999a 0048df80     glObjects.obj
 0002:00000f90       __xmm@3fc999999999999a3ff0000000000000 0048df90     glObjects.obj
 0002:00000fa0       __xmm@3ff00000000000004056800000000000 0048dfa0     glObjects.obj
 0002:00000fb0       __xmm@3ff00000000000004066800000000000 0048dfb0     glObjects.obj
 0002:00000fc0       __xmm@3ff00000000000004070e00000000000 0048dfc0     glObjects.obj
 0002:00000fd0       __xmm@3ff0000000000000c056800000000000 0048dfd0     glObjects.obj
 0002:00000fe0       __xmm@bfc999999999999a3ff0000000000000 0048dfe0     glObjects.obj
 0002:00000ff0       __xmm@bfe0000000000000bfe0000000000000 0048dff0     glObjects.obj
 0002:00001000       ??_C@_05FHBCAALB@?$CGFile?$AA@ 0048e000     GraphicalUI.obj
 0002:00001008       ??_C@_0P@KFLCMLL@?$CGLoad?5Scene?4?4?4?$AA@ 0048e008     GraphicalUI.obj
 0002:00001018       ??_C@_0P@IGLBNMCE@?$CGSave?5Image?4?4?4?$AA@ 0048e018     GraphicalUI.obj
 0002:00001028       ??_C@_05KNAFKLGA@?$CGExit?$AA@ 0048e028     GraphicalUI.obj
 0002:00001030       ??_C@_05JFEBOHHM@?$CGHelp?$AA@ 0048e030     GraphicalUI.obj
 0002:00001038       ??_C@_06JDCECANP@?$CGAbout?$AA@ 0048e038     GraphicalUI.obj
 0002:00001044       ??_7GraphicalUI@@6B@       0048e044     GraphicalUI.obj
 0002:00001060       ??_7Dialog2@@6B@           0048e060     GraphicalUI.obj
 0002:00001084       ??_C@_0BL@IPCEOMMI@Enter?5JPEG?5quality?5setting?$AA@ 0048e084     GraphicalUI.obj
 0002:000010a0       ??_C@_02IJDFDKEE@95?$AA@   0048e0a0     GraphicalUI.obj
 0002:000010a4       ??_C@_02PNHBFOHM@Ok?$AA@   0048e0a4     GraphicalUI.obj
 0002:000010a8       ??_C@_05OACFOCNG@?$CK?4ray?$AA@ 0048e0a8     GraphicalUI.obj
 0002:000010b0       ??_C@_0M@GCFCGBJC@Open?5Scene?$DP?$AA@ 0048e0b0     GraphicalUI.obj
 0002:000010bc       ??_C@_08MDAAHFLF@Ray?5?$DM?$CFs?$DO?$AA@ 0048e0bc     GraphicalUI.obj
 0002:000010c8       ??_C@_0BB@NGIDKHOI@Ray?5?$DMNot?5Loaded?$DO?$AA@ 0048e0c8     GraphicalUI.obj
 0002:000010dc       ??_C@_07MNJKAJFG@Ray?5?$DM?$CFs?$AA@ 0048e0dc     GraphicalUI.obj
 0002:000010e4       ??_C@_0L@HDINBN@Save?5Image?$AA@ 0048e0e4     GraphicalUI.obj
 0002:000010f0       ??_C@_0M@HNIIKIGF@?$CK?4png?7?$CK?4jpg?$AA@ 0048e0f0     GraphicalUI.obj
 0002:000010fc       ??_C@_04GNPKBLNA@?4jpg?$AA@ 0048e0fc     GraphicalUI.obj
 0002:00001104       ??_C@_02MFDMBIJM@ok?$AA@   0048e104     GraphicalUI.obj
 0002:00001108       ??_C@_0DI@MJLGOENP@RayTracer?5Project?0?5FLTK?5version?5@ 0048e108     GraphicalUI.obj
 0002:00001140       ??_C@_09EAKLHDML@?$CI?$CFd?$CF?$CF?$CJ?5?$CFs?$AA@ 0048e140     GraphicalUI.obj
 0002:0000114c       ??_C@_02DKCKIIND@?$CFs?$AA@ 0048e14c     GraphicalUI.obj
 0002:00001150       ??_C@_05BOMFGPKE@Depth?$AA@ 0048e150     GraphicalUI.obj
 0002:00001158       ??_C@_04EBKMHHBE@Size?$AA@ 0048e158     GraphicalUI.obj
 0002:00001160       ??_C@_08BKNNOHPA@AA?5Level?$AA@ 0048e160     GraphicalUI.obj
 0002:0000116c       ??_C@_0BC@EBEAHMLD@Debugging?5display?$AA@ 0048e16c     GraphicalUI.obj
 0002:00001180       ??_C@_0L@OHJLFJJP@Use?5KDTree?$AA@ 0048e180     GraphicalUI.obj
 0002:0000118c       ??_C@_07IIOEJGPH@?$CGRender?$AA@ 0048e18c     GraphicalUI.obj
 0002:00001194       ??_C@_05GIJCMPEM@?$CGStop?$AA@ 0048e194     GraphicalUI.obj
 0002:0000119c       ??_C@_0P@BIKGMPPG@Rendered?5Image?$AA@ 0048e19c     GraphicalUI.obj
 0002:000011b0       __real@4034000000000000    0048e1b0     GraphicalUI.obj
 0002:000011b8       __real@4040000000000000    0048e1b8     GraphicalUI.obj
 0002:000011c0       __real@4050000000000000    0048e1c0     GraphicalUI.obj
 0002:000011c8       __real@4059000000000000    0048e1c8     GraphicalUI.obj
 0002:000011d0       __real@4080000000000000    0048e1d0     GraphicalUI.obj
 0002:000011d8       __real@3c360b61            0048e1d8     ModelerCamera.obj
 0002:000011dc       __real@3cf5c28f            0048e1dc     ModelerCamera.obj
 0002:000011e0       __real@3fc90fdb            0048e1e0     ModelerCamera.obj
 0002:000011e8       __real@401921fb60000000    0048e1e8     ModelerCamera.obj
 0002:000011f0       __real@4096cbe4            0048e1f0     ModelerCamera.obj
 0002:000011f4       __real@40c90fdb            0048e1f4     ModelerCamera.obj
 0002:000011f8       __real@bc360b61            0048e1f8     ModelerCamera.obj
 0002:000011fc       __real@bcf5c28f            0048e1fc     ModelerCamera.obj
 0002:00001200       __real@bda3d70a            0048e200     ModelerCamera.obj
 0002:00001204       ??_C@_0BB@JILKKOCO@Read?5character?5?$GA?$AA@ 0048e204     buffer.obj
 0002:00001218       ??_C@_01EEMJAFIK@?6?$AA@   0048e218     buffer.obj
 0002:0000121c       ??_C@_02KPDBPKPG@?$CD?5?$AA@ 0048e21c     buffer.obj
 0002:0001f388       ??_C@_05BGKIEECB@Abort?$AA@ 004ac388     imageio.obj
 0002:0001f390       ??_C@_0M@NOGOPBLN@?$CD?5?$CFs?5?3?6?$CFs?6?6?$AA@ 004ac390     imageio.obj
 0002:0001f39c       ??_C@_0BG@IOCOPDAE@CImgInstanceException?$AA@ 004ac39c     imageio.obj
 0002:0001f3b4       ??_C@_0BG@KMDADBLO@CImgArgumentException?$AA@ 004ac3b4     imageio.obj
 0002:0001f3cc       ??_C@_0BA@EFAPIJMM@CImgIOException?$AA@ 004ac3cc     imageio.obj
 0002:0001f3dc       ??_C@_0O@PPAIJIHF@unsigned?5char?$AA@ 004ac3dc     imageio.obj
 0002:0001f3ec       ??_C@_04ENMBGAPA@char?$AA@ 004ac3ec     imageio.obj
 0002:0001f3f4       ??_C@_0P@IIMKEEHB@unsigned?5short?$AA@ 004ac3f4     imageio.obj
 0002:0001f404       ??_C@_05BFKKPKCG@short?$AA@ 004ac404     imageio.obj
 0002:0001f40c       ??_C@_0N@OFHMGPAL@unsigned?5int?$AA@ 004ac40c     imageio.obj
 0002:0001f41c       ??_C@_03JBIPMCLC@int?$AA@  004ac41c     imageio.obj
 0002:0001f420       ??_C@_0O@NMGGJGDE@unsigned?5long?$AA@ 004ac420     imageio.obj
 0002:0001f430       ??_C@_04GOKPGOLB@long?$AA@ 004ac430     imageio.obj
 0002:0001f438       ??_C@_05KNFBNCOH@float?$AA@ 004ac438     imageio.obj
 0002:0001f440       ??_C@_06BNJCAIGJ@double?$AA@ 004ac440     imageio.obj
 0002:0001f448       ??_C@_0BA@NDMLJGPL@?$DMCImg?5Warning?$DO?5?$AA@ 004ac448     imageio.obj
 0002:0001f458       ??_C@_0BN@CMEAOILB@C?3?2IMAGEM?$HO1?4?$CFu?9Q?2convert?4exe?$AA@ 004ac458     imageio.obj
 0002:0001f478       ??_C@_01KDCPPGHE@r?$AA@    004ac478     imageio.obj
 0002:0001f47c       ??_C@_0BL@OGAIALDM@C?3?2IMAGEM?$HO1?4?$CFu?2convert?4exe?$AA@ 004ac47c     imageio.obj
 0002:0001f498       ??_C@_0CJ@HGIPBJJM@C?3?2IMAGEM?$HO1?4?$CFu?9Q?2VISUA?$HO1?2BIN?2con@ 004ac498     imageio.obj
 0002:0001f4c4       ??_C@_0CH@JGLEHMLG@C?3?2IMAGEM?$HO1?4?$CFu?2VISUA?$HO1?2BIN?2conve@ 004ac4c4     imageio.obj
 0002:0001f4ec       ??_C@_0CG@MPJCDIBM@C?3?2PROGRA?$HO1?2IMAGEM?$HO1?4?$CFu?9Q?2conver@ 004ac4ec     imageio.obj
 0002:0001f514       ??_C@_0CE@DGFOKHAH@C?3?2PROGRA?$HO1?2IMAGEM?$HO1?4?$CFu?2convert?4@ 004ac514     imageio.obj
 0002:0001f538       ??_C@_0DC@MHNGKGIL@C?3?2PROGRA?$HO1?2IMAGEM?$HO1?4?$CFu?9Q?2VISUA?$HO@ 004ac538     imageio.obj
 0002:0001f56c       ??_C@_0DA@KIGFHBAF@C?3?2PROGRA?$HO1?2IMAGEM?$HO1?4?$CFu?2VISUA?$HO1?2@ 004ac56c     imageio.obj
 0002:0001f59c       ??_C@_0BN@NOCGOBAM@D?3?2IMAGEM?$HO1?4?$CFu?9Q?2convert?4exe?$AA@ 004ac59c     imageio.obj
 0002:0001f5bc       ??_C@_0BL@DENNENLK@D?3?2IMAGEM?$HO1?4?$CFu?2convert?4exe?$AA@ 004ac5bc     imageio.obj
 0002:0001f5d8       ??_C@_0CJ@IDHKOADI@D?3?2IMAGEM?$HO1?4?$CFu?9Q?2VISUA?$HO1?2BIN?2con@ 004ac5d8     imageio.obj
 0002:0001f604       ??_C@_0CH@KEHKEIKI@D?3?2IMAGEM?$HO1?4?$CFu?2VISUA?$HO1?2BIN?2conve@ 004ac604     imageio.obj
 0002:0001f62c       ??_C@_0CG@NJMKMFDA@D?3?2PROGRA?$HO1?2IMAGEM?$HO1?4?$CFu?9Q?2conver@ 004ac62c     imageio.obj
 0002:0001f654       ??_C@_0CE@GKOOIEGO@D?3?2PROGRA?$HO1?2IMAGEM?$HO1?4?$CFu?2convert?4@ 004ac654     imageio.obj
 0002:0001f678       ??_C@_0DC@ONKDOHNO@D?3?2PROGRA?$HO1?2IMAGEM?$HO1?4?$CFu?9Q?2VISUA?$HO@ 004ac678     imageio.obj
 0002:0001f6ac       ??_C@_0DA@BIHAPHBB@D?3?2PROGRA?$HO1?2IMAGEM?$HO1?4?$CFu?2VISUA?$HO1?2@ 004ac6ac     imageio.obj
 0002:0001f6dc       ??_C@_0M@BHHDHLFO@convert?4exe?$AA@ 004ac6dc     imageio.obj
 0002:0001f6e8       ??_C@_0CD@KDFAFDPH@C?3?2PROGRA?$HO1?2XMedCon?2bin?2medcon?4b@ 004ac6e8     imageio.obj
 0002:0001f70c       ??_C@_0CD@KABJDOEM@D?3?2PROGRA?$HO1?2XMedCon?2bin?2medcon?4b@ 004ac70c     imageio.obj
 0002:0001f730       ??_C@_0L@MFIFMMMG@medcon?4bat?$AA@ 004ac730     imageio.obj
 0002:0001f73c       ??_C@_04PBCBKGHJ@?1tmp?$AA@ 004ac73c     imageio.obj
 0002:0001f744       ??_C@_0O@MCLGOIG@C?3?2WINNT?2Temp?$AA@ 004ac744     imageio.obj
 0002:0001f754       ??_C@_0BA@OBBKBLLO@C?3?2WINDOWS?2Temp?$AA@ 004ac754     imageio.obj
 0002:0001f764       ??_C@_00CNPNBAHC@?$AA@     004ac764     imageio.obj
 0002:0001f768       ??_C@_02FHMLMLAN@C?3?$AA@  004ac768     imageio.obj
 0002:0001f76c       ??_C@_0BA@INLKONMO@?$CFs?1CImg?$CF?44d?4ppm?$AA@ 004ac76c     imageio.obj
 0002:0001f77c       ??_C@_01NOFIACDB@w?$AA@    004ac77c     imageio.obj
 0002:0001f780       ??_C@_0OP@CEAHBIII@cimg?3?3temporary_path?$CI?$CJ?5?3?5Unable?5@ 004ac780     imageio.obj
 0002:0001f870       ??_C@_0DE@BHMGPJNB@cimg?3?3fopen?$CI?$CJ?5?3?5Can?8t?5open?5file?5@ 004ac870     imageio.obj
 0002:0001f8a4       ??_C@_0M@EGBOBOJO@for?5reading?$AA@ 004ac8a4     imageio.obj
 0002:0001f8b0       ??_C@_0M@CADEKHFF@for?5writing?$AA@ 004ac8b0     imageio.obj
 0002:0001f8bc       ??_C@_0CO@NIPOMIKK@cimg?3?3fopen?$CI?$CJ?5?3?5File?5?8?$CFs?8?5cannot@ 004ac8bc     imageio.obj
 0002:0001f8ec       ??_C@_0CJ@HOKJDNFD@cimg?3?3fclose?$CI?$CJ?5?3?5Can?8t?5close?5?$CInu@ 004ac8ec     imageio.obj
 0002:0001f918       ??_C@_0CO@MIIGAONH@cimg?3?3fclose?$CI?$CJ?5?3?5Error?5?$CFd?5during@ 004ac918     imageio.obj
 0002:0001f948       ??_C@_02DPKJAMEF@?$CFd?$AA@ 004ac948     imageio.obj
 0002:0001f950       ??_C@_0EE@GIAELHBA@CImgDisplay?3?3resize?$CI?$CJ?5?3?5Specifie@ 004ac950     imageio.obj
 0002:0001f994       ??_C@_01CLKCMJKC@?5?$AA@   004ac994     imageio.obj
 0002:0001f998       ??_C@_09JCBOJPAK@MDICLIENT?$AA@ 004ac998     imageio.obj
 0002:0001f9a8       ??_C@_0EF@MJMKILDN@CImg?$DM?$CFs?$DO?3?3save_convert?$CI?$CJ?5?3?5Insta@ 004ac9a8     imageio.obj
 0002:0001f9f0       ??_C@_0DJ@CBMJHKKH@CImg?$DM?$CFs?$DO?3?3save_convert?$CI?$CJ?5?3?5Speci@ 004ac9f0     imageio.obj
 0002:0001fa2c       ??_C@_02JDPG@rb?$AA@       004aca2c     imageio.obj
 0002:0001fa30       ??_C@_0BL@DHGFEDCN@?$CC?$CFs?$CC?5?9quality?5?$CFu?$CF?$CF?5?$CFs?5?$CC?$CFs?$CC?$AA@ 004aca30     imageio.obj
 0002:0001fa50       ??_C@_0JE@ELMJFOMA@CImg?$DM?$CFs?$DO?3?3save_convert?$CI?$CJ?5?3?5Faile@ 004aca50     imageio.obj
 0002:0001fae8       ??_C@_0EB@NNLBLHOH@CImg?$DM?$CFs?$DO?3?3save_pnm?$CI?$CJ?5?3?5Instance?5@ 004acae8     imageio.obj
 0002:0001fb2c       ??_C@_0DF@GHCMKIEE@CImg?$DM?$CFs?$DO?3?3save_pnm?$CI?$CJ?5?3?5Specified@ 004acb2c     imageio.obj
 0002:0001fb64       ??_C@_03CIEPEIDA@pgm?$AA@  004acb64     imageio.obj
 0002:0001fb68       ??_C@_02GMLFBBN@wb?$AA@    004acb68     imageio.obj
 0002:0001fb6c       ??_C@_0DK@NONFCMPL@P?$CFc?6?$CD?5CREATOR?3?5CImg?5?3?5Original?5s@ 004acb6c     imageio.obj
 0002:0001fba8       ??_C@_03EFEGFOOI@asc?$AA@  004acba8     imageio.obj
 0002:0001fbac       ??_C@_03PLGBGHBJ@dlm?$AA@  004acbac     imageio.obj
 0002:0001fbb0       ??_C@_03MHNFGFDE@inr?$AA@  004acbb0     imageio.obj
 0002:0001fbb4       ??_C@_03HCPOIHIH@hdr?$AA@  004acbb4     imageio.obj
 0002:0001fbb8       ??_C@_03OBJIDKBM@par?$AA@  004acbb8     imageio.obj
 0002:0001fbbc       ??_C@_03BPEBHJFL@rec?$AA@  004acbbc     imageio.obj
 0002:0001fbc0       ??_C@_03HOPGHEB@pan?$AA@   004acbc0     imageio.obj
 0002:0001fbc4       ??_C@_03CAKEDOOO@bmp?$AA@  004acbc4     imageio.obj
 0002:0001fbc8       ??_C@_03NNHBJLDF@png?$AA@  004acbc8     imageio.obj
 0002:0001fbcc       ??_C@_03EOEHCLKG@tif?$AA@  004acbcc     imageio.obj
 0002:0001fbd0       ??_C@_04MFMINNH@tiff?$AA@  004acbd0     imageio.obj
 0002:0001fbd8       ??_C@_03PEGNKCLE@jpg?$AA@  004acbd8     imageio.obj
 0002:0001fbdc       ??_C@_04OFMADDDJ@jpeg?$AA@ 004acbdc     imageio.obj
 0002:0001fbe4       ??_C@_03DBCGPNMF@ppm?$AA@  004acbe4     imageio.obj
 0002:0001fbe8       ??_C@_03CHJOHDLP@pnm?$AA@  004acbe8     imageio.obj
 0002:0001fbec       ??_C@_04MLNCBIOF@cimg?$AA@ 004acbec     imageio.obj
 0002:0001fbf4       ??_C@_03PADNCACE@dcm?$AA@  004acbf4     imageio.obj
 0002:0001fbf8       ??_C@_05PDDBMHDG@dicom?$AA@ 004acbf8     imageio.obj
 0002:0001fc00       ??_C@_0N@MMBKEAML@CImg?$CF?44d?4hdr?$AA@ 004acc00     imageio.obj
 0002:0001fc10       ??_C@_0CA@CEBCIIKH@?$CC?$CFs?$CC?5?9w?5?9c?5anlz?5?9o?5?$CC?$CFs?$CC?5?9f?5?$CC?$CFs?$CC?$AA@ 004acc10     imageio.obj
 0002:0001fc30       ??_C@_0M@PMILHFFC@m000?9?$CFs?4hdr?$AA@ 004acc30     imageio.obj
 0002:0001fc40       ??_C@_0JB@DJGNIMMD@CImg?$DM?$CFs?$DO?3?3get_load_dicom?$CI?$CJ?5?3?5Fai@ 004acc40     imageio.obj
 0002:0001fcd4       ??_C@_0M@HMFDMPKM@m000?9?$CFs?4img?$AA@ 004accd4     imageio.obj
 0002:0001fce0       ??_C@_0N@IHGFPPIM@?$CC?$CFs?$CC?5?$CC?$CFs?$CC?5?$CFs?$AA@ 004acce0     imageio.obj
 0002:0001fcf0       ??_C@_0JI@FPFFCBNJ@CImg?$DM?$CFs?$DO?3?3get_load_convert?$CI?$CJ?5?3?5F@ 004accf0     imageio.obj
 0002:0001fd88       ??_C@_03PCCGDNHJ@img?$AA@  004acd88     imageio.obj
 0002:0001fd8c       ??_C@_04OLGJDOOD@?4hdr?$AA@ 004acd8c     imageio.obj
 0002:0001fd98       ??_C@_0EO@EHEMKIGP@CImg?$DM?$CFs?$DO?3?3get_load_analyze?$CI?$CJ?5?3?5C@ 004acd98     imageio.obj
 0002:0001fde8       ??_C@_0EE@KFDOMCGJ@CImg?$DM?$CFs?$DO?3?3get_load_analyze?$CI?$CJ?5?3?5S@ 004acde8     imageio.obj
 0002:0001fe30       ??_C@_0GE@OGDMNNAJ@CImg?$DM?$CFs?$DO?3?3get_load_analyze?$CI?$CJ?5?3?5N@ 004ace30     imageio.obj
 0002:0001fe98       ??_C@_0EI@PBPINBEI@CImg?$DM?$CFs?$DO?3?3get_load_analyze?$CI?$CJ?5?3?5C@ 004ace98     imageio.obj
 0002:0001fee0       ??_C@_07JEOHDBPN@PANDORE?$AA@ 004acee0     imageio.obj
 0002:0001fee8       ??_C@_0HE@EGKNJGIH@CImg?$DM?$CFs?$DO?3?3get_load_pandore?$CI?$CJ?5?3?5F@ 004acee8     imageio.obj
 0002:0001ff60       ??_C@_0EM@DPHAPKOI@CImg?$DM?$CFs?$DO?3?3get_load_pandore?$CI?$CJ?5?3?5F@ 004acf60     imageio.obj
 0002:0001ffb0       ??_C@_0FK@NIEJJMIB@CImg?$DM?$CFs?$DO?3?3get_load_inr?$CI?$CJ?5?3?5File?5@ 004acfb0     imageio.obj
 0002:00020010       ??_C@_0FA@NONKEGDL@CImg?$DM?$CFs?$DO?3?3get_load_bmp?$CI?$CJ?5?3?5filen@ 004ad010     imageio.obj
 0002:00020060       ??_C@_09NCAHDJAN@?$CF1023?$FL?$FO?6?$FN?$AA@ 004ad060     imageio.obj
 0002:0002006c       ??_C@_04FPNPCBPM@?5P?$CFu?$AA@ 004ad06c     imageio.obj
 0002:00020074       ??_C@_0DP@EOOMEDMP@CImg?$DM?$CFs?$DO?3?3get_load_pnm?$CI?$CJ?5?3?5file?5@ 004ad074     imageio.obj
 0002:000200b4       ??_C@_0L@NMJGGPEA@?5?$CF1023?$FL?$FO?6?$FN?$AA@ 004ad0b4     imageio.obj
 0002:000200c0       ??_C@_09BKOMKIGB@?5?$CFu?5?$CFu?5?$CFu?$AA@ 004ad0c0     imageio.obj
 0002:000200d0       ??_C@_0EC@EKKPKHJF@CImg?$DM?$CFs?$DO?3?3get_load_pnm?$CI?$CJ?5?3?5file?5@ 004ad0d0     imageio.obj
 0002:00020114       ??_C@_0DK@NKCFJOBM@CImg?$DM?$CFs?$DO?3?3get_load_pnm?$CI?$CJ?5?3?5file?5@ 004ad114     imageio.obj
 0002:00020150       ??_C@_02GMHACPFF@?$CFu?$AA@ 004ad150     imageio.obj
 0002:00020154       ??_C@_08OOHKHLPO@?$CFd?5?$CFd?5?$CFd?$AA@ 004ad154     imageio.obj
 0002:00020160       ??_C@_0ED@CLAPCKPL@CImg?$DM?$CFs?$DO?3?3get_load_pnm?$CI?$CJ?5?3?5file?5@ 004ad160     imageio.obj
 0002:000201a4       ??_C@_0BD@NHILCMJC@?$CFlf?$CF255?$FL?$FO0?99?4eE?$CL?9?$FN?$AA@ 004ad1a4     imageio.obj
 0002:000201b8       ??_C@_0L@LCOJEAHM@?$CF255?$FL?$FO?6?$FN?$CFc?$AA@ 004ad1b8     imageio.obj
 0002:000201c8       ??_C@_0GH@CIACHKIA@CImg?$DM?$CFs?$DO?3?3get_load_dlm?$CI?$CJ?5?3?5File?5@ 004ad1c8     imageio.obj
 0002:00020230       ??_C@_08NOAHEENC@?$CF255?$FL?$FO?6?$FN?$AA@ 004ad230     imageio.obj
 0002:0002023c       ??_C@_0M@FMGEODLN@?$CFd?5?$CFd?5?$CFd?5?$CFd?$AA@ 004ad23c     imageio.obj
 0002:00020248       ??_C@_0HM@LMMIPMMI@CImg?$DM?$CFs?$DO?3?3get_load_ascii?$CI?$CJ?5?3?5Fil@ 004ad248     imageio.obj
 0002:000202c4       ??_C@_0BB@CLKJFGDC@?$CFlf?$CF?$CK?$FL?$FO0?99?4eE?$CL?9?$FN?$AA@ 004ad2c4     imageio.obj
 0002:000202d8       ??_C@_0EL@MIBLOBKK@CImg?$DM?$CFs?$DO?3?3get_load_ascii?$CI?$CJ?5?3?5Fil@ 004ad2d8     imageio.obj
 0002:00020328       ??_C@_0EF@DAFDPGMG@CImg?$DM?$CFs?$DO?3?3get_append?$CI?$CJ?5?3?5unknow?5@ 004ad328     imageio.obj
 0002:00020370       ??_C@_06MNKLIBAI@?$CFs?4rec?$AA@ 004ad370     imageio.obj
 0002:00020378       ??_C@_03OMGDPHGA@PAR?$AA@  004ad378     imageio.obj
 0002:0002037c       ??_C@_06MAFAEMHE@?$CFs?4REC?$AA@ 004ad37c     imageio.obj
 0002:00020384       ??_C@_06DDHCMCEP@?$CFs?4par?$AA@ 004ad384     imageio.obj
 0002:0002038c       ??_C@_03BCLKLECH@REC?$AA@  004ad38c     imageio.obj
 0002:00020390       ??_C@_06DOIJAPDD@?$CFs?4PAR?$AA@ 004ad390     imageio.obj
 0002:00020398       ??_C@_0M@GIJKFKHM@?$CF255?$FL?$FO?6?$FN?$CF?$CKc?$AA@ 004ad398     imageio.obj
 0002:000203a4       ??_C@_0CK@NOFJIKCO@?$CFu?$CF?$CKu?$CF?$CKu?$CF?$CKu?$CF?$CKu?$CF?$CKu?$CF?$CKu?$CFu?$CF?$CKu?$CFu?$CFu?$CFg?$CF@ 004ad3a4     imageio.obj
 0002:000203d0       ??_C@_0EK@FGCFIMIP@CImg?$DM?$CFs?$DO?3?3get_load_parrec?$CI?$CJ?5?3?5Ca@ 004ad3d0     imageio.obj
 0002:00020420       ??_C@_0FH@HLBOMLJF@CImg?$DM?$CFs?$DO?3?3get_load_parrec?$CI?$CJ?5?3?5fi@ 004ad420     imageio.obj
 0002:00020478       ??_C@_04MHIDHOBH@?$CF63s?$AA@ 004ad478     imageio.obj
 0002:00020480       ??_C@_0O@JKHNEGNF@?$CDINRIMAGE?94?$CD?$HL?$AA@ 004ad480     imageio.obj
 0002:00020490       ??_C@_0GK@OMEMALMN@CImg?$DM?$CFs?$DO?3?3get_load_inr?$CI?$CJ?5?3?5File?5@ 004ad490     imageio.obj
 0002:000204fc       ??_C@_0M@OPNJDOKN@?5?$CF63?$FL?$FO?6?$FN?$CF?$CKc?$AA@ 004ad4fc     imageio.obj
 0002:00020508       ??_C@_03MMKGNPDB@?$CD?$CD?$HN?$AA@ 004ad508     imageio.obj
 0002:0002050c       ??_C@_0BA@CPKFKIJM@?5XDIM?$CF?$CK?$FL?$FO0?99?$FN?$CFd?$AA@ 004ad50c     imageio.obj
 0002:0002051c       ??_C@_0BA@JGFOHDHE@?5YDIM?$CF?$CK?$FL?$FO0?99?$FN?$CFd?$AA@ 004ad51c     imageio.obj
 0002:0002052c       ??_C@_0BA@IHCDBJAN@?5ZDIM?$CF?$CK?$FL?$FO0?99?$FN?$CFd?$AA@ 004ad52c     imageio.obj
 0002:0002053c       ??_C@_0BA@MCNGLAOJ@?5VDIM?$CF?$CK?$FL?$FO0?99?$FN?$CFd?$AA@ 004ad53c     imageio.obj
 0002:0002054c       ??_C@_0BD@FNPGNHPK@?5PIXSIZE?$CF?$CK?$FL?$FO0?99?$FN?$CFd?$AA@ 004ad54c     imageio.obj
 0002:00020560       ??_C@_0BD@EFGFDMDP@?5VX?$CF?$CK?$FL?$FO0?99?4eE?$CL?9?$FN?$CFf?$AA@ 004ad560     imageio.obj
 0002:00020574       ??_C@_0BD@MCMDPHHM@?5VY?$CF?$CK?$FL?$FO0?99?4eE?$CL?9?$FN?$CFf?$AA@ 004ad574     imageio.obj
 0002:00020588       ??_C@_0BD@JBFJKMPI@?5VZ?$CF?$CK?$FL?$FO0?99?4eE?$CL?9?$FN?$CFf?$AA@ 004ad588     imageio.obj
 0002:0002059c       ??_C@_0N@PPGHADNP@?5CPU?$CF?$CK?$FL?5?$DN?$FN?$CFs?$AA@ 004ad59c     imageio.obj
 0002:000205ac       ??_C@_03OHFMDAD@sun?$AA@   004ad5ac     imageio.obj
 0002:000205b0       ??_C@_0BB@HDECOHMF@?5TYPE?$CF?$CK?$FL?5?$DN?$FN?$CFs?5?$CFs?$AA@ 004ad5b0     imageio.obj
 0002:000205c4       ??_C@_08CLLOMHGD@unsigned?$AA@ 004ad5c4     imageio.obj
 0002:000205d0       ??_C@_05OFLEIIDM@fixed?$AA@ 004ad5d0     imageio.obj
 0002:000205d8       ??_C@_06DAGLPGKC@packed?$AA@ 004ad5d8     imageio.obj
 0002:000205e0       ??_C@_0CM@JKJMFACG@cimg?3?3inr_header_read?$CI?$CJ?5?3?5Invali@ 004ad5e0     imageio.obj
 0002:00020610       ??_C@_0EP@MIGIDJJP@CImg?$DM?$CFs?$DO?3?3get_load_inr?$CI?$CJ?5?3?5Bad?5d@ 004ad610     imageio.obj
 0002:00020660       ??_C@_0DF@KCGIPHKE@CImg?$DM?$CFs?$DO?3?3get_load_inr?$CI?$CJ?5?3?5TYPE?5@ 004ad660     imageio.obj
 0002:00020698       ??_C@_0DI@ECKNFCKI@CImg?$DM?$CFs?$DO?3?3get_load_inr?$CI?$CJ?5?3?5PIXSI@ 004ad698     imageio.obj
 0002:000206d0       ??_C@_0EI@GALHJMEF@CImg?$DM?$CFs?$DO?3?3get_load_inr?$CI?$CJ?5?3?5Big?1L@ 004ad6d0     imageio.obj
 0002:00020718       ??_C@_0EB@JPCDMIDN@CImg?$DM?$CFs?$DO?3?3mirror?$CI?$CJ?5?3?5unknow?5axe?5@ 004ad718     imageio.obj
 0002:00020760       ??_C@_0GC@NILNHHNI@CImg?$DM?$CFs?$DO?3?3assign?$CI?$CJ?5?3?5Cannot?5assi@ 004ad760     imageio.obj
 0002:000207c8       ??_C@_0EL@NABKHCFF@CImg?$DM?$CFs?$DO?3?3draw_image?$CI?$CJ?5?3?5Specifi@ 004ad7c8     imageio.obj
 0002:00020818       ??_C@_0EP@LHPLLHBC@CImgl?$DM?$CFs?$DO?3?3insert?$CI?$CJ?5?3?5Can?8t?5inse@ 004ad818     imageio.obj
 0002:00020868       ??_C@_0BD@CFBEFJHJ@?$CFu?$CF?$CKc?$CF255?$FLA?9Za?9z?5?$FN?$AA@ 004ad868     imageio.obj
 0002:0002087c       ??_C@_0DP@MMCMOJIN@CImgl?$DM?$CFs?$DO?3?3get_load_cimg?$CI?$CJ?5?3?5fil@ 004ad87c     imageio.obj
 0002:000208bc       ??_C@_0M@INFEFECB@?$CFu?5?$CFu?5?$CFu?5?$CFu?$AA@ 004ad8bc     imageio.obj
 0002:000208c8       ??_C@_05GBMOKKDM@uchar?$AA@ 004ad8c8     imageio.obj
 0002:000208d0       ??_C@_06IHFEHLHH@ushort?$AA@ 004ad8d0     imageio.obj
 0002:000208d8       ??_C@_04EHNLIFAM@uint?$AA@ 004ad8d8     imageio.obj
 0002:000208e0       ??_C@_05ECKAKEHN@ulong?$AA@ 004ad8e0     imageio.obj
 0002:000208e8       ??_C@_0EA@KJEOGNEO@CImgl?$DM?$CFs?$DO?3?3get_load_cimg?$CI?$CJ?5?3?5fil@ 004ad8e8     imageio.obj
 0002:00020928       ??_C@_0EJ@MEDGHJE@cimg?3?3dialog?$CI?$CJ?5?3?5No?5buttons?5have@ 004ad928     imageio.obj
 0002:00020978       ??_C@_0FB@DEKBNDNK@cimg?3?3fwrite?$CI?$CJ?5?3?5Can?8t?5write?5?$CFu?5@ 004ad978     imageio.obj
 0002:000209d0       ??_C@_0EE@PIJPKEKO@cimg?3?3fwrite?$CI?$CJ?5?3?5File?5writing?5pr@ 004ad9d0     imageio.obj
 0002:00020a18       ??_C@_0EN@GJDDEJNF@cimg?3?3fread?$CI?$CJ?5?3?5Can?8t?5read?5?$CFu?5x?5@ 004ada18     imageio.obj
 0002:00020a68       ??_C@_0EA@EOEOLOIN@cimg?3?3fread?$CI?$CJ?5?3?5File?5reading?5pro@ 004ada68     imageio.obj
 0002:00020aa8       ??_C@_0DC@OLELLILK@CImg?$DM?$CFs?$DO?3?3draw_line?$CI?$CJ?5?3?5Specifie@ 004adaa8     imageio.obj
 0002:00020adc       ??_C@_0DF@FNOHKMFL@CImg?$DM?$CFs?$DO?3?3draw_rectangle?5?3?5speci@ 004adadc     imageio.obj
 0002:00020b18       ??_C@_0EB@DNNLFFJA@CImg?$DM?$CFs?$DO?3?3get_crop?$CI?$CJ?5?3?5Instance?5@ 004adb18     imageio.obj
 0002:00020b60       ??_C@_0EK@OKKIGFCD@CImgStats?3?3CImgStats?$CI?$CJ?5?3?5Specifi@ 004adb60     imageio.obj
 0002:00020bac       ??_C@_0DK@JIGOICMJ@CImg?$DM?$CFs?$DO?3?3draw_text?$CI?$CJ?5?3?5Specifie@ 004adbac     imageio.obj
 0002:00020be8       ??_C@_0DJ@CLJEHJFH@CImg?$DM?$CFs?$DO?3?3draw_text?$CI?$CJ?5?3?5Specifie@ 004adbe8     imageio.obj
 0002:00020c28       ??_C@_0HO@GFPCDKNH@CImg?$DM?$CFs?$DO?3?3get_shared_channels?$CI?$CJ?5@ 004adc28     imageio.obj
 0002:00020ca8       ??_C@_0EO@KBONPFAD@CImgDisplay?3?3CImgDisplay?$CI?$CJ?5?3?5Spe@ 004adca8     imageio.obj
 0002:00020cf8       ??_C@_0FA@KOIEAEAJ@CImgDisplay?3?3_render_image?$CI?$CJ?5?3?5S@ 004adcf8     imageio.obj
 0002:00020d48       ??_C@_0EJ@MEDFIJIB@CImg?$DM?$CFs?$DO?3?3draw_image?$CI?$CJ?5?3?5Specifi@ 004add48     imageio.obj
 0002:00020d98       ??_C@_0FI@OLAEAJEG@CImg?$DM?$CFs?$DO?3?3draw_image?$CI?$CJ?5?3?5Mask?5di@ 004add98     imageio.obj
 0002:00020df0       __real@00000000            004addf0     imageio.obj
 0002:00020df4       __real@3f800000            004addf4     imageio.obj
 0002:00020df8       __real@40000000            004addf8     imageio.obj
 0002:00020e00       __real@4070000000000000    004ade00     imageio.obj
 0002:00020e08       __real@40800000            004ade08     imageio.obj
 0002:00020e0c       __real@40c00000            004ade0c     imageio.obj
 0002:00020e10       __real@bf800000            004ade10     imageio.obj
 0002:00020e20       __xmm@7fffffffffffffff7fffffffffffffff 004ade20     imageio.obj
 0002:00020e30       __real@404ca5dc1a63bfe5    004ade30     camera.obj
 0002:00020e38       __real@bff0000000000000    004ade38     camera.obj
 0002:00020e40       __xmm@00000000000000003ff0000000000000 004ade40     camera.obj
 0002:00020e50       ??_C@_0CA@CODHJMGH@ERROR?5in?5recursive?5shadow?5call?6?$AA@ 004ade50     light.obj
 0002:00020e70       ??_C@_0CJ@PBOMOIDM@ERROR?5in?5PointLight?3?3shadowAtten@ 004ade70     light.obj
 0002:00020e9c       ??_C@_0CO@BNPMHIMK@Debugging?5the?5Phong?5code?5?$CIor?5lac@ 004ade9c     material.obj
 0002:00020ecc       ??_C@_0DE@HCKDNEDD@ERROR?5in?5Material?3?3shade?5call?5to@ 004adecc     material.obj
 0002:00020f00       ??_C@_0BK@CNPJIAEE@ERROR?5in?5Material?3?3shade?6?$AA@ 004adf00     material.obj
 0002:00020f1c       ??_C@_0BN@KGHMEIMA@Unable?5to?5load?5texture?5map?5?8?$AA@ 004adf1c     material.obj
 0002:00020f40       __real@3fbd2f1a9fbe76c9    004adf40     material.obj
 0002:00020f48       __real@3fd322d0e5604189    004adf48     material.obj
 0002:00020f50       __real@3fe2c8b439581062    004adf50     material.obj
 0002:00020f60       ??_7Material@@6B@          004adf60     scene.obj
 0002:00020f68       ??_7Scene@@6B@             004adf68     scene.obj
 0002:00020f6c       ??_C@_0CI@GHKDDDDN@ERROR?5in?5Scene?4cpp?5Geometry?3?3int@ 004adf6c     scene.obj
 0002:00020f94       ??_C@_0BH@NGPMHDAK@Just?5build?5the?5kdTree?$CB?$AA@ 004adf94     scene.obj
 0002:00020fb0       __real@7fe1ccf385ebc8a0    004adfb0     scene.obj
 0002:00020fb8       __real@ffe1ccf385ebc8a0    004adfb8     scene.obj
 0002:00020fc0       __real@54b249ad2594c37d    004adfc0     Box.obj
 0002:00020fc8       __real@0000000000000000    004adfc8     Cone.obj
 0002:00020fd0       __real@4010000000000000    004adfd0     Cone.obj
 0002:00020fd8       __real@8000000000000000    004adfd8     Cylinder.obj
 0002:00020fe0       __xmm@3fe00000000000003fe0000000000000 004adfe0     Square.obj
 0002:00020ff4       ??_7SceneElement@@6B@      004adff4     trimesh.obj
 0002:00021000       ??_7Geometry@@6B@          004ae000     trimesh.obj
 0002:00021028       ??_7SceneObject@@6B@       004ae028     trimesh.obj
 0002:00021058       ??_7MaterialSceneObject@@6B@ 004ae058     trimesh.obj
 0002:00021088       ??_7Trimesh@@6B@           004ae088     trimesh.obj
 0002:000210b8       ??_7TrimeshFace@@6B@       004ae0b8     trimesh.obj
 0002:000210e4       ??_C@_0CI@DJLMOCOM@Bad?5Trimesh?3?5Wrong?5number?5of?5mat@ 004ae0e4     trimesh.obj
 0002:0002110c       ??_C@_0CG@CGLEALMC@Bad?5Trimesh?3?5Wrong?5number?5of?5nor@ 004ae10c     trimesh.obj
 0002:00021138       ??_7Light@@6B@             004ae138     Parser.obj
 0002:0002115c       ??_7DirectionalLight@@6B@  004ae15c     Parser.obj
 0002:00021180       ??_7PointLight@@6B@        004ae180     Parser.obj
 0002:000211a4       ??_7Box@@6B@               004ae1a4     Parser.obj
 0002:000211d4       ??_7Cone@@6B@              004ae1d4     Parser.obj
 0002:00021204       ??_7Cylinder@@6B@          004ae204     Parser.obj
 0002:00021234       ??_7Sphere@@6B@            004ae234     Parser.obj
 0002:00021264       ??_7Square@@6B@            004ae264     Parser.obj
 0002:00021294       ??_7?$basic_stringbuf@DU?$char_traits@D@std@@V?$allocator@D@2@@std@@6B@ 004ae294     Parser.obj
 0002:000212d4       ??_7?$basic_ostringstream@DU?$char_traits@D@std@@V?$allocator@D@2@@std@@6B@ 004ae2d4     Parser.obj
 0002:000212d8       ??_8?$basic_ostringstream@DU?$char_traits@D@std@@V?$allocator@D@2@@std@@7B@ 004ae2d8     Parser.obj
 0002:000212e0       ??_C@_0CP@CKFOIMOD@?5too?5high?$DL?5only?5able?5to?5parser?5v@ 004ae2e0     Parser.obj
 0002:00021310       ??_C@_0BO@OMKHDCNH@SBT?9raytracer?5version?5number?5?$AA@ 004ae310     Parser.obj
 0002:00021330       ??_C@_0DB@BJAPDIEH@Expected?3?5geometry?0?5camera?0?5or?5l@ 004ae330     Parser.obj
 0002:00021364       ??_C@_0DA@GGEKGFNG@Expected?3?5cannot?5look?5at?5positio@ 004ae364     Parser.obj
 0002:00021394       ??_C@_0BC@CMCIMEOE@Expected?3?5?8updir?8?$AA@ 004ae394     Parser.obj
 0002:000213a8       ??_C@_0BE@HKBCCBIE@Expected?3?5?8viewdir?8?$AA@ 004ae3a8     Parser.obj
 0002:000213bc       ??_C@_0BL@DGFPPCPN@Expected?3?5camera?5attribute?$AA@ 004ae3bc     Parser.obj
 0002:000213d8       ??_C@_0CA@BCADNCCM@Expected?3?5transformable?5element?$AA@ 004ae3d8     Parser.obj
 0002:000213f8       ??_C@_0BK@FIAGOOGO@Expected?3?5?8?$HN?8?5or?5geometry?$AA@ 004ae3f8     Parser.obj
 0002:00021414       ??_C@_0BM@BHJHMHDM@Unrecognized?5geometry?5type?4?$AA@ 004ae414     Parser.obj
 0002:00021430       ??_C@_0BM@MDJMECMA@Expected?3?5sphere?5attributes?$AA@ 004ae430     Parser.obj
 0002:0002144c       ??_C@_0BJ@JEFIHALH@Expected?3?5box?5attributes?$AA@ 004ae44c     Parser.obj
 0002:00021468       ??_C@_0BM@CBCLJACH@Expected?3?5square?5attributes?$AA@ 004ae468     Parser.obj
 0002:00021484       ??_C@_0BO@MJAKKOLO@Expected?3?5cylinder?5attributes?$AA@ 004ae484     Parser.obj
 0002:000214a4       ??_C@_0BK@DGCPPHCJ@Expected?3?5cone?5attributes?$AA@ 004ae4a4     Parser.obj
 0002:000214c0       ??_C@_02KEGNLNML@?0?5?$AA@ 004ae4c0     Parser.obj
 0002:000214c4       ??_C@_0BH@IAIHCODE@Bad?5face?5in?5trimesh?3?5?$CI?$AA@ 004ae4c4     Parser.obj
 0002:000214dc       ??_C@_0BN@HFGBACPK@Expected?3?5trimesh?5attributes?$AA@ 004ae4dc     Parser.obj
 0002:000214fc       ??_C@_0CF@GEDICGEO@Faces?5must?5have?5at?5least?53?5verti@ 004ae4fc     Parser.obj
 0002:00021524       ??_C@_0BJ@FLPIKKMJ@Expected?5color?5attribute?$AA@ 004ae524     Parser.obj
 0002:00021540       ??_C@_0BO@FJGFLJLJ@Repeated?5?8position?8?5attribute?$AA@ 004ae540     Parser.obj
 0002:00021560       ??_C@_0BL@HOPDEFJI@Repeated?5?8color?8?5attribute?$AA@ 004ae560     Parser.obj
 0002:0002157c       ??_C@_0BC@MPLNMJED@Expected?3?5?8color?8?$AA@ 004ae57c     Parser.obj
 0002:00021590       ??_C@_0BF@BNLFAKBJ@Expected?3?5?8position?8?$AA@ 004ae590     Parser.obj
 0002:000215a8       ??_C@_0IJ@GJFBILEP@expecting?5?8position?8?5or?5?8color?8?5@ 004ae5a8     Parser.obj
 0002:00021634       ??_C@_0BP@PNDIAFFJ@Repeated?5?8direction?8?5attribute?$AA@ 004ae634     Parser.obj
 0002:00021654       ??_C@_0CK@KJALOKIM@expecting?5?8position?8?5or?5?8color?8?5@ 004ae654     Parser.obj
 0002:00021680       ??_C@_0BB@CGGHNMEK@Expected?5boolean?$AA@ 004ae680     Parser.obj
 0002:00021694       ??_C@_0BL@NGDMLMNK@Redefinition?5of?5material?5?8?$AA@ 004ae694     Parser.obj
 0002:000216b0       ??_C@_0BN@KHJDOLNI@Expected?3?5material?5attribute?$AA@ 004ae6b0     Parser.obj
 0002:000216d0       ??_C@_01KMDKNFGN@?1?$AA@   004ae6d0     Parser.obj
 0002:000216d4       ??_C@_0BB@MOGOBHAF@list?$DMT?$DO?5too?5long?$AA@ 004ae6d4     Parser.obj
 0002:000216e8       __real@3f1a36e2eb1c432d    004ae6e8     Parser.obj
 0002:000216f0       __real@3f50624dd2f1a9fc    004ae6f0     Parser.obj
 0002:000216f8       __real@3ff199999999999a    004ae6f8     Parser.obj
 0002:00021700       __real@bee4f8b588e368f1    004ae700     Parser.obj
 0002:00021710       __xmm@bff0000000000000bff0000000000000 004ae710     Parser.obj
 0002:00021720       ??_C@_02KNHHEEKP@?5?5?$AA@ 004ae720     ParserException.obj
 0002:00021724       ??_C@_01JKBOJNNK@?$FO?$AA@ 004ae724     ParserException.obj
 0002:00021728       ??_C@_0BB@JPLPJABL@?3?5syntax?5error?3?5?$AA@ 004ae728     ParserException.obj
 0002:0002173c       ??_C@_05KCOECMCO@Line?5?$AA@ 004ae73c     ParserException.obj
 0002:00021744       ??_C@_05LAPONLG@false?$AA@ 004ae744     Token.obj
 0002:0002174c       ??_C@_04LOAJBDKD@true?$AA@ 004ae74c     Token.obj
 0002:00021754       ??_C@_02LMMGGCAJ@?3?5?$AA@ 004ae754     Token.obj
 0002:00021758       ??_C@_03KPJEKKJC@EOF?$AA@  004ae758     Token.obj
 0002:0002175c       ??_C@_0O@FACIOJJJ@SBT?9raytracer?$AA@ 004ae75c     Token.obj
 0002:0002176c       ??_C@_0L@GHBDJGA@Identifier?$AA@ 004ae76c     Token.obj
 0002:00021778       ??_C@_06HPHAACHK@Scalar?$AA@ 004ae778     Token.obj
 0002:00021780       ??_C@_0L@GMBOCABO@Left?5paren?$AA@ 004ae780     Token.obj
 0002:0002178c       ??_C@_0M@JHPALLDE@Right?5paren?$AA@ 004ae78c     Token.obj
 0002:00021798       ??_C@_0L@KAJFDDNE@Left?5brace?$AA@ 004ae798     Token.obj
 0002:000217a4       ??_C@_0M@FLHLKIPO@Right?5brace?$AA@ 004ae7a4     Token.obj
 0002:000217b0       ??_C@_05CJDGOLEJ@Comma?$AA@ 004ae7b0     Token.obj
 0002:000217b8       ??_C@_06EDKJEDJD@Equals?$AA@ 004ae7b8     Token.obj
 0002:000217c0       ??_C@_09FBGFMNJC@Semicolon?$AA@ 004ae7c0     Token.obj
 0002:000217cc       ??_C@_06FNKMPIBD@camera?$AA@ 004ae7cc     Token.obj
 0002:000217d4       ??_C@_0O@IHCDKIJG@ambient_light?$AA@ 004ae7d4     Token.obj
 0002:000217e4       ??_C@_0M@GHOKJKOP@point_light?$AA@ 004ae7e4     Token.obj
 0002:000217f0       ??_C@_0BC@CFBAKHOB@directional_light?$AA@ 004ae7f0     Token.obj
 0002:00021804       ??_C@_0BL@GCHPFKFA@constant_attenuation_coeff?$AA@ 004ae804     Token.obj
 0002:00021820       ??_C@_0BJ@GGAAGJLB@linear_attenuation_coeff?$AA@ 004ae820     Token.obj
 0002:0002183c       ??_C@_0BM@BMILJKBB@quadratic_attenuation_coeff?$AA@ 004ae83c     Token.obj
 0002:00021858       ??_C@_06FOHEPPJH@sphere?$AA@ 004ae858     Token.obj
 0002:00021860       ??_C@_03OLPJGAII@box?$AA@  004ae860     Token.obj
 0002:00021864       ??_C@_06ICDKOIFG@square?$AA@ 004ae864     Token.obj
 0002:0002186c       ??_C@_08GNLJBPEP@cylinder?$AA@ 004ae86c     Token.obj
 0002:00021878       ??_C@_04NOMJJLOC@cone?$AA@ 004ae878     Token.obj
 0002:00021880       ??_C@_07HAACKDAH@trimesh?$AA@ 004ae880     Token.obj
 0002:00021888       ??_C@_08OAGMDKAF@position?$AA@ 004ae888     Token.obj
 0002:00021894       ??_C@_07BDEMJIAO@viewdir?$AA@ 004ae894     Token.obj
 0002:0002189c       ??_C@_05CELKJGO@updir?$AA@ 004ae89c     Token.obj
 0002:000218a4       ??_C@_0M@FFGFHNCN@aspectratio?$AA@ 004ae8a4     Token.obj
 0002:000218b0       ??_C@_05PEENBMOG@color?$AA@ 004ae8b0     Token.obj
 0002:000218b8       ??_C@_09HPKLLIJF@direction?$AA@ 004ae8b8     Token.obj
 0002:000218c4       ??_C@_06MGAFENDN@capped?$AA@ 004ae8c4     Token.obj
 0002:000218cc       ??_C@_06LNLHEAAG@height?$AA@ 004ae8cc     Token.obj
 0002:000218d4       ??_C@_0O@MGOOHFDO@bottom_radius?$AA@ 004ae8d4     Token.obj
 0002:000218e4       ??_C@_0L@ECCBOGFH@top_radius?$AA@ 004ae8e4     Token.obj
 0002:000218f0       ??_C@_0L@JFJFNOGC@quaternian?$AA@ 004ae8f0     Token.obj
 0002:000218fc       ??_C@_06GPGIDCJA@points?$AA@ 004ae8fc     Token.obj
 0002:00021904       ??_C@_07MDEPDJDC@normals?$AA@ 004ae904     Token.obj
 0002:0002190c       ??_C@_09JGGNEAGH@materials?$AA@ 004ae90c     Token.obj
 0002:00021918       ??_C@_05FHFPJHPF@faces?$AA@ 004ae918     Token.obj
 0002:00021920       ??_C@_09ODNGOEIO@translate?$AA@ 004ae920     Token.obj
 0002:0002192c       ??_C@_05MHMEBBGO@scale?$AA@ 004ae92c     Token.obj
 0002:00021934       ??_C@_06CEHMNFAL@rotate?$AA@ 004ae934     Token.obj
 0002:0002193c       ??_C@_09IFONHNKG@transform?$AA@ 004ae93c     Token.obj
 0002:00021948       ??_C@_08KNOEMJMM@material?$AA@ 004ae948     Token.obj
 0002:00021954       ??_C@_08GHNOEFBP@emissive?$AA@ 004ae954     Token.obj
 0002:00021960       ??_C@_07LIABELBC@ambient?$AA@ 004ae960     Token.obj
 0002:00021968       ??_C@_08DPLIAGAA@specular?$AA@ 004ae968     Token.obj
 0002:00021974       ??_C@_0L@PIKBEMPP@reflective?$AA@ 004ae974     Token.obj
 0002:00021980       ??_C@_07KFBPAAO@diffuse?$AA@ 004ae980     Token.obj
 0002:00021988       ??_C@_0N@LNDBFIIK@transmissive?$AA@ 004ae988     Token.obj
 0002:00021998       ??_C@_09KFDJGKDF@shininess?$AA@ 004ae998     Token.obj
 0002:000219a4       ??_C@_05FKHKFDID@index?$AA@ 004ae9a4     Token.obj
 0002:000219ac       ??_C@_04MEMAJGDJ@name?$AA@ 004ae9ac     Token.obj
 0002:000219b4       ??_C@_03HBNNNHNM@map?$AA@  004ae9b4     Token.obj
 0002:000219b8       ??_C@_07OGAPFAKM@look_at?$AA@ 004ae9b8     Token.obj
 0002:000219c0       ??_C@_0BD@LDFMLPAL@Unknown?5token?5type?$AA@ 004ae9c0     Token.obj
 0002:000219d4       ??_C@_06FBNLAHKA@colour?$AA@ 004ae9d4     Token.obj
 0002:000219dc       ??_C@_03PKBINKFB@fov?$AA@  004ae9dc     Token.obj
 0002:000219e0       ??_C@_0L@BHGKEBAO@gennormals?$AA@ 004ae9e0     Token.obj
 0002:000219ec       ??_C@_08BGGMGDGA@polymesh?$AA@ 004ae9ec     Token.obj
 0002:000219f8       ??_C@_01BJJEKLCA@?$CC?$AA@ 004ae9f8     Token.obj
 0002:000219fc       ??_C@_03NONCDIOG@?3?5?$CC?$AA@ 004ae9fc     Token.obj
 0002:00021a04       ??_7Token@@6B@             004aea04     Tokenizer.obj
 0002:00021a1c       ??_C@_0BC@MGICLIFO@not?5an?5IdentToken?$AA@ 004aea1c     Tokenizer.obj
 0002:00021a30       ??_C@_0BC@EGHEPLJL@not?5a?5ScalarToken?$AA@ 004aea30     Tokenizer.obj
 0002:00021a48       ??_7IdentToken@@6B@        004aea48     Tokenizer.obj
 0002:00021a64       ??_7ScalarToken@@6B@       004aea64     Tokenizer.obj
 0002:00021a7c       ??_C@_0BD@PDPOCNJP@didn?8t?5get?5a?5token?$AA@ 004aea7c     Tokenizer.obj
 0002:00021a90       ??_C@_0N@MFDCNEGN@Token?5read?3?5?$AA@ 004aea90     Tokenizer.obj
 0002:00021aa0       ??_C@_0BO@BKBDIIJJ@Unterminated?5comment?5in?5line?5?$AA@ 004aeaa0     Tokenizer.obj
 0002:00021ac0       ??_C@_0BI@GOKDKLJF@unexpected?5character?3?5?8?$AA@ 004aeac0     Tokenizer.obj
 0002:00021ad8       ??_C@_0BN@KJKLAGOG@Unterminated?5string?5constant?$AA@ 004aead8     Tokenizer.obj
 0002:00021af8       ??_C@_0CE@FCMDIHFN@trying?5to?5UnGet?5more?5than?5one?5to@ 004aeaf8     Tokenizer.obj
 0002:00021b1c       ??_C@_0M@FLAGGKJE@?5expected?0?5?$AA@ 004aeb1c     Tokenizer.obj
 0002:00021b28       ??_C@_0BA@BOIFONKB@?5found?5instead?$CB?$AA@ 004aeb28     Tokenizer.obj
 0002:00021b3c       ??_7TraceGLWindow@@6B@     004aeb3c     TraceGLWindow.obj
 0002:00021b68       ??_C@_0BA@GODACDEP@Tracing?5ray?5at?5?$AA@ 004aeb68     TraceGLWindow.obj
 0002:00021b78       ?clipboard_plain_text@Fl@@2QBDB 004aeb78     fltk:Fl.obj
 0002:00021b7c       ?clipboard_image@Fl@@2QBDB 004aeb7c     fltk:Fl.obj
 0002:00021ce8       ??_C@_0L@NPNLKGOJ@text?1plain?$AA@ 004aece8     fltk:Fl.obj
 0002:00021cf4       ??_C@_05NGOMGBBD@image?$AA@ 004aecf4     fltk:Fl.obj
 0002:00021d00       ??_7Fl_Image@@6B@          004aed00     fltk:Fl.obj
 0002:00021d24       ??_7Fl_RGB_Image@@6B@      004aed24     fltk:Fl.obj
 0002:00021d48       ??_7Fl_Device@@6B@         004aed48     fltk:Fl.obj
 0002:00021d54       ??_7Fl_Graphics_Driver@@6B@ 004aed54     fltk:Fl.obj
 0002:00021e44       ??_7Fl_GDI_Graphics_Driver@@6B@ 004aee44     fltk:Fl.obj
 0002:00021f30       ??_C@_0L@IEONIBAK@WS2_32?4DLL?$AA@ 004aef30     fltk:Fl.obj
 0002:00021f40       ??_C@_0FB@LGOLGIOM@FLTK?5Lib?5Error?3?5?$CFs?5file?5not?5foun@ 004aef40     fltk:Fl.obj
 0002:00021f94       ??_C@_06LGNCCACI@select?$AA@ 004aef94     fltk:Fl.obj
 0002:00021f9c       ??_C@_0N@EPLFDCCC@__WSAFDIsSet?$AA@ 004aef9c     fltk:Fl.obj
 0002:00021fac       ??_C@_09HMGNLLEE@IMM32?4DLL?$AA@ 004aefac     fltk:Fl.obj
 0002:00021fb8       ??_C@_0GJ@JIGFOKHO@FLTK?5Lib?5Error?3?5IMM32?4DLL?5file?5n@ 004aefb8     fltk:Fl.obj
 0002:00022024       ??_C@_0BG@DDNNLDIF@ImmAssociateContextEx?$AA@ 004af024     fltk:Fl.obj
 0002:0002203c       ??_C@_0O@KCHCFLMC@ImmGetContext?$AA@ 004af03c     fltk:Fl.obj
 0002:0002204c       ??_C@_0BI@LCGEKKLJ@ImmSetCompositionWindow?$AA@ 004af04c     fltk:Fl.obj
 0002:00022064       ??_C@_0BC@OCDKEPCD@ImmReleaseContext?$AA@ 004af064     fltk:Fl.obj
 0002:00022078       ??_C@_0CA@HNNJKIMO@Temporary?5FLTK?5Clipboard?5Window?$AA@ 004af078     fltk:Fl.obj
 0002:00022098       ??_C@_06GCFCNKMP@STATIC?$AA@ 004af098     fltk:Fl.obj
 0002:000220a0       ??_C@_0BA@PJGNFDML@WM_QUIT?5message?$AA@ 004af0a0     fltk:Fl.obj
 0002:000220b0       ??_C@_04EHJEFCCM@FLTK?$AA@ 004af0b0     fltk:Fl.obj
 0002:000220b8       ??_C@_1CG@KKNAJMLN@?$AAF?$AAL?$AAT?$AAK?$AA?3?$AA?3?$AAT?$AAh?$AAr?$AAe?$AAa?$AAd?$AAW?$AAa?$AAk?$AAe?$AAu?$AAp?$AA?$AA@ 004af0b8     fltk:Fl.obj
 0002:000220e0       ??_C@_07GPOAJGEN@FLTimer?$AA@ 004af0e0     fltk:Fl.obj
 0002:000220e8       ??_C@_04ILKOLAFE@fltk?$AA@ 004af0e8     fltk:Fl.obj
 0002:000220f0       ??_C@_08KLKCJKEE@fltk?4org?$AA@ 004af0f0     fltk:Fl.obj
 0002:000220fc       ??_C@_07FOPBDDAL@options?$AA@ 004af0fc     fltk:Fl.obj
 0002:00022104       ??_C@_0L@DCILLLPG@ArrowFocus?$AA@ 004af104     fltk:Fl.obj
 0002:00022110       ??_C@_0N@DHKKLCBK@VisibleFocus?$AA@ 004af110     fltk:Fl.obj
 0002:00022120       ??_C@_07GHCNEBPP@DNDText?$AA@ 004af120     fltk:Fl.obj
 0002:00022128       ??_C@_0N@IDAOOJII@ShowTooltips?$AA@ 004af128     fltk:Fl.obj
 0002:00022138       ??_C@_0M@PDAHBCII@FNFCUsesGTK?$AA@ 004af138     fltk:Fl.obj
 0002:00022148       __real@3ff07c1bda5119ce    004af148     fltk:Fl.obj
 0002:00022150       __real@40c3880000000000    004af150     fltk:Fl.obj
 0002:00022158       __real@4415af1d78b58c40    004af158     fltk:Fl.obj
 0002:00022164       ??_7Fl_Window@@6B@         004af164     fltk:Fl_Window.obj
 0002:00022190       ??_7Fl_Group@@6B@          004af190     fltk:Fl_Group.obj
 0002:000221b8       ??_7InputMenuButton@Fl_Input_Choice@@6B@ 004af1b8     fltk:Fl_Group.obj
 0002:000221e0       ??_7Fl_Input_Choice@@6B@   004af1e0     fltk:Fl_Group.obj
 0002:00022208       ??_7Fl_Spinner@@6B@        004af208     fltk:Fl_Group.obj
 0002:0002222c       ??_C@_05DLHCDJKH@?$CF?412f?$AA@ 004af22c     fltk:Fl_Group.obj
 0002:00022234       ??_C@_05FDGBJIHC@?$EA?942?$DM?$AA@ 004af234     fltk:Fl_Group.obj
 0002:0002223c       ??_C@_05GBFHPKPA@?$EA?942?$DO?$AA@ 004af23c     fltk:Fl_Group.obj
 0002:00022244       ??_C@_02BEIEFPIG@?$CFg?$AA@ 004af244     fltk:Fl_Group.obj
 0002:00022248       ??_C@_01HIHLOKLC@1?$AA@    004af248     fltk:Fl_Group.obj
 0002:00022250       ??_7Fl_Menu_@@6B@          004af250     fltk:Fl_Menu_.obj
 0002:00022278       ??_7Fl_Menu_Bar@@6B@       004af278     fltk:Fl_Menu_Bar.obj
 0002:0002229c       ??_C@_02JINPPBEP@No?$AA@   004af29c     fltk:fl_ask.obj
 0002:000222a0       ??_C@_03CCLAEDDF@Yes?$AA@  004af2a0     fltk:fl_ask.obj
 0002:000222a4       ??_C@_02GIPFHKNO@OK?$AA@   004af2a4     fltk:fl_ask.obj
 0002:000222a8       ??_C@_06FMBNCPDL@Cancel?$AA@ 004af2a8     fltk:fl_ask.obj
 0002:000222b0       ??_C@_05LGELBCGM@Close?$AA@ 004af2b0     fltk:fl_ask.obj
 0002:000222b8       ??_C@_01OGPIMHDM@?$DP?$AA@ 004af2b8     fltk:fl_ask.obj
 0002:000222bc       ??_C@_01KBJDNOO@i?$AA@     004af2bc     fltk:fl_ask.obj
 0002:000222c0       ??_C@_01DCLJPIOD@?$CB?$AA@ 004af2c0     fltk:fl_ask.obj
 0002:000222c8       ??_7Fl_Widget@@6B@         004af2c8     fltk:Fl_Widget.obj
 0002:000222f0       ??_7Fl_Valuator@@6B@       004af2f0     fltk:Fl_Valuator.obj
 0002:0002231c       ??_C@_04HGGMHPIM@?$CF?4?$CKf?$AA@ 004af31c     fltk:Fl_Valuator.obj
 0002:00022328       __real@3e0002fab692ca0a    004af328     fltk:Fl_Valuator.obj
 0002:00022334       ??_7Fl_Value_Slider@@6B@   004af334     fltk:Fl_Value_Slider.obj
 0002:00022364       ??_7Fl_Hor_Value_Slider@@6B@ 004af364     fltk:Fl_Value_Slider.obj
 0002:00022394       ??_7Fl_Button@@6B@         004af394     fltk:Fl_Button.obj
 0002:000223bc       ??_7Fl_Radio_Button@@6B@   004af3bc     fltk:Fl_Button.obj
 0002:000223e4       ??_7Fl_Toggle_Button@@6B@  004af3e4     fltk:Fl_Button.obj
 0002:00022408       __real@3fc3333333333333    004af408     fltk:Fl_Button.obj
 0002:00022414       ??_7Fl_Check_Button@@6B@   004af414     fltk:Fl_Check_Button.obj
 0002:0002243c       ??_7Fl_Input_@@6B@         004af43c     fltk:Fl_Input_.obj
 0002:00022460       ??_C@_06LPLOBJHI@?$CD?$CF?9?$EA_?$HO?$AA@ 004af460     fltk:Fl_Input_.obj
 0002:00022468       ??_C@_02MDDDDAID@0x?$AA@   004af468     fltk:Fl_Input_.obj
 0002:0002246c       __real@3f000000            004af46c     fltk:Fl_Input_.obj
 0002:00022470       __real@40200000            004af470     fltk:Fl_Input_.obj
 0002:00022474       __real@40400000            004af474     fltk:Fl_Input_.obj
 0002:00022478       __real@40600000            004af478     fltk:Fl_Input_.obj
 0002:000224a0       ??_7Fl_Bitmap@@6B@         004af4a0     fltk:Fl_File_Chooser.obj
 0002:000224c0       ??_C@_0M@LONBHCKE@Choose?5File?$AA@ 004af4c0     fltk:Fl_File_Chooser.obj
 0002:000224cc       ??_C@_05HKDHFPHA@Show?3?$AA@ 004af4cc     fltk:Fl_File_Chooser.obj
 0002:000224d4       ??_C@_09KPJDHMFB@Favorites?$AA@ 004af4d4     fltk:Fl_File_Chooser.obj
 0002:000224e0       ??_C@_07PCOLMHKH@Preview?$AA@ 004af4e0     fltk:Fl_File_Chooser.obj
 0002:000224e8       ??_C@_0BC@CAHIFNDB@Show?5hidden?5files?$AA@ 004af4e8     fltk:Fl_File_Chooser.obj
 0002:000224fc       ??_C@_09BFIOMJJM@Filename?3?$AA@ 004af4fc     fltk:Fl_File_Chooser.obj
 0002:00022508       ??_C@_0BB@KGFFEEGK@Manage?5Favorites?$AA@ 004af508     fltk:Fl_File_Chooser.obj
 0002:0002251c       ??_C@_03COBCNHIL@?$EA8?$DO?$AA@ 004af51c     fltk:Fl_File_Chooser.obj
 0002:00022520       ??_C@_03CDIFFCFN@?$EA2?$DO?$AA@ 004af520     fltk:Fl_File_Chooser.obj
 0002:00022524       ??_C@_04INACKGJP@Save?$AA@ 004af524     fltk:Fl_File_Chooser.obj
 0002:0002252c       ??_C@_07LJNKFPB@preview?$AA@ 004af52c     fltk:Fl_File_Chooser.obj
 0002:00022534       ??_C@_0BB@BBFHLIMJ@Add?5to?5Favorites?$AA@ 004af534     fltk:Fl_File_Chooser2.obj
 0002:00022548       ??_C@_0O@KILMEAIN@All?5Files?5?$CI?$CK?$CJ?$AA@ 004af548     fltk:Fl_File_Chooser2.obj
 0002:00022558       ??_C@_0O@DOHEBDEB@Custom?5Filter?$AA@ 004af558     fltk:Fl_File_Chooser2.obj
 0002:00022568       ??_C@_0CA@PILCPDF@Please?5choose?5an?5existing?5file?$CB?$AA@ 004af568     fltk:Fl_File_Chooser2.obj
 0002:00022588       ??_C@_0M@GJDJAHNC@My?5Computer?$AA@ 004af588     fltk:Fl_File_Chooser2.obj
 0002:00022594       ??_C@_0P@CGBGDHOM@New?5Directory?$DP?$AA@ 004af594     fltk:Fl_File_Chooser2.obj
 0002:000225a4       ??_C@_0BI@FDFCKHG@Create?5a?5new?5directory?4?$AA@ 004af5a4     fltk:Fl_File_Chooser2.obj
 0002:000225bc       ??_C@_0M@JLJBJNNE@filechooser?$AA@ 004af5bc     fltk:Fl_File_Chooser2.obj
 0002:000225c8       ??_C@_03BPDOPNEN@?1?4?4?$AA@ 004af5c8     fltk:Fl_File_Chooser2.obj
 0002:000225cc       ??_C@_02DIKICOBM@?1?4?$AA@ 004af5cc     fltk:Fl_File_Chooser2.obj
 0002:000225d0       ??_C@_04GHGFPGNC@HOME?$AA@ 004af5d0     fltk:Fl_File_Chooser2.obj
 0002:000225d8       ??_C@_0N@FFIKKGEO@favorite?$CF02d?$AA@ 004af5d8     fltk:Fl_File_Chooser2.obj
 0002:000225e8       ??_C@_03BMHODBLF@?1?$CFs?$AA@ 004af5e8     fltk:Fl_File_Chooser2.obj
 0002:000225ec       ??_C@_05GFOLEBJA@?$CFs?1?$CFs?$AA@ 004af5ec     fltk:Fl_File_Chooser2.obj
 0002:000225f4       ??_C@_01NBENCBCI@?$CK?$AA@ 004af5f4     fltk:Fl_File_Chooser2.obj
 0002:000225f8       ??_C@_03MKKBPLOP@?$CI?$CK?$CJ?$AA@ 004af5f8     fltk:Fl_File_Chooser2.obj
 0002:000225fc       ??_C@_03HCLPHHMJ@bla?$AA@  004af5fc     fltk:Fl_File_Chooser2.obj
 0002:00022600       ??_C@_09LDACGEAN@?$EAfileopen?$AA@ 004af600     fltk:Fl_File_Chooser2.obj
 0002:0002260c       ??_C@_0L@HCAALJFL@?$EA?93refresh?$AA@ 004af60c     fltk:Fl_File_Chooser2.obj
 0002:00022618       ??_C@_0N@FFPLCKJO@?$DMempty?5file?$DO?$AA@ 004af618     fltk:Fl_File_Chooser2.obj
 0002:00022628       ??_C@_03LOJJKLGJ@?4?4?1?$AA@ 004af628     fltk:Fl_File_Chooser2.obj
 0002:00022630       ??_7Fl_Input@@6B@          004af630     fltk:Fl_Input.obj
 0002:00022658       ??_7Fl_Float_Input@@6B@    004af658     fltk:Fl_Input.obj
 0002:00022680       ??_7Fl_Int_Input@@6B@      004af680     fltk:Fl_Input.obj
 0002:000226a8       ??_7Fl_Multiline_Input@@6B@ 004af6a8     fltk:Fl_Input.obj
 0002:000226d0       ??_7Fl_Output@@6B@         004af6d0     fltk:Fl_Input.obj
 0002:000226f8       ??_7Fl_Multiline_Output@@6B@ 004af6f8     fltk:Fl_Input.obj
 0002:00022720       ??_7Fl_Secret_Input@@6B@   004af720     fltk:Fl_Input.obj
 0002:00022744       ??_C@_05JKLBJJMG@?4eE?$CL?9?$AA@ 004af744     fltk:Fl_Input.obj
 0002:00022750       ??_7Fl_Text_Display@@6B@   004af750     fltk:Fl_Text_Display.obj
 0002:00022778       ??_C@_0ED@CDAHMFMP@Fl_Text_Display?3?3position_to_lin@ 004af778     fltk:Fl_Text_Display.obj
 0002:000227bc       ??_C@_04KGNEBBHP@Mitg?$AA@ 004af7bc     fltk:Fl_Text_Display.obj
 0002:000227c8       __real@3f847ae147ae147b    004af7c8     fltk:Fl_Text_Display.obj
 0002:000227d0       __real@3fb999999999999a    004af7d0     fltk:Fl_Text_Display.obj
 0002:000227d8       __real@3fd0000000000000    004af7d8     fltk:Fl_Text_Display.obj
 0002:00022c50       ??_C@_0L@NDEGIDAG@USER32?4DLL?$AA@ 004afc50     fltk:screen_xywh.obj
 0002:00022c5c       ??_C@_0BE@OHNDFFJG@EnumDisplayMonitors?$AA@ 004afc5c     fltk:screen_xywh.obj
 0002:00022c70       ??_C@_0BA@KIAMMEPJ@GetMonitorInfoA?$AA@ 004afc70     fltk:screen_xywh.obj
 0002:00022c80       __real@437f0000            004afc80     fltk:Fl_Image.obj
 0002:00022c84       __real@43800000            004afc84     fltk:Fl_Image.obj
 0002:00022c8c       ??_7Fl_TooltipBox@@6B@     004afc8c     fltk:Fl_Tooltip.obj
 0002:00022cb8       ??_7Fl_Double_Window@@6B@  004afcb8     fltk:Fl_Double_Window.obj
 0002:00022ce4       ??_7Fl_Overlay_Window@@6B@ 004afce4     fltk:Fl_Double_Window.obj
 0002:00022d10       ??_C@_0M@DKGCAEKO@MSIMG32?4DLL?$AA@ 004afd10     fltk:Fl_Double_Window.obj
 0002:00022d1c       ??_C@_0L@MHHLCNNL@AlphaBlend?$AA@ 004afd1c     fltk:Fl_Double_Window.obj
 0002:00022d2c       ??_7Fl_Preferences@@6B@    004afd2c     fltk:Fl_Preferences.obj
 0002:00022d34       ??_7Fl_Plugin@@6B@         004afd34     fltk:Fl_Preferences.obj
 0002:00022d3c       ??_7Fl_Plugin_Manager@@6B@ 004afd3c     fltk:Fl_Preferences.obj
 0002:00022d40       ??_C@_0L@MIENCLP@Rpcrt4?4dll?$AA@ 004afd40     fltk:Fl_Preferences.obj
 0002:00022d4c       ??_C@_0L@IDKDBMAM@UuidCreate?$AA@ 004afd4c     fltk:Fl_Preferences.obj
 0002:00022d58       ??_C@_0DC@JFCABAPJ@?$CF08lX?9?$CF04X?9?$CF04X?9?$CF02X?$CF02X?9?$CF02X?$CF02@ 004afd58     fltk:Fl_Preferences.obj
 0002:00022d90       ??_C@_0EF@JNBNDAPL@?$CF02X?$CF02X?$CF02X?$CF02X?9?$CF02X?$CF02X?9?$CF02X?$CF0@ 004afd90     fltk:Fl_Preferences.obj
 0002:00022dd8       ??_C@_04GPHHEOMN@?$CF?4?$CKg?$AA@ 004afdd8     fltk:Fl_Preferences.obj
 0002:00022de0       ??_C@_1IC@FEABEGAG@?$AAS?$AAo?$AAf?$AAt?$AAw?$AAa?$AAr?$AAe?$AA?2?$AAM?$AAi?$AAc?$AAr?$AAo?$AAs?$AAo?$AAf?$AAt?$AA?2?$AAW?$AAi?$AAn?$AAd?$AAo?$AAw?$AAs?$AA?2?$AAC?$AAu?$AAr?$AAr?$AAe@ 004afde0     fltk:Fl_Preferences.obj
 0002:00022e64       ??_C@_1BO@ODINMDLE@?$AAC?$AAo?$AAm?$AAm?$AAo?$AAn?$AA?5?$AAA?$AAp?$AAp?$AAD?$AAa?$AAt?$AAa?$AA?$AA@ 004afe64     fltk:Fl_Preferences.obj
 0002:00022e84       ??_C@_1BA@MFEODJDO@?$AAA?$AAp?$AAp?$AAD?$AAa?$AAt?$AAa?$AA?$AA@ 004afe84     fltk:Fl_Preferences.obj
 0002:00022e94       ??_C@_07DENJINMG@C?3?2FLTK?$AA@ 004afe94     fltk:Fl_Preferences.obj
 0002:00022e9c       ??_C@_0N@IEDKNAFM@?1?$CFs?1?$CFs?4prefs?$AA@ 004afe9c     fltk:Fl_Preferences.obj
 0002:00022eac       ??_C@_07CIFAGBMG@unknown?$AA@ 004afeac     fltk:Fl_Preferences.obj
 0002:00022eb4       ??_C@_0M@GEJFMOHB@?$CFs?1?$CFs?4prefs?$AA@ 004afeb4     fltk:Fl_Preferences.obj
 0002:00022ec0       ??_C@_03FPOFAMAH@?$FN?6?$AN?$AA@ 004afec0     fltk:Fl_Preferences.obj
 0002:00022ec4       ??_C@_02LIIHNNHG@?6?$AN?$AA@ 004afec4     fltk:Fl_Preferences.obj
 0002:00022ec8       ??_C@_0CE@CMFLCOHN@?$DL?5FLTK?5preferences?5file?5format?51@ 004afec8     fltk:Fl_Preferences.obj
 0002:00022eec       ??_C@_0O@HACJFBME@?$DL?5vendor?3?5?$CFs?6?$AA@ 004afeec     fltk:Fl_Preferences.obj
 0002:00022efc       ??_C@_0BD@KJJFGJCK@?$DL?5application?3?5?$CFs?6?$AA@ 004afefc     fltk:Fl_Preferences.obj
 0002:00022f10       ??_C@_07NMDDFKK@?6?$FL?$CFs?$FN?6?6?$AA@ 004aff10     fltk:Fl_Preferences.obj
 0002:00022f18       ??_C@_03DKEJHHJP@?$CFs?3?$AA@ 004aff18     fltk:Fl_Preferences.obj
 0002:00022f1c       ??_C@_03OFAPEBGM@?$CFs?6?$AA@ 004aff1c     fltk:Fl_Preferences.obj
 0002:00022f20       ??_C@_07KBDNECO@plugins?$AA@ 004aff20     fltk:Fl_Preferences.obj
 0002:00022f28       ??_C@_07LHEPONKL@address?$AA@ 004aff28     fltk:Fl_Preferences.obj
 0002:00022f30       ??_C@_04HDOCAJNK@?$CFs?$CFs?$AA@ 004aff30     fltk:Fl_Preferences.obj
 0002:00022f38       ??_C@_09DDFKPLEK@Fl_Device?$AA@ 004aff38     fltk:Fl_Device.obj
 0002:00022f44       ??_C@_0BC@NLBGGEOG@Fl_Surface_Device?$AA@ 004aff44     fltk:Fl_Device.obj
 0002:00022f58       ??_C@_0BC@PDBEOEDE@Fl_Display_Device?$AA@ 004aff58     fltk:Fl_Device.obj
 0002:00022f6c       ??_C@_0BD@FBANMOOF@Fl_Graphics_Driver?$AA@ 004aff6c     fltk:Fl_Device.obj
 0002:00022f80       ??_C@_0BH@FMDCEFBA@Fl_GDI_Graphics_Driver?$AA@ 004aff80     fltk:Fl_Device.obj
 0002:00022f98       ??_C@_0BP@FHCDJFOJ@Fl_GDI_Printer_Graphics_Driver?$AA@ 004aff98     fltk:Fl_Device.obj
 0002:00022fb8       ?m0@Fl_Graphics_Driver@@0Umatrix@1@B 004affb8     fltk:Fl_Device.obj
 0002:00022fec       ??_7Fl_Surface_Device@@6B@ 004affec     fltk:Fl_Device.obj
 0002:00022ffc       ??_7Fl_Display_Device@@6B@ 004afffc     fltk:Fl_Device.obj
 0002:00023008       ??_C@_0CE@HCNIJNJC@fl_push_clip?3?5clip?5stack?5overflo@ 004b0008     fltk:fl_rect.obj
 0002:0002302c       ??_C@_0CH@HKCJBKLI@fl_push_no_clip?3?5clip?5stack?5over@ 004b002c     fltk:fl_rect.obj
 0002:00023054       ??_C@_0CE@GGJAFANN@fl_pop_clip?3?5clip?5stack?5underflo@ 004b0054     fltk:fl_rect.obj
 0002:00023078       ??_C@_0DC@OMBCIDKK@fl_line_style?$CI?$CJ?3?5Could?5not?5creat@ 004b0078     fltk:fl_line_style.obj
 0002:000230ac       ??_C@_0CJ@IGCOPKPI@fl_push_matrix?$CI?$CJ?3?5matrix?5stack?5o@ 004b00ac     fltk:fl_vertex.obj
 0002:000230d8       ??_C@_0CJ@KDCCCOPH@fl_pop_matrix?$CI?$CJ?3?5matrix?5stack?5un@ 004b00d8     fltk:fl_vertex.obj
 0002:00023108       __real@400921fb54442d18    004b0108     fltk:fl_vertex.obj
 0002:00023110       __real@4066800000000000    004b0110     fltk:fl_vertex.obj
 0002:00023118       __real@4070e00000000000    004b0118     fltk:fl_vertex.obj
 0002:00023120       __real@4008000000000000    004b0120     fltk:fl_curve.obj
 0002:00023128       __real@4018000000000000    004b0128     fltk:fl_curve.obj
 0002:00023130       __real@3f91df46a2529d39    004b0130     fltk:fl_arc.obj
 0002:00023138       ??_C@_06CMELEOEO@?5Arial?$AA@ 004b0138     fltk:fl_font.obj
 0002:00023140       ??_C@_06DAGCBDIC@BArial?$AA@ 004b0140     fltk:fl_font.obj
 0002:00023148       ??_C@_06DCGFEHHI@IArial?$AA@ 004b0148     fltk:fl_font.obj
 0002:00023150       ??_C@_06MACDJOGF@PArial?$AA@ 004b0150     fltk:fl_font.obj
 0002:00023158       ??_C@_0N@MNLJMCBB@?5Courier?5New?$AA@ 004b0158     fltk:fl_font.obj
 0002:00023168       ??_C@_0N@KDBGKNAE@BCourier?5New?$AA@ 004b0168     fltk:fl_font.obj
 0002:00023178       ??_C@_0N@EENPBCKH@ICourier?5New?$AA@ 004b0178     fltk:fl_font.obj
 0002:00023188       ??_C@_0N@HHENLOJF@PCourier?5New?$AA@ 004b0188     fltk:fl_font.obj
 0002:00023198       ??_C@_0BB@BDIIHDFG@?5Times?5New?5Roman?$AA@ 004b0198     fltk:fl_font.obj
 0002:000231ac       ??_C@_0BB@LEFBLEJP@BTimes?5New?5Roman?$AA@ 004b01ac     fltk:fl_font.obj
 0002:000231c0       ??_C@_0BB@BNLKAIF@ITimes?5New?5Roman?$AA@ 004b01c0     fltk:fl_font.obj
 0002:000231d4       ??_C@_0BB@HHDMLNCF@PTimes?5New?5Roman?$AA@ 004b01d4     fltk:fl_font.obj
 0002:000231e8       ??_C@_07CHPFMJCB@?5Symbol?$AA@ 004b01e8     fltk:fl_font.obj
 0002:000231f0       ??_C@_09OEIGOHMK@?5Terminal?$AA@ 004b01f0     fltk:fl_font.obj
 0002:000231fc       ??_C@_09DBJEDDIH@BTerminal?$AA@ 004b01fc     fltk:fl_font.obj
 0002:00023208       ??_C@_0L@KHKIIEDI@?5Wingdings?$AA@ 004b0208     fltk:fl_font.obj
 0002:00023218       ??_C@_0EL@IFMHCPIP@Invalid?5graphic?5context?3?5fl_widt@ 004b0218     fltk:fl_font.obj
 0002:00023264       ??_C@_09EKENDDFG@GDI32?4DLL?$AA@ 004b0264     fltk:fl_font.obj
 0002:00023270       ??_C@_0BB@CHEFENKC@GetGlyphIndicesW?$AA@ 004b0270     fltk:fl_font.obj
 0002:00023298       ??_7Fl_Pixmap@@6B@         004b0298     fltk:Fl_Pixmap.obj
 0002:000232b8       ??_C@_0P@NNILFBGL@TransparentBlt?$AA@ 004b02b8     fltk:Fl_Pixmap.obj
 0002:000232c8       ??_C@_0L@PBAPIDBD@?$CF?$CKd?$CF?$CKd?$CFd?$CFd?$AA@ 004b02c8     fltk:Fl_Pixmap.obj
 0002:000232d4       ??_C@_0BF@GIKEENFE@?$CFc?$CFc?5c?5?$CD?$CF02X?$CF02X?$CF02X?$AA@ 004b02d4     fltk:Fl_Pixmap.obj
 0002:000232ec       ??_C@_0BD@GJOOFOJK@?$CFc?5c?5?$CD?$CF02X?$CF02X?$CF02X?$AA@ 004b02ec     fltk:Fl_Pixmap.obj
 0002:00023300       ??_C@_07FBJBINLC@?$CF?$CKd?$CFd?$CFd?$AA@ 004b0300     fltk:Fl_Pixmap.obj
 0002:00023308       ??_C@_04HOIDJOPE@?$PP?p?$AP?$AA?$AA@ 004b0308     fltk:Fl_Bitmap.obj
 0002:00023420       ??_C@_09HKCEHKLE@64?564?53?51?$AA@ 004b0420     fltk:Fl_get_system_colors.obj
 0002:00023430       ??_C@_0EB@CDDFDPFG@oooooooooooooooooooooooooooooooo@ 004b0430     fltk:Fl_get_system_colors.obj
 0002:00023478       ??_C@_0EB@MDNEBHEJ@?4?4?4?4?4?4?4?4?4?4?4?4?4?4?4?4?4?4?4?4?4?4?4?4?4?4?4?4?4?4?4?4@ 004b0478     fltk:Fl_get_system_colors.obj
 0002:000234c0       ??_C@_0EB@BHJDBOKN@OOOOOOOOOOOOOOOOOOOOOOOOOOOOOOOO@ 004b04c0     fltk:Fl_get_system_colors.obj
 0002:00023504       ??_C@_09DNFMELMB@?$CF1x?$CF1x?$CF1x?$AA@ 004b0504     fltk:Fl_get_system_colors.obj
 0002:00023510       ??_C@_09IAADLLPD@?$CF2x?$CF2x?$CF2x?$AA@ 004b0510     fltk:Fl_get_system_colors.obj
 0002:0002351c       ??_C@_09FNOGBGCC@?$CF3x?$CF3x?$CF3x?$AA@ 004b051c     fltk:Fl_get_system_colors.obj
 0002:00023528       ??_C@_09CBMNFNNG@?$CF4x?$CF4x?$CF4x?$AA@ 004b0528     fltk:Fl_get_system_colors.obj
 0002:00023534       ??_C@_0BC@DIHKCNMI@Unknown?5color?3?5?$CFs?$AA@ 004b0534     fltk:Fl_get_system_colors.obj
 0002:00023548       ??_C@_0M@ENOMGPJG@FLTK_SCHEME?$AA@ 004b0548     fltk:Fl_get_system_colors.obj
 0002:00023554       ??_C@_04CGFJFPFD@none?$AA@ 004b0554     fltk:Fl_get_system_colors.obj
 0002:0002355c       ??_C@_04BHIIPFEC@base?$AA@ 004b055c     fltk:Fl_get_system_colors.obj
 0002:00023564       ??_C@_04MEGAENNM@gtk?$CL?$AA@ 004b0564     fltk:Fl_get_system_colors.obj
 0002:0002356c       ??_C@_07OKMKCOHH@plastic?$AA@ 004b056c     fltk:Fl_get_system_colors.obj
 0002:00023574       ??_C@_05JCLAEIDO@gleam?$AA@ 004b0574     fltk:Fl_get_system_colors.obj
 0002:0002357c       ??_C@_0N@HDMJJCKA@FLTK_SCHEME?$DN?$AA@ 004b057c     fltk:Fl_get_system_colors.obj
 0002:0002358c       ??_C@_03FFEAONLJ@Oo?4?$AA@ 004b058c     fltk:Fl_get_system_colors.obj
 0002:00023590       ??_C@_0BD@LEJLHMNO@?$CFc?5c?5?$CD?$CF02x?$CF02x?$CF02x?$AA@ 004b0590     fltk:Fl_get_system_colors.obj
 0002:000235a8       __real@3fe7a6f4de9bd37a    004b05a8     fltk:Fl_get_system_colors.obj
 0002:000235b0       __real@4037000000000000    004b05b0     fltk:Fl_get_system_colors.obj
 0002:000235b8       ??_C@_05NAOIJFC@Error?$AA@ 004b05b8     fltk:Fl_abort.obj
 0002:000235c4       ??_7FLDropTarget@@6B@      004b05c4     fltk:fl_dnd.obj
 0002:000235e8       ??_7FLDropSource@@6B@      004b05e8     fltk:fl_dnd.obj
 0002:00023604       ??_7FLDataObject@@6B@      004b0604     fltk:fl_dnd.obj
 0002:00023668       ??_C@_04KDBNDFFH@WWHH?$AA@ 004b0668     fltk:fl_boxtype.obj
 0002:00023670       ??_C@_04JDPHJIBO@HHWW?$AA@ 004b0670     fltk:fl_boxtype.obj
 0002:00023678       ??_C@_08LOKONDDE@AAWWMMTT?$AA@ 004b0678     fltk:fl_boxtype.obj
 0002:00023684       ??_C@_08KNBIGJOA@WWMMPPAA?$AA@ 004b0684     fltk:fl_boxtype.obj
 0002:00023690       ??_C@_08OLPNEBNF@HHWWWWHH?$AA@ 004b0690     fltk:fl_boxtype.obj
 0002:0002369c       ??_C@_08GOODBONC@WWHHHHWW?$AA@ 004b069c     fltk:fl_boxtype.obj
 0002:000236ac       ??_7Fl_Menu_Button@@6B@    004b06ac     fltk:Fl_Menu_Button.obj
 0002:000236d4       ??_7Fl_Repeat_Button@@6B@  004b06d4     fltk:Fl_Repeat_Button.obj
 0002:000236fc       ??_7menutitle@@6B@         004b06fc     fltk:Fl_Menu.obj
 0002:00023728       ??_7menuwindow@@6B@        004b0728     fltk:Fl_Menu.obj
 0002:00023750       __real@4076800000000000    004b0750     fltk:Fl_Menu.obj
 0002:00023760       __xmm@4066800000000000404e000000000000 004b0760     fltk:Fl_Menu.obj
 0002:00023770       ??_C@_05OHDNNCDM@?5?9?$CL?$CD?8?$AA@ 004b0770     fltk:vsnprintf.obj
 0002:00023778       ??_C@_06OJHGLDPL@?$CInull?$CJ?$AA@ 004b0778     fltk:vsnprintf.obj
 0002:00023780       ??_C@_05OMHELODH@Space?$AA@ 004b0780     fltk:fl_shortcut.obj
 0002:00023788       ??_C@_09LPBCIPOJ@Backspace?$AA@ 004b0788     fltk:fl_shortcut.obj
 0002:00023794       ??_C@_03IEAKBACE@Tab?$AA@  004b0794     fltk:fl_shortcut.obj
 0002:00023798       ??_C@_05MDNHABIA@Clear?$AA@ 004b0798     fltk:fl_shortcut.obj
 0002:000237a0       ??_C@_05IAOCCJNL@Enter?$AA@ 004b07a0     fltk:fl_shortcut.obj
 0002:000237a8       ??_C@_05PEDNBBBD@Pause?$AA@ 004b07a8     fltk:fl_shortcut.obj
 0002:000237b0       ??_C@_0M@HDMLOGMK@Scroll_Lock?$AA@ 004b07b0     fltk:fl_shortcut.obj
 0002:000237bc       ??_C@_06OIGFGPHJ@Escape?$AA@ 004b07bc     fltk:fl_shortcut.obj
 0002:000237c4       ??_C@_04GKJODLKO@Home?$AA@ 004b07c4     fltk:fl_shortcut.obj
 0002:000237cc       ??_C@_04KPCPLBPL@Left?$AA@ 004b07cc     fltk:fl_shortcut.obj
 0002:000237d4       ??_C@_02EFPGLDEA@Up?$AA@   004b07d4     fltk:fl_shortcut.obj
 0002:000237d8       ??_C@_05DADPALEM@Right?$AA@ 004b07d8     fltk:fl_shortcut.obj
 0002:000237e0       ??_C@_04FNCLCJMC@Down?$AA@ 004b07e0     fltk:fl_shortcut.obj
 0002:000237e8       ??_C@_07HADPNJIH@Page_Up?$AA@ 004b07e8     fltk:fl_shortcut.obj
 0002:000237f0       ??_C@_09HEPHNFME@Page_Down?$AA@ 004b07f0     fltk:fl_shortcut.obj
 0002:000237fc       ??_C@_03DBKJMAGF@End?$AA@  004b07fc     fltk:fl_shortcut.obj
 0002:00023800       ??_C@_05IOJFAHFF@Print?$AA@ 004b0800     fltk:fl_shortcut.obj
 0002:00023808       ??_C@_06CPFCODOD@Insert?$AA@ 004b0808     fltk:fl_shortcut.obj
 0002:00023810       ??_C@_04IFEHPILC@Menu?$AA@ 004b0810     fltk:fl_shortcut.obj
 0002:00023818       ??_C@_08MOHBKODP@Num_Lock?$AA@ 004b0818     fltk:fl_shortcut.obj
 0002:00023824       ??_C@_08LFFGLJE@KP_Enter?$AA@ 004b0824     fltk:fl_shortcut.obj
 0002:00023830       ??_C@_07BPNFFEAB@Shift_L?$AA@ 004b0830     fltk:fl_shortcut.obj
 0002:00023838       ??_C@_07MLJEGLNO@Shift_R?$AA@ 004b0838     fltk:fl_shortcut.obj
 0002:00023840       ??_C@_09CADAEOIH@Control_L?$AA@ 004b0840     fltk:fl_shortcut.obj
 0002:0002384c       ??_C@_09PEHBHBFI@Control_R?$AA@ 004b084c     fltk:fl_shortcut.obj
 0002:00023858       ??_C@_09JMDGMKMB@Caps_Lock?$AA@ 004b0858     fltk:fl_shortcut.obj
 0002:00023864       ??_C@_06KLJCBFDM@Meta_L?$AA@ 004b0864     fltk:fl_shortcut.obj
 0002:0002386c       ??_C@_06HPNDCKOD@Meta_R?$AA@ 004b086c     fltk:fl_shortcut.obj
 0002:00023874       ??_C@_05JIKEDJG@Alt_L?$AA@ 004b0874     fltk:fl_shortcut.obj
 0002:0002387c       ??_C@_05NNMLHMEJ@Alt_R?$AA@ 004b087c     fltk:fl_shortcut.obj
 0002:00023884       ??_C@_06JBKGCNBB@Delete?$AA@ 004b0884     fltk:fl_shortcut.obj
 0002:0002388c       ??_C@_05HHBBNEGG@Meta?$CL?$AA@ 004b088c     fltk:fl_shortcut.obj
 0002:00023894       ??_C@_04IDGAMEF@Alt?$CL?$AA@ 004b0894     fltk:fl_shortcut.obj
 0002:0002389c       ??_C@_06DLOONOJK@Shift?$CL?$AA@ 004b089c     fltk:fl_shortcut.obj
 0002:000238a4       ??_C@_05DNCIMHKL@Ctrl?$CL?$AA@ 004b08a4     fltk:fl_shortcut.obj
 0002:000238ac       ??_C@_03MDDBJAPE@KP_?$AA@  004b08ac     fltk:fl_shortcut.obj
 0002:000238b0       ??_C@_02PMLLLOMO@?$EA?$CB?$AA@ 004b08b0     fltk:fl_shortcut.obj
 0002:000238b8       ??_7Fl_Box@@6B@            004b08b8     fltk:Fl_Box.obj
 0002:000238e0       ??_7Fl_Return_Button@@6B@  004b08e0     fltk:Fl_Return_Button.obj
 0002:00023904       ??_C@_01IDAFKMJL@_?$AA@    004b0904     fltk:fl_draw.obj
 0002:0002390c       ??_7Fl_Slider@@6B@         004b090c     fltk:Fl_Slider.obj
 0002:0002393c       ??_7Fl_Fill_Slider@@6B@    004b093c     fltk:Fl_Slider.obj
 0002:0002396c       ??_7Fl_Hor_Slider@@6B@     004b096c     fltk:Fl_Slider.obj
 0002:0002399c       ??_7Fl_Hor_Fill_Slider@@6B@ 004b099c     fltk:Fl_Slider.obj
 0002:000239cc       ??_7Fl_Hor_Nice_Slider@@6B@ 004b09cc     fltk:Fl_Slider.obj
 0002:000239fc       ??_7Fl_Nice_Slider@@6B@    004b09fc     fltk:Fl_Slider.obj
 0002:00023a2c       ??_7Fl_Light_Button@@6B@   004b0a2c     fltk:Fl_Light_Button.obj
 0002:00023a54       ??_7Fl_Radio_Light_Button@@6B@ 004b0a54     fltk:Fl_Light_Button.obj
 0002:00023d0c       ??_C@_09EOPMPCPB@13?518?53?51?$AA@ 004b0d0c     fltk:fl_cursor.obj
 0002:00023d18       ??_C@_08BMGCAFP@?5?5c?5None?$AA@ 004b0d18     fltk:fl_cursor.obj
 0002:00023d24       ??_C@_0M@HJEMPMAP@?4?5c?5?$CDFFFFFF?$AA@ 004b0d24     fltk:fl_cursor.obj
 0002:00023d30       ??_C@_0M@BHAIPGPG@B?5c?5?$CD000000?$AA@ 004b0d30     fltk:fl_cursor.obj
 0002:00023d3c       ??_C@_0O@FDMBHJIK@?5?5?4?4?4?4?4?4?4?4?5?5?5?$AA@ 004b0d3c     fltk:fl_cursor.obj
 0002:00023d4c       ??_C@_0O@MMOHLHHP@?5?5?4BBBBBB?4?5?5?5?$AA@ 004b0d4c     fltk:fl_cursor.obj
 0002:00023d5c       ??_C@_0O@DIGCLJMM@?5?4B?4?4?4?4?4?4B?4?5?5?$AA@ 004b0d5c     fltk:fl_cursor.obj
 0002:00023d6c       ??_C@_0O@OKAAOEGJ@?4B?4?4?4?4B?4?4?4B?4?5?$AA@ 004b0d6c     fltk:fl_cursor.obj
 0002:00023d7c       ??_C@_0O@DFEOPLKD@?4B?4?4?4?4B?4?4?4BB?4?$AA@ 004b0d7c     fltk:fl_cursor.obj
 0002:00023d8c       ??_C@_0O@BOAMGJBC@?4B?4BBBB?4?4?4BB?4?$AA@ 004b0d8c     fltk:fl_cursor.obj
 0002:00023d9c       ??_C@_0O@GNEEFBJN@?4B?4?4?4?4?4?4?4?4B?4?5?$AA@ 004b0d9c     fltk:fl_cursor.obj
 0002:00023dac       ??_C@_09KLGIPPJC@16?527?59?51?$AA@ 004b0dac     fltk:fl_cursor.obj
 0002:00023db8       ??_C@_08OHPPFJCC@?5?7c?5None?$AA@ 004b0db8     fltk:fl_cursor.obj
 0002:00023dc4       ??_C@_0M@IEJNENFN@?4?7c?5?$CDFFFFFF?$AA@ 004b0dc4     fltk:fl_cursor.obj
 0002:00023dd0       ??_C@_0M@ICHKLMCP@?$CL?7c?5?$CDDBDBDB?$AA@ 004b0dd0     fltk:fl_cursor.obj
 0002:00023ddc       ??_C@_0M@JIKGFPFJ@?$EA?7c?5?$CD242424?$AA@ 004b0ddc     fltk:fl_cursor.obj
 0002:00023de8       ??_C@_0M@FJCOGHMD@?$CD?7c?5?$CD000000?$AA@ 004b0de8     fltk:fl_cursor.obj
 0002:00023df4       ??_C@_0M@KALFABEI@$?7c?5?$CD494949?$AA@ 004b0df4     fltk:fl_cursor.obj
 0002:00023e00       ??_C@_0M@GBLDLKOF@?$CF?7c?5?$CD6D6D6D?$AA@ 004b0e00     fltk:fl_cursor.obj
 0002:00023e0c       ??_C@_0M@IDCDAHPM@?$CG?7c?5?$CD929292?$AA@ 004b0e0c     fltk:fl_cursor.obj
 0002:00023e18       ??_C@_0M@MOHPIIIG@?$CK?7c?5?$CDB6B6B6?$AA@ 004b0e18     fltk:fl_cursor.obj
 0002:00023e24       ??_C@_0BB@FHAPCDKO@?5?5?5?5?5?5?5?5?5?5?5?5?5?5?5?5?$AA@ 004b0e24     fltk:fl_cursor.obj
 0002:00023e38       ??_C@_0BB@BGCLNLDI@?4?5?5?5?5?5?5?5?5?5?5?5?5?5?5?5?$AA@ 004b0e38     fltk:fl_cursor.obj
 0002:00023e4c       ??_C@_0BB@EMPAPAIF@?4?$CL?5?5?5?5?5?5?5?5?5?5?5?5?5?5?$AA@ 004b0e4c     fltk:fl_cursor.obj
 0002:00023e60       ??_C@_0BB@PBJOPAEB@?4?$EA?$CL?5?5?5?5?5?5?5?5?5?5?5?5?5?$AA@ 004b0e60     fltk:fl_cursor.obj
 0002:00023e74       ??_C@_0BB@DCOFBBME@?4?$CD?$EA?$CL?5?5?5?5?5?5?5?5?5?5?5?5?$AA@ 004b0e74     fltk:fl_cursor.obj
 0002:00023e88       ??_C@_0BB@FIKFIGCK@?4?$CD?$CD?$EA?4?5?5?5?5?5?5?5?5?5?5?5?$AA@ 004b0e88     fltk:fl_cursor.obj
 0002:00023e9c       ??_C@_0BB@LFDNCJCI@?4?$CD?$CD?$CD?$EA?4?5?5?5?5?5?5?5?5?5?5?$AA@ 004b0e9c     fltk:fl_cursor.obj
 0002:00023eb0       ??_C@_0BB@JFBBALKI@?4?$CD?$CD?$CD?$CD?$EA?4?5?5?5?5?5?5?5?5?5?$AA@ 004b0eb0     fltk:fl_cursor.obj
 0002:00023ec4       ??_C@_0BB@DGLLNNGH@?4?$CD?$CD?$CD?$CD?$CD$?4?5?5?5?5?5?5?5?5?$AA@ 004b0ec4     fltk:fl_cursor.obj
 0002:00023ed8       ??_C@_0BB@MAGAIDLP@?4?$CD?$CD?$CD?$CD?$CD?$CD$?4?5?5?5?5?5?5?5?$AA@ 004b0ed8     fltk:fl_cursor.obj
 0002:00023eec       ??_C@_0BB@KCBIAAGK@?4?$CD?$CD?$CD?$CD?$CD?$CD?$CD$?4?5?5?5?5?5?5?$AA@ 004b0eec     fltk:fl_cursor.obj
 0002:00023f00       ??_C@_0BB@FNCEPIID@?4?$CD?$CD?$CD?$CD?$CD?$EA?$EA?$EA?$CF?4?5?5?5?5?5?$AA@ 004b0f00     fltk:fl_cursor.obj
 0002:00023f14       ??_C@_0BB@BCDOPKCM@?4?$CD?$CD?$CD?$CD?$CD?$CL?4?4?4?4?4?5?5?5?5?$AA@ 004b0f14     fltk:fl_cursor.obj
 0002:00023f28       ??_C@_0BB@DCBNHHLK@?4?$CD?$CD$?$CF?$CD?$CF?4?5?5?5?5?5?5?5?5?$AA@ 004b0f28     fltk:fl_cursor.obj
 0002:00023f3c       ??_C@_0BB@CLJLGJCD@?4?$CD$?4?4?$EA?$CD?4?5?5?5?5?5?5?5?5?$AA@ 004b0f3c     fltk:fl_cursor.obj
 0002:00023f50       ??_C@_0BB@INLLFAEN@?4$?4?5?4?$CG?$CD?$CF?4?5?5?5?5?5?5?5?$AA@ 004b0f50     fltk:fl_cursor.obj
 0002:00023f64       ??_C@_0BB@FAFFCLGC@?4?4?5?5?5?4?$CD?$CD?4?5?4?4?4?4?5?5?$AA@ 004b0f64     fltk:fl_cursor.obj
 0002:00023f78       ??_C@_0BB@EHIMCOLF@?4?5?5?5?5?4?$CG?$CD?4?$CL?$CF$?$CF?$CG?4?5?$AA@ 004b0f78     fltk:fl_cursor.obj
 0002:00023f8c       ??_C@_0BB@LGPDNANN@?5?5?5?5?5?5?4?4?4?$CK?$CD?$EA?$CD?$CD?$CF?4?$AA@ 004b0f8c     fltk:fl_cursor.obj
 0002:00023fa0       ??_C@_0BB@LMDJFLJD@?5?5?5?5?5?5?5?5?5?$CL?$CL?4?$CK?$CD?$EA?4?$AA@ 004b0fa0     fltk:fl_cursor.obj
 0002:00023fb4       ??_C@_0BB@CONKOHBC@?5?5?5?5?5?5?5?5?5?5?5?4?$CF?$CD$?4?$AA@ 004b0fb4     fltk:fl_cursor.obj
 0002:00023fc8       ??_C@_0BB@CBOFGJJJ@?5?5?5?5?5?5?5?5?5?5?4?$CF?$CD?$EA?4?5?$AA@ 004b0fc8     fltk:fl_cursor.obj
 0002:00023fdc       ??_C@_0BB@BBAFNHIM@?5?5?5?5?5?5?5?5?5?5?4?$CD?$CD?$CL?5?5?$AA@ 004b0fdc     fltk:fl_cursor.obj
 0002:00023ff0       ??_C@_0BB@PKPIOOBC@?5?5?5?5?5?5?5?5?5?5?4?$CL?$CL?4?5?5?$AA@ 004b0ff0     fltk:fl_cursor.obj
 0002:00024004       ??_C@_0BB@HEODAIBJ@?5?5?5?5?5?5?5?5?5?5?$CL?$CD?$CD?4?5?5?$AA@ 004b1004     fltk:fl_cursor.obj
 0002:00024018       ??_C@_0BB@GCNFPANB@?5?5?5?5?5?5?5?5?5?5?4?4?4?4?5?5?$AA@ 004b1018     fltk:fl_cursor.obj
 0002:0002402c       ??_C@_0L@NFEJLHMK@15?515?528?51?$AA@ 004b102c     fltk:fl_cursor.obj
 0002:00024038       ??_C@_0M@FPCCBBDN@?$CL?7c?5?$CD000000?$AA@ 004b1038     fltk:fl_cursor.obj
 0002:00024044       ??_C@_0M@NBECDGGH@?$EA?7c?5?$CD767676?$AA@ 004b1044     fltk:fl_cursor.obj
 0002:00024050       ??_C@_0M@KKOAMKD@?$CD?7c?5?$CD4E4E4E?$AA@ 004b1050     fltk:fl_cursor.obj
 0002:0002405c       ??_C@_0M@NNJINEGE@$?7c?5?$CD0C0C0C?$AA@ 004b105c     fltk:fl_cursor.obj
 0002:00024068       ??_C@_0M@DLBAENCH@?$CF?7c?5?$CD494949?$AA@ 004b1068     fltk:fl_cursor.obj
 0002:00024074       ??_C@_0M@MBINIHEJ@?$CG?7c?5?$CD1B1B1B?$AA@ 004b1074     fltk:fl_cursor.obj
 0002:00024080       ??_C@_0M@PNPMLDLD@?$CK?7c?5?$CD4D4D4D?$AA@ 004b1080     fltk:fl_cursor.obj
 0002:0002408c       ??_C@_0M@GNGBJMHC@?$DN?7c?5?$CD363636?$AA@ 004b108c     fltk:fl_cursor.obj
 0002:00024098       ??_C@_0M@CIJNBILA@?9?7c?5?$CD646464?$AA@ 004b1098     fltk:fl_cursor.obj
 0002:000240a4       ??_C@_0M@KFNCBLHM@?$DL?7c?5?$CD515151?$AA@ 004b10a4     fltk:fl_cursor.obj
 0002:000240b0       ??_C@_0M@FFNNANLD@?$DO?7c?5?$CD242424?$AA@ 004b10b0     fltk:fl_cursor.obj
 0002:000240bc       ??_C@_0M@FGJHLKAE@?0?7c?5?$CD585858?$AA@ 004b10bc     fltk:fl_cursor.obj
 0002:000240c8       ??_C@_0M@LGKECOMF@?8?7c?5?$CD545454?$AA@ 004b10c8     fltk:fl_cursor.obj
 0002:000240d4       ??_C@_0M@HONNGCKA@?$CJ?7c?5?$CD6A6A6A?$AA@ 004b10d4     fltk:fl_cursor.obj
 0002:000240e0       ??_C@_0M@EMBIKIEM@?$CB?7c?5?$CD797979?$AA@ 004b10e0     fltk:fl_cursor.obj
 0002:000240ec       ??_C@_0M@INKDAGGL@?$HO?7c?5?$CD444444?$AA@ 004b10ec     fltk:fl_cursor.obj
 0002:000240f8       ??_C@_0M@NIMEJMHJ@?$HL?7c?5?$CD2E2E2E?$AA@ 004b10f8     fltk:fl_cursor.obj
 0002:00024104       ??_C@_0M@HKIODEJE@?$FN?7c?5?$CD3B3B3B?$AA@ 004b1104     fltk:fl_cursor.obj
 0002:00024110       ??_C@_0M@MGBCLGPD@?$FO?7c?5?$CD0A0A0A?$AA@ 004b1110     fltk:fl_cursor.obj
 0002:0002411c       ??_C@_0M@DKOBFABI@?1?7c?5?$CDF7F7F7?$AA@ 004b111c     fltk:fl_cursor.obj
 0002:00024128       ??_C@_0M@DPGKAEPK@?$CI?7c?5?$CD595959?$AA@ 004b1128     fltk:fl_cursor.obj
 0002:00024134       ??_C@_0M@KKGMIDH@_?7c?5?$CD6B6B6B?$AA@ 004b1134     fltk:fl_cursor.obj
 0002:00024140       ??_C@_0M@CJKBJACE@?3?7c?5?$CD080808?$AA@ 004b1140     fltk:fl_cursor.obj
 0002:0002414c       ??_C@_0M@NLLCLALN@?$DM?7c?5?$CDFEFEFE?$AA@ 004b114c     fltk:fl_cursor.obj
 0002:00024158       ??_C@_0M@CCBACOHN@?$FL?7c?5?$CDFCFCFC?$AA@ 004b1158     fltk:fl_cursor.obj
 0002:00024164       ??_C@_0M@BKIPMOKD@?$HN?7c?5?$CDFDFDFD?$AA@ 004b1164     fltk:fl_cursor.obj
 0002:00024170       ??_C@_0BA@IIINGGAE@?4?4?4?4?4?4?4?4?4?4?5?5?5?5?5?$AA@ 004b1170     fltk:fl_cursor.obj
 0002:00024180       ??_C@_0BA@OJMFDEIM@?4?$CL?$CL?$CL?$CL?$CL?$CL?$EA?4?5?5?5?5?5?5?$AA@ 004b1180     fltk:fl_cursor.obj
 0002:00024190       ??_C@_0BA@HLDJDMHM@?4?$CL?$CL?$CL?$CL?$CL?$CD?4?5?5?5?5?5?5?5?$AA@ 004b1190     fltk:fl_cursor.obj
 0002:000241a0       ??_C@_0BA@NFPNJIJI@?4?$CL?$CL?$CL?$CL$?4?5?5?5?5?5?5?5?5?$AA@ 004b11a0     fltk:fl_cursor.obj
 0002:000241b0       ??_C@_0BA@HGCHEMDL@?4?$CL?$CL?$CL?$CL?$CL?$CF?4?5?5?5?5?5?5?5?$AA@ 004b11b0     fltk:fl_cursor.obj
 0002:000241c0       ??_C@_0BA@PJCHHCEG@?4?$CL?$CL?$CG?$CL?$CL?$CL?$CK?4?5?5?5?5?5?4?$AA@ 004b11c0     fltk:fl_cursor.obj
 0002:000241d0       ??_C@_0BA@KLOIAOEK@?4?$CL?$DN?4?9?$CL?$CL?$CL?$DL?4?5?5?5?4?4?$AA@ 004b11d0     fltk:fl_cursor.obj
 0002:000241e0       ??_C@_0BA@FECEIJME@?4?$DO?4?5?4?0?$CL?$CL?$CL?8?4?5?4?$CJ?4?$AA@ 004b11e0     fltk:fl_cursor.obj
 0002:000241f0       ??_C@_0BA@BHOINIAG@?4?4?5?5?5?4?$CD?$CL?$CL?$CL?0?4?$CB?$CL?4?$AA@ 004b11f0     fltk:fl_cursor.obj
 0002:00024200       ??_C@_0BA@OHJNPEJL@?4?5?5?5?5?5?4?$HO?$CL?$CL?$CL?$HL?$CL?$CL?4?$AA@ 004b1200     fltk:fl_cursor.obj
 0002:00024210       ??_C@_0BA@PJKICECJ@?5?5?5?5?5?5?5?4?$FN?$CL?$CL?$CL?$CL?$CL?4?$AA@ 004b1210     fltk:fl_cursor.obj
 0002:00024220       ??_C@_0BA@KNOFJGEE@?5?5?5?5?5?5?5?5?4?$FO?$CL?$CL?$CL?$CL?4?$AA@ 004b1220     fltk:fl_cursor.obj
 0002:00024230       ??_C@_0BA@KGDKPJO@?5?5?5?5?5?5?5?1?$CI?$CL?$CL?$CL?$CL?$CL?4?$AA@ 004b1230     fltk:fl_cursor.obj
 0002:00024240       ??_C@_0BA@JELHAAFL@?5?5?5?5?5?5?1_?3?3?3?3?3?3?4?$AA@ 004b1240     fltk:fl_cursor.obj
 0002:00024250       ??_C@_0BA@JPHGHICJ@?5?5?5?5?5?$DM?$FL?$FL?$FL?$FL?$FL?$FL?$FL?$FL?$HN?$AA@ 004b1250     fltk:fl_cursor.obj
 0002:00024260       ??_C@_0M@IIICPOGB@?$CL?7c?5?$CD767676?$AA@ 004b1260     fltk:fl_cursor.obj
 0002:0002426c       ??_C@_0M@GOCNJDL@?$EA?7c?5?$CD000000?$AA@ 004b126c     fltk:fl_cursor.obj
 0002:00024278       ??_C@_0M@PIPGPODC@?$CG?7c?5?$CD4D4D4D?$AA@ 004b1278     fltk:fl_cursor.obj
 0002:00024284       ??_C@_0M@MEIHMKMI@?$CK?7c?5?$CD1B1B1B?$AA@ 004b1284     fltk:fl_cursor.obj
 0002:00024290       ??_C@_0M@EKOPLOJM@?$DN?7c?5?$CD515151?$AA@ 004b1290     fltk:fl_cursor.obj
 0002:0002429c       ??_C@_0M@ICFMDJJC@?$DL?7c?5?$CD363636?$AA@ 004b129c     fltk:fl_cursor.obj
 0002:000242a8       ??_C@_0M@GFNGGND@?$DO?7c?5?$CD6A6A6A?$AA@ 004b12a8     fltk:fl_cursor.obj
 0002:000242b4       ??_C@_0M@MHDGIKML@?0?7c?5?$CD545454?$AA@ 004b12b4     fltk:fl_cursor.obj
 0002:000242c0       ??_C@_0M@CHAFBOAK@?8?7c?5?$CD585858?$AA@ 004b12c0     fltk:fl_cursor.obj
 0002:000242cc       ??_C@_0M@CNFNAJMA@?$CJ?7c?5?$CD242424?$AA@ 004b12cc     fltk:fl_cursor.obj
 0002:000242d8       ??_C@_0M@EAGHOLGJ@?$HO?7c?5?$CD2E2E2E?$AA@ 004b12d8     fltk:fl_cursor.obj
 0002:000242e4       ??_C@_0M@BFAAHBHL@?$HL?7c?5?$CD444444?$AA@ 004b12e4     fltk:fl_cursor.obj
 0002:000242f0       ??_C@_0M@ELPCONHF@?1?7c?5?$CD595959?$AA@ 004b12f0     fltk:fl_cursor.obj
 0002:000242fc       ??_C@_0M@EOHJLJJH@?$CI?7c?5?$CDF7F7F7?$AA@ 004b12fc     fltk:fl_cursor.obj
 0002:00024308       ??_C@_0M@JJFAILDM@_?7c?5?$CD080808?$AA@ 004b1308     fltk:fl_cursor.obj
 0002:00024314       ??_C@_0M@LKFHNDCP@?3?7c?5?$CD6B6B6B?$AA@ 004b1314     fltk:fl_cursor.obj
 0002:00024320       ??_C@_0M@LBEJDFDM@?$DM?7c?5?$CDFDFDFD?$AA@ 004b1320     fltk:fl_cursor.obj
 0002:0002432c       ??_C@_0M@HAHEELCC@?$HN?7c?5?$CDFEFEFE?$AA@ 004b132c     fltk:fl_cursor.obj
 0002:00024338       ??_C@_0BA@GMMIKKFC@?5?5?5?5?5?4?4?4?4?4?4?4?4?4?4?$AA@ 004b1338     fltk:fl_cursor.obj
 0002:00024348       ??_C@_0BA@OHINIADG@?5?5?5?5?5?5?4?$CL?$EA?$EA?$EA?$EA?$EA?$EA?4?$AA@ 004b1348     fltk:fl_cursor.obj
 0002:00024358       ??_C@_0BA@ONLHFCJC@?5?5?5?5?5?5?5?4?$CD?$EA?$EA?$EA?$EA?$EA?4?$AA@ 004b1358     fltk:fl_cursor.obj
 0002:00024368       ??_C@_0BA@MBIJPECH@?5?5?5?5?5?5?5?5?4$?$EA?$EA?$EA?$EA?4?$AA@ 004b1368     fltk:fl_cursor.obj
 0002:00024378       ??_C@_0BA@CLNIFLBF@?5?5?5?5?5?5?5?4?$CF?$EA?$EA?$EA?$EA?$EA?4?$AA@ 004b1378     fltk:fl_cursor.obj
 0002:00024388       ??_C@_0BA@OFMCPOCG@?4?5?5?5?5?5?4?$CG?$EA?$EA?$EA?$CK?$EA?$EA?4?$AA@ 004b1388     fltk:fl_cursor.obj
 0002:00024398       ??_C@_0BA@EEPDJCEJ@?4?4?5?5?5?4?$DN?$EA?$EA?$EA?9?4?$DL?$EA?4?$AA@ 004b1398     fltk:fl_cursor.obj
 0002:000243a8       ??_C@_0BA@COJENFNH@?4?$DO?4?5?4?0?$EA?$EA?$EA?8?4?5?4?$CJ?4?$AA@ 004b13a8     fltk:fl_cursor.obj
 0002:000243b8       ??_C@_0BA@LKMIHDGL@?4?$EA?$CB?4?8?$EA?$EA?$EA?$CD?4?5?5?5?4?4?$AA@ 004b13b8     fltk:fl_cursor.obj
 0002:000243c8       ??_C@_0BA@JDJKLCEL@?4?$EA?$EA?$HO?$EA?$EA?$EA?$HL?4?5?5?5?5?5?4?$AA@ 004b13c8     fltk:fl_cursor.obj
 0002:000243d8       ??_C@_0BA@PJJGCAJ@?4?$EA?$EA?$EA?$EA?$EA?$FN?4?5?5?5?5?5?5?5?$AA@ 004b13d8     fltk:fl_cursor.obj
 0002:000243e8       ??_C@_0BA@CGKFGIMN@?4?$EA?$EA?$EA?$EA?$FO?4?5?5?5?5?5?5?5?5?$AA@ 004b13e8     fltk:fl_cursor.obj
 0002:000243f8       ??_C@_0BA@IODPEOCG@?4?$EA?$EA?$EA?$EA?$EA?1?$CI?5?5?5?5?5?5?5?$AA@ 004b13f8     fltk:fl_cursor.obj
 0002:00024408       ??_C@_0BA@NJJMFPNL@?4______?3?$CI?5?5?5?5?5?5?$AA@ 004b1408     fltk:fl_cursor.obj
 0002:00024418       ??_C@_0BA@HKIDKHKM@?$DM?$FL?$FL?$FL?$FL?$FL?$FL?$FL?$FL?$HN?5?5?5?5?5?$AA@ 004b1418     fltk:fl_cursor.obj
 0002:00024428       ??_C@_09CLHBFACO@15?515?51?51?$AA@ 004b1428     fltk:fl_cursor.obj
 0002:00024434       ??_C@_0BA@FMPIKLLM@?5?5?5?5?5?5?5?5?5?5?5?5?5?5?5?$AA@ 004b1434     fltk:fl_cursor.obj
 0002:00024448       ??_7Fl_Choice@@6B@         004b1448     fltk:Fl_Choice.obj
 0002:00024470       ??_7Fl_Tile@@6B@           004b1470     fltk:Fl_Tile.obj
 0002:00024498       ??_7Fl_Browser_@@6B@       004b1498     fltk:Fl_Browser_.obj
 0002:00024500       ??_7Fl_Browser@@6B@        004b1500     fltk:Fl_File_Browser.obj
 0002:00024568       ??_7Fl_File_Browser@@6B@   004b1568     fltk:Fl_File_Browser.obj
 0002:000245cc       ??_C@_03OBJFJEBA@any?$AA@  004b15cc     fltk:Fl_File_Browser.obj
 0002:000245d0       ??_C@_04CCIPKIFA@?$CFc?3?1?$AA@ 004b15d0     fltk:Fl_File_Browser.obj
 0002:000245d8       ??_C@_02CAHBHFGK@?4?1?$AA@ 004b15d8     fltk:Fl_File_Browser.obj
 0002:000245e0       __real@3fe3333333333333    004b15e0     fltk:Fl_File_Browser.obj
 0002:000245e8       __real@4020000000000000    004b15e8     fltk:Fl_File_Browser.obj
 0002:000245f4       ??_7Fl_File_Input@@6B@     004b15f4     fltk:Fl_File_Input.obj
 0002:00024620       ??_7Fl_Hold_Browser@@6B@   004b1620     fltk:Fl_Browser.obj
 0002:00024688       ??_7Fl_Multi_Browser@@6B@  004b1688     fltk:Fl_Browser.obj
 0002:000246f0       ??_7Fl_Select_Browser@@6B@ 004b16f0     fltk:Fl_Browser.obj
 0002:00024754       ??_C@_02DLFOHOMG@?3?1?$AA@ 004b1754     fltk:filename_isdir.obj
 0002:0002475c       ??_7Fl_Shared_Image@@6B@   004b175c     fltk:Fl_Shared_Image.obj
 0002:00024780       ??_C@_0HN@NHGDBGLA@Displayed?5text?5contains?5the?5UTF?9@ 004b1780     fltk:Fl_Text_Buffer.obj
 0002:00024800       ??_C@_0EJ@KDPBILD@Fl_Text_Buffer?3?3remove_modify_ca@ 004b1800     fltk:Fl_Text_Buffer.obj
 0002:00024850       ??_C@_0FA@OFJJLHP@Fl_Text_Buffer?3?3remove_predelete@ 004b1850     fltk:Fl_Text_Buffer.obj
 0002:000248a4       ??_7Fl_Scrollbar@@6B@      004b18a4     fltk:Fl_Scrollbar.obj
 0002:000248d0       __real@3fa999999999999a    004b18d0     fltk:Fl_Scrollbar.obj
 0002:000248d8       ??_C@_08JKDDDAD@?$CFd?$CFd?$CFd?$CFd?$AA@ 004b18d8     fltk:fl_draw_pixmap.obj
 0002:000248e8       ??_7Fl_Menu_Window@@6B@    004b18e8     fltk:Fl_Menu_Window.obj
 0002:00024910       ??_C@_08DOANGMGK@KLDIIJLM?$AA@ 004b1910     fltk:fl_plastic.obj
 0002:0002491c       ??_C@_08OAHMLBJA@RQOQSUWQ?$AA@ 004b191c     fltk:fl_plastic.obj
 0002:00024928       ??_C@_04KEMAMPGP@IJLM?$AA@ 004b1928     fltk:fl_plastic.obj
 0002:00024930       ??_C@_0BA@EHOCDMBM@RVQNOPQRSTUVWVQ?$AA@ 004b1930     fltk:fl_plastic.obj
 0002:00024940       ??_C@_08MKBKCNAM@LLLLTTRR?$AA@ 004b1940     fltk:fl_plastic.obj
 0002:0002494c       ??_C@_09EHKPENEK@STUVWWWVT?$AA@ 004b194c     fltk:fl_plastic.obj
 0002:00024958       __real@4046800000000000    004b1958     fltk:fl_plastic.obj
 0002:00024960       __real@4060e00000000000    004b1960     fltk:fl_plastic.obj
 0002:00024968       __real@406c200000000000    004b1968     fltk:fl_plastic.obj
 0002:00024970       __real@4073b00000000000    004b1970     fltk:fl_plastic.obj
 0002:00024978       __real@4079500000000000    004b1978     fltk:fl_plastic.obj
 0002:00024980       __xmm@40568000000000004046800000000000 004b1980     fltk:fl_plastic.obj
 0002:00024990       __xmm@40568000000000004070e00000000000 004b1990     fltk:fl_plastic.obj
 0002:000249a0       __xmm@4060e000000000004046800000000000 004b19a0     fltk:fl_plastic.obj
 0002:000249b0       __xmm@4060e000000000004056800000000000 004b19b0     fltk:fl_plastic.obj
 0002:000249c0       __xmm@40668000000000004060e00000000000 004b19c0     fltk:fl_plastic.obj
 0002:000249d0       __xmm@406c2000000000004060e00000000000 004b19d0     fltk:fl_plastic.obj
 0002:000249e0       __xmm@406c2000000000004066800000000000 004b19e0     fltk:fl_plastic.obj
 0002:000249f0       __xmm@4070e000000000004056800000000000 004b19f0     fltk:fl_plastic.obj
 0002:00024a00       __xmm@4070e00000000000406c200000000000 004b1a00     fltk:fl_plastic.obj
 0002:00024a10       __xmm@4073b00000000000406c200000000000 004b1a10     fltk:fl_plastic.obj
 0002:00024a20       __xmm@4073b000000000004070e00000000000 004b1a20     fltk:fl_plastic.obj
 0002:00024a30       __xmm@40768000000000004066800000000000 004b1a30     fltk:fl_plastic.obj
 0002:00024a40       __xmm@40768000000000004073b00000000000 004b1a40     fltk:fl_plastic.obj
 0002:00024a50       __xmm@40795000000000004073b00000000000 004b1a50     fltk:fl_plastic.obj
 0002:00024a60       __real@3feff7ced916872b    004b1a60     fltk:fl_gleam.obj
 0002:00024a6c       ??_7Fl_Tiled_Image@@6B@    004b1a6c     fltk:Fl_Tiled_Image.obj
 0002:00026784       ??_C@_02HBOOOICD@?9?$DO?$AA@ 004b3784     fltk:fl_symbols.obj
 0002:00026788       ??_C@_01PPODPGHN@?$DO?$AA@ 004b3788     fltk:fl_symbols.obj
 0002:0002678c       ??_C@_02GPIOPFAK@?$DO?$DO?$AA@ 004b378c     fltk:fl_symbols.obj
 0002:00026790       ??_C@_02KNMBNIIN@?$DO?$HM?$AA@ 004b3790     fltk:fl_symbols.obj
 0002:00026794       ??_C@_03KBLDENDJ@?$DO?$FL?$FN?$AA@ 004b3794     fltk:fl_symbols.obj
 0002:00026798       ??_C@_02BMJAKMKE@?$HM?$DO?$AA@ 004b3798     fltk:fl_symbols.obj
 0002:0002679c       ??_C@_02NOFGAPG@?$DM?9?$AA@ 004b379c     fltk:fl_symbols.obj
 0002:000267a0       ??_C@_01MNNFJEPP@?$DM?$AA@ 004b37a0     fltk:fl_symbols.obj
 0002:000267a4       ??_C@_02FODMEDOG@?$DM?$DM?$AA@ 004b37a4     fltk:fl_symbols.obj
 0002:000267a8       ??_C@_02COKGMOCG@?$HM?$DM?$AA@ 004b37a8     fltk:fl_symbols.obj
 0002:000267ac       ??_C@_03NFCAGMFM@?$FL?$FN?$DM?$AA@ 004b37ac     fltk:fl_symbols.obj
 0002:000267b0       ??_C@_02KOEFAMOD@?$DM?$HM?$AA@ 004b37b0     fltk:fl_symbols.obj
 0002:000267b4       ??_C@_03BFBGKJDE@?$DM?9?$DO?$AA@ 004b37b4     fltk:fl_symbols.obj
 0002:000267b8       ??_C@_03PNLDJJMO@?9?9?$DO?$AA@ 004b37b8     fltk:fl_symbols.obj
 0002:000267bc       ??_C@_01MIFGBAGJ@?$CL?$AA@ 004b37bc     fltk:fl_symbols.obj
 0002:000267c0       ??_C@_03CBJMKJGA@?9?$DO?$HM?$AA@ 004b37c0     fltk:fl_symbols.obj
 0002:000267c4       ??_C@_05OMEEDKDH@arrow?$AA@ 004b37c4     fltk:fl_symbols.obj
 0002:000267cc       ??_C@_0M@LPMLHKMH@returnarrow?$AA@ 004b37cc     fltk:fl_symbols.obj
 0002:000267d8       ??_C@_06EPAGOIP@circle?$AA@ 004b37d8     fltk:fl_symbols.obj
 0002:000267e0       ??_C@_04HJPCFDOP@line?$AA@ 004b37e0     fltk:fl_symbols.obj
 0002:000267e8       ??_C@_04OHNHCABI@plus?$AA@ 004b37e8     fltk:fl_symbols.obj
 0002:000267f0       ??_C@_04EEIGNHLG@menu?$AA@ 004b37f0     fltk:fl_symbols.obj
 0002:000267f8       ??_C@_07MOKGGMEC@UpArrow?$AA@ 004b37f8     fltk:fl_symbols.obj
 0002:00026800       ??_C@_07EJFGLKGE@DnArrow?$AA@ 004b3800     fltk:fl_symbols.obj
 0002:00026808       ??_C@_02NONPIBCD@?$HM?$HM?$AA@ 004b3808     fltk:fl_symbols.obj
 0002:0002680c       ??_C@_06GFPLNGOC@search?$AA@ 004b380c     fltk:fl_symbols.obj
 0002:00026814       ??_C@_07EJAINBEK@filenew?$AA@ 004b3814     fltk:fl_symbols.obj
 0002:0002681c       ??_C@_08CIDLBPHF@fileopen?$AA@ 004b381c     fltk:fl_symbols.obj
 0002:00026828       ??_C@_08JIBKJBOO@filesave?$AA@ 004b3828     fltk:fl_symbols.obj
 0002:00026834       ??_C@_0L@KPCGOII@filesaveas?$AA@ 004b3834     fltk:fl_symbols.obj
 0002:00026840       ??_C@_09KJICFOMI@fileprint?$AA@ 004b3840     fltk:fl_symbols.obj
 0002:0002684c       ??_C@_07HPCLKEG@refresh?$AA@ 004b384c     fltk:fl_symbols.obj
 0002:00026854       ??_C@_06DGFOANMH@reload?$AA@ 004b3854     fltk:fl_symbols.obj
 0002:0002685c       ??_C@_04HOKNPDPJ@undo?$AA@ 004b385c     fltk:fl_symbols.obj
 0002:00026864       ??_C@_04BLIMKIOI@redo?$AA@ 004b3864     fltk:fl_symbols.obj
 0002:00026870       __real@3f747ae147ae147b    004b3870     fltk:fl_symbols.obj
 0002:00026878       __real@3f8eb851eb851eb8    004b3878     fltk:fl_symbols.obj
 0002:00026880       __real@3fc999999999999a    004b3880     fltk:fl_symbols.obj
 0002:00026888       __real@3fd3333333333333    004b3888     fltk:fl_symbols.obj
 0002:00026890       __real@3fd999999999999a    004b3890     fltk:fl_symbols.obj
 0002:00026898       __real@3fe4cccccccccccd    004b3898     fltk:fl_symbols.obj
 0002:000268a0       __real@3fe6666666666666    004b38a0     fltk:fl_symbols.obj
 0002:000268a8       __real@3fe999999999999a    004b38a8     fltk:fl_symbols.obj
 0002:000268b0       __real@3feccccccccccccd    004b38b0     fltk:fl_symbols.obj
 0002:000268b8       __real@3fee666666666666    004b38b8     fltk:fl_symbols.obj
 0002:000268c0       __real@3ff6e147ae147ae1    004b38c0     fltk:fl_symbols.obj
 0002:000268c8       __real@4024000000000000    004b38c8     fltk:fl_symbols.obj
 0002:000268d0       __real@4061800000000000    004b38d0     fltk:fl_symbols.obj
 0002:000268d8       __real@bfb999999999999a    004b38d8     fltk:fl_symbols.obj
 0002:000268e0       __real@bfc999999999999a    004b38e0     fltk:fl_symbols.obj
 0002:000268e8       __real@bfd999999999999a    004b38e8     fltk:fl_symbols.obj
 0002:000268f0       __real@bfe3333333333333    004b38f0     fltk:fl_symbols.obj
 0002:000268f8       __real@bfe6666666666666    004b38f8     fltk:fl_symbols.obj
 0002:00026900       __real@bfe999999999999a    004b3900     fltk:fl_symbols.obj
 0002:00026908       __real@bfee666666666666    004b3908     fltk:fl_symbols.obj
 0002:00026910       __real@c060e00000000000    004b3910     fltk:fl_symbols.obj
 0002:00026918       __real@c066800000000000    004b3918     fltk:fl_symbols.obj
 0002:00026920       __xmm@3fb999999999999a3fe4cccccccccccd 004b3920     fltk:fl_symbols.obj
 0002:00026930       __xmm@3fb999999999999abff3333333333333 004b3930     fltk:fl_symbols.obj
 0002:00026940       __xmm@3fb999999999999abffccccccccccccd 004b3940     fltk:fl_symbols.obj
 0002:00026950       __xmm@3fc0a3d70a3d70a4bfd999999999999a 004b3950     fltk:fl_symbols.obj
 0002:00026960       __xmm@3fc33333333333333fc3333333333333 004b3960     fltk:fl_symbols.obj
 0002:00026970       __xmm@3fc33333333333333feccccccccccccd 004b3970     fltk:fl_symbols.obj
 0002:00026980       __xmm@3fc33333333333333ff4cccccccccccd 004b3980     fltk:fl_symbols.obj
 0002:00026990       __xmm@3fc3333333333333bfc3333333333333 004b3990     fltk:fl_symbols.obj
 0002:000269a0       __xmm@3fc3333333333333bfeccccccccccccd 004b39a0     fltk:fl_symbols.obj
 0002:000269b0       __xmm@3fc999999999999abfd999999999999a 004b39b0     fltk:fl_symbols.obj
 0002:000269c0       __xmm@3fc999999999999abff0000000000000 004b39c0     fltk:fl_symbols.obj
 0002:000269d0       __xmm@3fd3333333333333bfd999999999999a 004b39d0     fltk:fl_symbols.obj
 0002:000269e0       __xmm@3fd3333333333333bfe999999999999a 004b39e0     fltk:fl_symbols.obj
 0002:000269f0       __xmm@3fd999999999999a3fc3333333333333 004b39f0     fltk:fl_symbols.obj
 0002:00026a00       __xmm@3fd999999999999a3fd6666666666666 004b3a00     fltk:fl_symbols.obj
 0002:00026a10       __xmm@3fd999999999999abfc0a3d70a3d70a4 004b3a10     fltk:fl_symbols.obj
 0002:00026a20       __xmm@3fd999999999999abfc3333333333333 004b3a20     fltk:fl_symbols.obj
 0002:00026a30       __xmm@3fd999999999999abfd6666666666666 004b3a30     fltk:fl_symbols.obj
 0002:00026a40       __xmm@3fd999999999999abfe999999999999a 004b3a40     fltk:fl_symbols.obj
 0002:00026a50       __xmm@3fe00000000000003fd999999999999a 004b3a50     fltk:fl_symbols.obj
 0002:00026a60       __xmm@3fe00000000000003fe3333333333333 004b3a60     fltk:fl_symbols.obj
 0002:00026a70       __xmm@3fe00000000000003ff199999999999a 004b3a70     fltk:fl_symbols.obj
 0002:00026a80       __xmm@3fe00000000000003ff4cccccccccccd 004b3a80     fltk:fl_symbols.obj
 0002:00026a90       __xmm@3fe00000000000003ffb333333333333 004b3a90     fltk:fl_symbols.obj
 0002:00026aa0       __xmm@3fe00000000000004000000000000000 004b3aa0     fltk:fl_symbols.obj
 0002:00026ab0       __xmm@3fe0000000000000bff0000000000000 004b3ab0     fltk:fl_symbols.obj
 0002:00026ac0       __xmm@3fe0000000000000bffccccccccccccd 004b3ac0     fltk:fl_symbols.obj
 0002:00026ad0       __xmm@3fe0000000000000c000000000000000 004b3ad0     fltk:fl_symbols.obj
 0002:00026ae0       __xmm@3fe33333333333333fe3333333333333 004b3ae0     fltk:fl_symbols.obj
 0002:00026af0       __xmm@3fe3333333333333bfb999999999999a 004b3af0     fltk:fl_symbols.obj
 0002:00026b00       __xmm@3fe3333333333333bfc999999999999a 004b3b00     fltk:fl_symbols.obj
 0002:00026b10       __xmm@3fe3333333333333bfd999999999999a 004b3b10     fltk:fl_symbols.obj
 0002:00026b20       __xmm@3fe3333333333333bfe3333333333333 004b3b20     fltk:fl_symbols.obj
 0002:00026b30       __xmm@3fe66666666666663fe3333333333333 004b3b30     fltk:fl_symbols.obj
 0002:00026b40       __xmm@3fe6666666666666bff0000000000000 004b3b40     fltk:fl_symbols.obj
 0002:00026b50       __xmm@3fe75c28f5c28f5cbff0000000000000 004b3b50     fltk:fl_symbols.obj
 0002:00026b60       __xmm@3fe999999999999a3fb999999999999a 004b3b60     fltk:fl_symbols.obj
 0002:00026b70       __xmm@3fe999999999999a3fc3333333333333 004b3b70     fltk:fl_symbols.obj
 0002:00026b80       __xmm@3fe999999999999a3fc999999999999a 004b3b80     fltk:fl_symbols.obj
 0002:00026b90       __xmm@3fe999999999999a3fe3333333333333 004b3b90     fltk:fl_symbols.obj
 0002:00026ba0       __xmm@3fe999999999999a3feccccccccccccd 004b3ba0     fltk:fl_symbols.obj
 0002:00026bb0       __xmm@3fe999999999999abfb999999999999a 004b3bb0     fltk:fl_symbols.obj
 0002:00026bc0       __xmm@3fe999999999999abfc3333333333333 004b3bc0     fltk:fl_symbols.obj
 0002:00026bd0       __xmm@3fe999999999999abfd3333333333333 004b3bd0     fltk:fl_symbols.obj
 0002:00026be0       __xmm@3fe999999999999abfe0000000000000 004b3be0     fltk:fl_symbols.obj
 0002:00026bf0       __xmm@3fe999999999999abfe3333333333333 004b3bf0     fltk:fl_symbols.obj
 0002:00026c00       __xmm@3fe999999999999abfe6666666666666 004b3c00     fltk:fl_symbols.obj
 0002:00026c10       __xmm@3fe999999999999abfe999999999999a 004b3c10     fltk:fl_symbols.obj
 0002:00026c20       __xmm@3feb333333333333bfe4cccccccccccd 004b3c20     fltk:fl_symbols.obj
 0002:00026c30       __xmm@3feccccccccccccd3fc3333333333333 004b3c30     fltk:fl_symbols.obj
 0002:00026c40       __xmm@3feccccccccccccd3ff0000000000000 004b3c40     fltk:fl_symbols.obj
 0002:00026c50       __xmm@3feccccccccccccdbfc3333333333333 004b3c50     fltk:fl_symbols.obj
 0002:00026c60       __xmm@3feccccccccccccdbff0000000000000 004b3c60     fltk:fl_symbols.obj
 0002:00026c70       __xmm@3ff00000000000003fe3333333333333 004b3c70     fltk:fl_symbols.obj
 0002:00026c80       __xmm@3ff00000000000003fe6666666666666 004b3c80     fltk:fl_symbols.obj
 0002:00026c90       __xmm@3ff00000000000003feccccccccccccd 004b3c90     fltk:fl_symbols.obj
 0002:00026ca0       __xmm@3ff0000000000000bfe3333333333333 004b3ca0     fltk:fl_symbols.obj
 0002:00026cb0       __xmm@3ff0000000000000bfe6666666666666 004b3cb0     fltk:fl_symbols.obj
 0002:00026cc0       __xmm@3ff0000000000000bfe75c28f5c28f5c 004b3cc0     fltk:fl_symbols.obj
 0002:00026cd0       __xmm@3ff0000000000000bfeccccccccccccd 004b3cd0     fltk:fl_symbols.obj
 0002:00026ce0       __xmm@3ff0000000000000bff0000000000000 004b3ce0     fltk:fl_symbols.obj
 0002:00026cf0       __xmm@bfb999999999999a3fe4cccccccccccd 004b3cf0     fltk:fl_symbols.obj
 0002:00026d00       __xmm@bfb999999999999abff3333333333333 004b3d00     fltk:fl_symbols.obj
 0002:00026d10       __xmm@bfb999999999999abffccccccccccccd 004b3d10     fltk:fl_symbols.obj
 0002:00026d20       __xmm@bfc33333333333333fc3333333333333 004b3d20     fltk:fl_symbols.obj
 0002:00026d30       __xmm@bfc33333333333333feccccccccccccd 004b3d30     fltk:fl_symbols.obj
 0002:00026d40       __xmm@bfc33333333333333ff4cccccccccccd 004b3d40     fltk:fl_symbols.obj
 0002:00026d50       __xmm@bfc3333333333333bfc3333333333333 004b3d50     fltk:fl_symbols.obj
 0002:00026d60       __xmm@bfc3333333333333bfeccccccccccccd 004b3d60     fltk:fl_symbols.obj
 0002:00026d70       __xmm@bfd00000000000003fe4cccccccccccd 004b3d70     fltk:fl_symbols.obj
 0002:00026d80       __xmm@bfd33333333333333fd999999999999a 004b3d80     fltk:fl_symbols.obj
 0002:00026d90       __xmm@bfd33333333333333fe3333333333333 004b3d90     fltk:fl_symbols.obj
 0002:00026da0       __xmm@bfd33333333333333ff0000000000000 004b3da0     fltk:fl_symbols.obj
 0002:00026db0       __xmm@bfd33333333333333ff199999999999a 004b3db0     fltk:fl_symbols.obj
 0002:00026dc0       __xmm@bfd3333333333333bfb999999999999a 004b3dc0     fltk:fl_symbols.obj
 0002:00026dd0       __xmm@bfd3333333333333bfe3333333333333 004b3dd0     fltk:fl_symbols.obj
 0002:00026de0       __xmm@bfd3333333333333bff0000000000000 004b3de0     fltk:fl_symbols.obj
 0002:00026df0       __xmm@bfd3333333333333bffccccccccccccd 004b3df0     fltk:fl_symbols.obj
 0002:00026e00       __xmm@bfd999999999999a3fb999999999999a 004b3e00     fltk:fl_symbols.obj
 0002:00026e10       __xmm@bfd999999999999a3fc3333333333333 004b3e10     fltk:fl_symbols.obj
 0002:00026e20       __xmm@bfd999999999999a3fd6666666666666 004b3e20     fltk:fl_symbols.obj
 0002:00026e30       __xmm@bfd999999999999a3fe6666666666666 004b3e30     fltk:fl_symbols.obj
 0002:00026e40       __xmm@bfd999999999999a3ff0000000000000 004b3e40     fltk:fl_symbols.obj
 0002:00026e50       __xmm@bfd999999999999abfc3333333333333 004b3e50     fltk:fl_symbols.obj
 0002:00026e60       __xmm@bfd999999999999abfd6666666666666 004b3e60     fltk:fl_symbols.obj
 0002:00026e70       __xmm@bfd999999999999abfe6666666666666 004b3e70     fltk:fl_symbols.obj
 0002:00026e80       __xmm@bfd999999999999abfe999999999999a 004b3e80     fltk:fl_symbols.obj
 0002:00026e90       __xmm@bfe00000000000003ff199999999999a 004b3e90     fltk:fl_symbols.obj
 0002:00026ea0       __xmm@bfe00000000000003ff4cccccccccccd 004b3ea0     fltk:fl_symbols.obj
 0002:00026eb0       __xmm@bfe00000000000003ffb333333333333 004b3eb0     fltk:fl_symbols.obj
 0002:00026ec0       __xmm@bfe00000000000004000000000000000 004b3ec0     fltk:fl_symbols.obj
 0002:00026ed0       __xmm@bfe0000000000000bfb999999999999a 004b3ed0     fltk:fl_symbols.obj
 0002:00026ee0       __xmm@bfe0000000000000bfd3333333333333 004b3ee0     fltk:fl_symbols.obj
 0002:00026ef0       __xmm@bfe0000000000000bfe999999999999a 004b3ef0     fltk:fl_symbols.obj
 0002:00026f00       __xmm@bfe0000000000000bff0000000000000 004b3f00     fltk:fl_symbols.obj
 0002:00026f10       __xmm@bfe0000000000000c000000000000000 004b3f10     fltk:fl_symbols.obj
 0002:00026f20       __xmm@bfe3333333333333bfe4cccccccccccd 004b3f20     fltk:fl_symbols.obj
 0002:00026f30       __xmm@bfe66666666666663fe3333333333333 004b3f30     fltk:fl_symbols.obj
 0002:00026f40       __xmm@bfe6666666666666bfd3333333333333 004b3f40     fltk:fl_symbols.obj
 0002:00026f50       __xmm@bfe6666666666666bff0000000000000 004b3f50     fltk:fl_symbols.obj
 0002:00026f60       __xmm@bfe999999999999a3fb999999999999a 004b3f60     fltk:fl_symbols.obj
 0002:00026f70       __xmm@bfe999999999999a3fc3333333333333 004b3f70     fltk:fl_symbols.obj
 0002:00026f80       __xmm@bfe999999999999a3fc999999999999a 004b3f80     fltk:fl_symbols.obj
 0002:00026f90       __xmm@bfe999999999999a3fe3333333333333 004b3f90     fltk:fl_symbols.obj
 0002:00026fa0       __xmm@bfe999999999999abfb999999999999a 004b3fa0     fltk:fl_symbols.obj
 0002:00026fb0       __xmm@bfe999999999999abfc3333333333333 004b3fb0     fltk:fl_symbols.obj
 0002:00026fc0       __xmm@bfe999999999999abfd3333333333333 004b3fc0     fltk:fl_symbols.obj
 0002:00026fd0       __xmm@bfe999999999999abfd999999999999a 004b3fd0     fltk:fl_symbols.obj
 0002:00026fe0       __xmm@bfe999999999999abfe0000000000000 004b3fe0     fltk:fl_symbols.obj
 0002:00026ff0       __xmm@bfe999999999999abfe3333333333333 004b3ff0     fltk:fl_symbols.obj
 0002:00027000       __xmm@bfe999999999999abfe6666666666666 004b4000     fltk:fl_symbols.obj
 0002:00027010       __xmm@bfe999999999999abfe999999999999a 004b4010     fltk:fl_symbols.obj
 0002:00027020       __xmm@bfe999999999999abfeccccccccccccd 004b4020     fltk:fl_symbols.obj
 0002:00027030       __xmm@bfeccccccccccccd3fc3333333333333 004b4030     fltk:fl_symbols.obj
 0002:00027040       __xmm@bfeccccccccccccd3ff0000000000000 004b4040     fltk:fl_symbols.obj
 0002:00027050       __xmm@bfeccccccccccccdbfc3333333333333 004b4050     fltk:fl_symbols.obj
 0002:00027060       __xmm@bfeccccccccccccdbfd3333333333333 004b4060     fltk:fl_symbols.obj
 0002:00027070       __xmm@bfeccccccccccccdbfe0000000000000 004b4070     fltk:fl_symbols.obj
 0002:00027080       __xmm@bfeccccccccccccdbff0000000000000 004b4080     fltk:fl_symbols.obj
 0002:00027090       __xmm@bff00000000000003fb999999999999a 004b4090     fltk:fl_symbols.obj
 0002:000270a0       __xmm@bff00000000000003fe3333333333333 004b40a0     fltk:fl_symbols.obj
 0002:000270b0       __xmm@bff00000000000003fe4cccccccccccd 004b40b0     fltk:fl_symbols.obj
 0002:000270c0       __xmm@bff00000000000003fe6666666666666 004b40c0     fltk:fl_symbols.obj
 0002:000270d0       __xmm@bff00000000000003feccccccccccccd 004b40d0     fltk:fl_symbols.obj
 0002:000270e0       __xmm@bff0000000000000bfe3333333333333 004b40e0     fltk:fl_symbols.obj
 0002:000270f0       __xmm@bff0000000000000bfe6666666666666 004b40f0     fltk:fl_symbols.obj
 0002:00027100       __xmm@bff0000000000000bfeccccccccccccd 004b4100     fltk:fl_symbols.obj
 0002:00027114       ??_7Fl_XBM_Image@@6B@      004b4114     fltk:Fl_XBM_Image.obj
 0002:00027134       ??_C@_0O@MBEIEFFD@?$CDdefine?5?$CFs?5?$CFd?$AA@ 004b4134     fltk:Fl_XBM_Image.obj
 0002:00027144       ??_C@_07PGOEDBHP@static?5?$AA@ 004b4144     fltk:Fl_XBM_Image.obj
 0002:0002714c       ??_C@_05JPFLBMGK@?50x?$CFx?$AA@ 004b414c     fltk:Fl_XBM_Image.obj
 0002:00027158       ??_7Fl_XPM_Image@@6B@      004b4158     fltk:Fl_XPM_Image.obj
 0002:0002717c       ??_7Fl_Single_Window@@6B@  004b417c     fltk:Fl_Single_Window.obj
 0002:000271a4       ??_C@_03JEJLODBC@?4?2?$CK?$AA@ 004b41a4     fltk:scandir.obj
 0002:000271a8       ??_C@_02KHDDNBB@?2?$CK?$AA@ 004b41a8     fltk:scandir.obj
 0002:000271ac       ??_C@_0BI@IOEHFMMJ@Insufficient?5GL?5support?$AA@ 004b41ac     fltk_gl:Fl_Gl_Window.obj
 0002:000271c4       ??_C@_0N@LFEMBNM@GL_SWAP_TYPE?$AA@ 004b41c4     fltk_gl:Fl_Gl_Window.obj
 0002:000271d4       ??_C@_04OCDMKKLN@COPY?$AA@ 004b41d4     fltk_gl:Fl_Gl_Window.obj
 0002:000271dc       ??_C@_08PAELOIID@NODAMAGE?$AA@ 004b41dc     fltk_gl:Fl_Gl_Window.obj
 0002:000271e8       ??_C@_04NLFHDAEB@SWAP?$AA@ 004b41e8     fltk_gl:Fl_Gl_Window.obj
 0002:000271f0       ??_C@_0EN@MHCFAAOJ@Fl_Gl_Window?3?3draw?$CI?$CJ?5?$CKmust?$CK?5be?5o@ 004b41f0     fltk_gl:Fl_Gl_Window.obj
 0002:00027244       ??_7Fl_Device_Plugin@@6B@  004b4244     fltk_gl:Fl_Gl_Device_Plugin.obj
 0002:00027254       ??_C@_0M@GJHFDAML@fltk?3device?$AA@ 004b4254     fltk_gl:Fl_Gl_Device_Plugin.obj
 0002:00027264       ??_7Fl_Gl_Device_Plugin@@6B@ 004b4264     fltk_gl:Fl_Gl_Device_Plugin.obj
 0002:00027274       ??_C@_0BH@OACKAEDA@opengl?4device?4fltk?4org?$AA@ 004b4274     fltk_gl:Fl_Gl_Device_Plugin.obj
 0002:0002728c       _IID_AsyncIUnknown         004b428c     uuid:unknwn_i.obj
 0002:0002729c       _IID_IUnknown              004b429c     uuid:unknwn_i.obj
 0002:000272ac       _IID_IClassFactory         004b42ac     uuid:unknwn_i.obj
 0002:000272bc       _IID_IRpcChannelBuffer2    004b42bc     uuid:objidl_i.obj
 0002:000272cc       _IID_AsyncIPipeDouble      004b42cc     uuid:objidl_i.obj
 0002:000272dc       _IID_AsyncIMultiQI         004b42dc     uuid:objidl_i.obj
 0002:000272ec       _IID_IContext              004b42ec     uuid:objidl_i.obj
 0002:000272fc       _IID_IStream               004b42fc     uuid:objidl_i.obj
 0002:0002730c       _IID_IGlobalOptions        004b430c     uuid:objidl_i.obj
 0002:0002731c       _IID_IAsyncManager         004b431c     uuid:objidl_i.obj
 0002:0002732c       _IID_IPersistStorage       004b432c     uuid:objidl_i.obj
 0002:0002733c       _IID_IMultiQI              004b433c     uuid:objidl_i.obj
 0002:0002734c       _IID_IRpcChannelBuffer3    004b434c     uuid:objidl_i.obj
 0002:0002735c       _IID_IServerSecurity       004b435c     uuid:objidl_i.obj
 0002:0002736c       _IID_AsyncIAdviseSink2     004b436c     uuid:objidl_i.obj
 0002:0002737c       _IID_ILockBytes            004b437c     uuid:objidl_i.obj
 0002:0002738c       _IID_AsyncIAdviseSink      004b438c     uuid:objidl_i.obj
 0002:0002739c       _IID_IProgressNotify       004b439c     uuid:objidl_i.obj
 0002:000273ac       _IID_IObjContext           004b43ac     uuid:objidl_i.obj
 0002:000273bc       _IID_IComThreadingInfo     004b43bc     uuid:objidl_i.obj
 0002:000273cc       _IID_IRootStorage          004b43cc     uuid:objidl_i.obj
 0002:000273dc       _IID_IMarshal2             004b43dc     uuid:objidl_i.obj
 0002:000273ec       _IID_IMessageFilter        004b43ec     uuid:objidl_i.obj
 0002:000273fc       _IID_ICancelMethodCalls    004b43fc     uuid:objidl_i.obj
 0002:0002740c       _IID_IAddrExclusionControl 004b440c     uuid:objidl_i.obj
 0002:0002741c       _IID_IUrlMon               004b441c     uuid:objidl_i.obj
 0002:0002742c       _IID_ISynchronizeMutex     004b442c     uuid:objidl_i.obj
 0002:0002743c       _IID_IRunnableObject       004b443c     uuid:objidl_i.obj
 0002:0002744c       _IID_ISurrogate            004b444c     uuid:objidl_i.obj
 0002:0002745c       _IID_ISynchronizeContainer 004b445c     uuid:objidl_i.obj
 0002:0002746c       _IID_IROTData              004b446c     uuid:objidl_i.obj
 0002:0002747c       _IID_IFastRundown          004b447c     uuid:objidl_i.obj
 0002:0002748c       _IID_IEnumMoniker          004b448c     uuid:objidl_i.obj
 0002:0002749c       _IID_IPipeLong             004b449c     uuid:objidl_i.obj
 0002:000274ac       _IID_ISynchronize          004b44ac     uuid:objidl_i.obj
 0002:000274bc       _IID_IChannelHook          004b44bc     uuid:objidl_i.obj
 0002:000274cc       _IID_IApartmentShutdown    004b44cc     uuid:objidl_i.obj
 0002:000274dc       _IID_IDirectWriterLock     004b44dc     uuid:objidl_i.obj
 0002:000274ec       _IID_IRpcStubBuffer        004b44ec     uuid:objidl_i.obj
 0002:000274fc       _IID_IRpcProxyBuffer       004b44fc     uuid:objidl_i.obj
 0002:0002750c       _IID_IMallocSpy            004b450c     uuid:objidl_i.obj
 0002:0002751c       _IID_IProcessInitControl   004b451c     uuid:objidl_i.obj
 0002:0002752c       _IID_IEnumSTATDATA         004b452c     uuid:objidl_i.obj
 0002:0002753c       _IID_IEnumFORMATETC        004b453c     uuid:objidl_i.obj
 0002:0002754c       _IID_IClientSecurity       004b454c     uuid:objidl_i.obj
 0002:0002755c       _IID_IMarshalingStream     004b455c     uuid:objidl_i.obj
 0002:0002756c       _IID_ITimeAndNoticeControl 004b456c     uuid:objidl_i.obj
 0002:0002757c       _IID_IDataObject           004b457c     uuid:objidl_i.obj
 0002:0002758c       _IID_IInternalUnknown      004b458c     uuid:objidl_i.obj
 0002:0002759c       _IID_IReleaseMarshalBuffers 004b459c     uuid:objidl_i.obj
 0002:000275ac       _IID_IRpcOptions           004b45ac     uuid:objidl_i.obj
 0002:000275bc       _IID_IStdMarshalInfo       004b45bc     uuid:objidl_i.obj
 0002:000275cc       _IID_ISynchronizeHandle    004b45cc     uuid:objidl_i.obj
 0002:000275dc       _IID_IPipeDouble           004b45dc     uuid:objidl_i.obj
 0002:000275ec       _IID_IEnumString           004b45ec     uuid:objidl_i.obj
 0002:000275fc       _IID_IAgileReference       004b45fc     uuid:objidl_i.obj
 0002:0002760c       _IID_IEnumUnknown          004b460c     uuid:objidl_i.obj
 0002:0002761c       _IID_IDummyHICONIncluder   004b461c     uuid:objidl_i.obj
 0002:0002762c       _IID_IAdviseSink2          004b462c     uuid:objidl_i.obj
 0002:0002763c       _IID_IForegroundTransfer   004b463c     uuid:objidl_i.obj
 0002:0002764c       _IID_IBindCtx              004b464c     uuid:objidl_i.obj
 0002:0002765c       _IID_ISynchronizeEvent     004b465c     uuid:objidl_i.obj
 0002:0002766c       _IID_AsyncIPipeLong        004b466c     uuid:objidl_i.obj
 0002:0002767c       _IID_IOplockStorage        004b467c     uuid:objidl_i.obj
 0002:0002768c       _IID_IFillLockBytes        004b468c     uuid:objidl_i.obj
 0002:0002769c       _IID_ILayoutStorage        004b469c     uuid:objidl_i.obj
 0002:000276ac       _IID_IWaitMultiple         004b46ac     uuid:objidl_i.obj
 0002:000276bc       _IID_IStorage              004b46bc     uuid:objidl_i.obj
 0002:000276cc       _IID_IRpcHelper            004b46cc     uuid:objidl_i.obj
 0002:000276dc       _IID_IRpcChannelBuffer     004b46dc     uuid:objidl_i.obj
 0002:000276ec       _IID_IAsyncRpcChannelBuffer 004b46ec     uuid:objidl_i.obj
 0002:000276fc       _IID_IMalloc               004b46fc     uuid:objidl_i.obj
 0002:0002770c       _IID_ISurrogateService     004b470c     uuid:objidl_i.obj
 0002:0002771c       _IID_IPSFactoryBuffer      004b471c     uuid:objidl_i.obj
 0002:0002772c       _IID_IPipeByte             004b472c     uuid:objidl_i.obj
 0002:0002773c       _IID_IExternalConnection   004b473c     uuid:objidl_i.obj
 0002:0002774c       _IID_IActivationFilter     004b474c     uuid:objidl_i.obj
 0002:0002775c       _IID_AsyncIPipeByte        004b475c     uuid:objidl_i.obj
 0002:0002776c       _IID_INoMarshal            004b476c     uuid:objidl_i.obj
 0002:0002777c       _IID_IAgileObject          004b477c     uuid:objidl_i.obj
 0002:0002778c       _IID_IRunningObjectTable   004b478c     uuid:objidl_i.obj
 0002:0002779c       _IID_IProcessLock          004b479c     uuid:objidl_i.obj
 0002:000277ac       _IID_IInitializeSpy        004b47ac     uuid:objidl_i.obj
 0002:000277bc       _IID_IAddrTrackingControl  004b47bc     uuid:objidl_i.obj
 0002:000277cc       _IID_IEnumSTATSTG          004b47cc     uuid:objidl_i.obj
 0002:000277dc       _IID_IClassActivator       004b47dc     uuid:objidl_i.obj
 0002:000277ec       _IID_IDataAdviseHolder     004b47ec     uuid:objidl_i.obj
 0002:000277fc       _IID_IPersistStream        004b47fc     uuid:objidl_i.obj
 0002:0002780c       _IID_ISequentialStream     004b480c     uuid:objidl_i.obj
 0002:0002781c       _IID_IAdviseSink           004b481c     uuid:objidl_i.obj
 0002:0002782c       _IID_IGlobalInterfaceTable 004b482c     uuid:objidl_i.obj
 0002:0002783c       _IID_ICallFactory          004b483c     uuid:objidl_i.obj
 0002:0002784c       _IID_IBlockingLock         004b484c     uuid:objidl_i.obj
 0002:0002785c       _IID_IPersistFile          004b485c     uuid:objidl_i.obj
 0002:0002786c       _IID_IMoniker              004b486c     uuid:objidl_i.obj
 0002:0002787c       _IID_IMarshal              004b487c     uuid:objidl_i.obj
 0002:0002788c       _IID_IThumbnailExtractor   004b488c     uuid:objidl_i.obj
 0002:0002789c       _IID_IRpcSyntaxNegotiate   004b489c     uuid:objidl_i.obj
 0002:000278ac       _IID_IEnumContextProps     004b48ac     uuid:objidl_i.obj
 0002:000278bc       _IID_IPersist              004b48bc     uuid:objidl_i.obj
 0002:000278cc       _IID_IOleCacheControl      004b48cc     uuid:oleidl_i.obj
 0002:000278dc       _IID_IOleWindow            004b48dc     uuid:oleidl_i.obj
 0002:000278ec       _IID_IOleInPlaceSite       004b48ec     uuid:oleidl_i.obj
 0002:000278fc       _IID_IOleContainer         004b48fc     uuid:oleidl_i.obj
 0002:0002790c       _IID_IOleInPlaceUIWindow   004b490c     uuid:oleidl_i.obj
 0002:0002791c       _IID_IDropSource           004b491c     uuid:oleidl_i.obj
 0002:0002792c       _IID_IDropTarget           004b492c     uuid:oleidl_i.obj
 0002:0002793c       _IID_IOleObject            004b493c     uuid:oleidl_i.obj
 0002:0002794c       _IID_IOleAdviseHolder      004b494c     uuid:oleidl_i.obj
 0002:0002795c       _IID_IDropSourceNotify     004b495c     uuid:oleidl_i.obj
 0002:0002796c       _IID_IContinue             004b496c     uuid:oleidl_i.obj
 0002:0002797c       _IID_IOleCache             004b497c     uuid:oleidl_i.obj
 0002:0002798c       _IID_IOleClientSite        004b498c     uuid:oleidl_i.obj
 0002:0002799c       _IID_IEnterpriseDropTarget 004b499c     uuid:oleidl_i.obj
 0002:000279ac       _IID_IOleInPlaceObject     004b49ac     uuid:oleidl_i.obj
 0002:000279bc       _IID_IEnumOLEVERB          004b49bc     uuid:oleidl_i.obj
 0002:000279cc       _IID_IViewObject2          004b49cc     uuid:oleidl_i.obj
 0002:000279dc       _IID_IOleCache2            004b49dc     uuid:oleidl_i.obj
 0002:000279ec       _IID_IOleLink              004b49ec     uuid:oleidl_i.obj
 0002:000279fc       _IID_IParseDisplayName     004b49fc     uuid:oleidl_i.obj
 0002:00027a0c       _IID_IOleInPlaceActiveObject 004b4a0c     uuid:oleidl_i.obj
 0002:00027a1c       _IID_IOleInPlaceFrame      004b4a1c     uuid:oleidl_i.obj
 0002:00027a2c       _IID_IOleItemContainer     004b4a2c     uuid:oleidl_i.obj
 0002:00027a3c       _IID_IViewObject           004b4a3c     uuid:oleidl_i.obj
 0002:00027a50       ??_7type_info@@6B@         004b4a50     MSVCRT:std_type_info_static.obj
 0002:00027a54       ??_C@_1BK@MGMFAEKH@?$AAk?$AAe?$AAr?$AAn?$AAe?$AAl?$AA3?$AA2?$AA?4?$AAd?$AAl?$AAl?$AA?$AA@ 004b4a54     MSVCRT:thread_safe_statics.obj
 0002:00027a70       ??_C@_0BM@HLJJNPAH@InitializeConditionVariable?$AA@ 004b4a70     MSVCRT:thread_safe_statics.obj
 0002:00027a8c       ??_C@_0BJ@JEBJOJFJ@SleepConditionVariableCS?$AA@ 004b4a8c     MSVCRT:thread_safe_statics.obj
 0002:00027aa8       ??_C@_0BJ@PGPPEPCC@WakeAllConditionVariable?$AA@ 004b4aa8     MSVCRT:thread_safe_statics.obj
 0002:00027b58       ??_7bad_alloc@std@@6B@     004b4b58     MSVCRT:throw_bad_alloc.obj
 0002:00027b60       ??_C@_0P@GHFPNOJB@bad?5allocation?$AA@ 004b4b60     MSVCRT:throw_bad_alloc.obj
 0002:00027b74       ??_7bad_array_new_length@std@@6B@ 004b4b74     MSVCRT:throw_bad_alloc.obj
 0002:00027b7c       ??_C@_0BF@KINCDENJ@bad?5array?5new?5length?$AA@ 004b4b7c     MSVCRT:throw_bad_alloc.obj
 0002:00027bf8       __load_config_used         004b4bf8     MSVCRT:loadcfg.obj
 0002:00027c54       __tls_used                 004b4c54     MSVCRT:tlssup.obj
 0002:00027c6c       ??_R4exception@std@@6B@    004b4c6c     main.obj
 0002:00027c80       ??_R3exception@std@@8      004b4c80     main.obj
 0002:00027c90       ??_R2exception@std@@8      004b4c90     main.obj
 0002:00027c98       ??_R1A@?0A@EA@exception@std@@8 004b4c98     main.obj
 0002:00027cb4       ??_R4?$basic_filebuf@DU?$char_traits@D@std@@@std@@6B@ 004b4cb4     RayTracer.obj
 0002:00027cc8       ??_R3?$basic_filebuf@DU?$char_traits@D@std@@@std@@8 004b4cc8     RayTracer.obj
 0002:00027cd8       ??_R2?$basic_filebuf@DU?$char_traits@D@std@@@std@@8 004b4cd8     RayTracer.obj
 0002:00027ce4       ??_R1A@?0A@EA@?$basic_filebuf@DU?$char_traits@D@std@@@std@@8 004b4ce4     RayTracer.obj
 0002:00027d00       ??_R1A@?0A@EA@?$basic_streambuf@DU?$char_traits@D@std@@@std@@8 004b4d00     RayTracer.obj
 0002:00027d1c       ??_R3?$basic_streambuf@DU?$char_traits@D@std@@@std@@8 004b4d1c     RayTracer.obj
 0002:00027d2c       ??_R2?$basic_streambuf@DU?$char_traits@D@std@@@std@@8 004b4d2c     RayTracer.obj
 0002:00027d34       ??_R4?$basic_ifstream@DU?$char_traits@D@std@@@std@@6B@ 004b4d34     RayTracer.obj
 0002:00027d48       ??_R3?$basic_ifstream@DU?$char_traits@D@std@@@std@@8 004b4d48     RayTracer.obj
 0002:00027d58       ??_R2?$basic_ifstream@DU?$char_traits@D@std@@@std@@8 004b4d58     RayTracer.obj
 0002:00027d70       ??_R1A@?0A@EA@?$basic_ifstream@DU?$char_traits@D@std@@@std@@8 004b4d70     RayTracer.obj
 0002:00027d8c       ??_R1A@?0A@EA@?$basic_istream@DU?$char_traits@D@std@@@std@@8 004b4d8c     RayTracer.obj
 0002:00027da8       ??_R3?$basic_istream@DU?$char_traits@D@std@@@std@@8 004b4da8     RayTracer.obj
 0002:00027db8       ??_R2?$basic_istream@DU?$char_traits@D@std@@@std@@8 004b4db8     RayTracer.obj
 0002:00027dcc       ??_R1A@A@3FA@?$basic_ios@DU?$char_traits@D@std@@@std@@8 004b4dcc     RayTracer.obj
 0002:00027de8       ??_R3?$basic_ios@DU?$char_traits@D@std@@@std@@8 004b4de8     RayTracer.obj
 0002:00027df8       ??_R2?$basic_ios@DU?$char_traits@D@std@@@std@@8 004b4df8     RayTracer.obj
 0002:00027e08       ??_R1A@?0A@EA@?$basic_ios@DU?$char_traits@D@std@@@std@@8 004b4e08     RayTracer.obj
 0002:00027e24       ??_R1A@?0A@EA@ios_base@std@@8 004b4e24     RayTracer.obj
 0002:00027e40       ??_R3ios_base@std@@8       004b4e40     RayTracer.obj
 0002:00027e50       ??_R2ios_base@std@@8       004b4e50     RayTracer.obj
 0002:00027e5c       ??_R17?0A@EA@?$_Iosb@H@std@@8 004b4e5c     RayTracer.obj
 0002:00027e78       ??_R3?$_Iosb@H@std@@8      004b4e78     RayTracer.obj
 0002:00027e88       ??_R2?$_Iosb@H@std@@8      004b4e88     RayTracer.obj
 0002:00027e90       ??_R1A@?0A@EA@?$_Iosb@H@std@@8 004b4e90     RayTracer.obj
 0002:00027eac       ??_R1A@A@3EA@ios_base@std@@8 004b4eac     RayTracer.obj
 0002:00027ec8       ??_R17A@3EA@?$_Iosb@H@std@@8 004b4ec8     RayTracer.obj
 0002:00027ee4       ??_R4bad_cast@std@@6B@     004b4ee4     RayTracer.obj
 0002:00027ef8       ??_R3bad_cast@std@@8       004b4ef8     RayTracer.obj
 0002:00027f08       ??_R2bad_cast@std@@8       004b4f08     RayTracer.obj
 0002:00027f14       ??_R1A@?0A@EA@bad_cast@std@@8 004b4f14     RayTracer.obj
 0002:00027f30       ??_R4TraceUI@@6B@          004b4f30     CommandLineUI.obj
 0002:00027f44       ??_R3TraceUI@@8            004b4f44     CommandLineUI.obj
 0002:00027f54       ??_R2TraceUI@@8            004b4f54     CommandLineUI.obj
 0002:00027f5c       ??_R1A@?0A@EA@TraceUI@@8   004b4f5c     CommandLineUI.obj
 0002:00027f78       ??_R4CommandLineUI@@6B@    004b4f78     CommandLineUI.obj
 0002:00027f8c       ??_R3CommandLineUI@@8      004b4f8c     CommandLineUI.obj
 0002:00027f9c       ??_R2CommandLineUI@@8      004b4f9c     CommandLineUI.obj
 0002:00027fa8       ??_R1A@?0A@EA@CommandLineUI@@8 004b4fa8     CommandLineUI.obj
 0002:00027fc4       ??_R4Fl_Gl_Window@@6B@     004b4fc4     debuggingView.obj
 0002:00027fd8       ??_R3Fl_Gl_Window@@8       004b4fd8     debuggingView.obj
 0002:00027fe8       ??_R2Fl_Gl_Window@@8       004b4fe8     debuggingView.obj
 0002:00027ffc       ??_R1A@?0A@EA@Fl_Gl_Window@@8 004b4ffc     debuggingView.obj
 0002:00028018       ??_R1A@?0A@EA@Fl_Window@@8 004b5018     debuggingView.obj
 0002:00028034       ??_R3Fl_Window@@8          004b5034     debuggingView.obj
 0002:00028044       ??_R2Fl_Window@@8          004b5044     debuggingView.obj
 0002:00028054       ??_R1A@?0A@EA@Fl_Group@@8  004b5054     debuggingView.obj
 0002:00028070       ??_R3Fl_Group@@8           004b5070     debuggingView.obj
 0002:00028080       ??_R2Fl_Group@@8           004b5080     debuggingView.obj
 0002:0002808c       ??_R1A@?0A@EA@Fl_Widget@@8 004b508c     debuggingView.obj
 0002:000280a8       ??_R3Fl_Widget@@8          004b50a8     debuggingView.obj
 0002:000280b8       ??_R2Fl_Widget@@8          004b50b8     debuggingView.obj
 0002:000280c0       ??_R4DebuggingView@@6B@    004b50c0     debuggingView.obj
 0002:000280d4       ??_R3DebuggingView@@8      004b50d4     debuggingView.obj
 0002:000280e4       ??_R2DebuggingView@@8      004b50e4     debuggingView.obj
 0002:000280fc       ??_R1A@?0A@EA@DebuggingView@@8 004b50fc     debuggingView.obj
 0002:00028118       ??_R4GraphicalUI@@6B@      004b5118     GraphicalUI.obj
 0002:0002812c       ??_R3GraphicalUI@@8        004b512c     GraphicalUI.obj
 0002:0002813c       ??_R2GraphicalUI@@8        004b513c     GraphicalUI.obj
 0002:00028148       ??_R1A@?0A@EA@GraphicalUI@@8 004b5148     GraphicalUI.obj
 0002:00028164       ??_R4Dialog2@@6B@          004b5164     GraphicalUI.obj
 0002:00028178       ??_R3Dialog2@@8            004b5178     GraphicalUI.obj
 0002:00028188       ??_R2Dialog2@@8            004b5188     GraphicalUI.obj
 0002:00028198       ??_R1A@?0A@EA@Dialog2@@8   004b5198     GraphicalUI.obj
 0002:000281b4       ??_R4Scene@@6B@            004b51b4     scene.obj
 0002:000281c8       ??_R3Scene@@8              004b51c8     scene.obj
 0002:000281d8       ??_R2Scene@@8              004b51d8     scene.obj
 0002:000281e0       ??_R1A@?0A@EA@Scene@@8     004b51e0     scene.obj
 0002:000281fc       ??_R4Material@@6B@         004b51fc     scene.obj
 0002:00028210       ??_R3Material@@8           004b5210     scene.obj
 0002:00028220       ??_R2Material@@8           004b5220     scene.obj
 0002:00028228       ??_R1A@?0A@EA@Material@@8  004b5228     scene.obj
 0002:00028244       ??_R4SceneObject@@6B@      004b5244     trimesh.obj
 0002:00028258       ??_R3SceneObject@@8        004b5258     trimesh.obj
 0002:00028268       ??_R2SceneObject@@8        004b5268     trimesh.obj
 0002:00028278       ??_R1A@?0A@EA@SceneObject@@8 004b5278     trimesh.obj
 0002:00028294       ??_R1A@?0A@EA@Geometry@@8  004b5294     trimesh.obj
 0002:000282b0       ??_R3Geometry@@8           004b52b0     trimesh.obj
 0002:000282c0       ??_R2Geometry@@8           004b52c0     trimesh.obj
 0002:000282cc       ??_R1A@?0A@EA@SceneElement@@8 004b52cc     trimesh.obj
 0002:000282e8       ??_R3SceneElement@@8       004b52e8     trimesh.obj
 0002:000282f8       ??_R2SceneElement@@8       004b52f8     trimesh.obj
 0002:00028300       ??_R4SceneElement@@6B@     004b5300     trimesh.obj
 0002:00028314       ??_R4Geometry@@6B@         004b5314     trimesh.obj
 0002:00028328       ??_R4MaterialSceneObject@@6B@ 004b5328     trimesh.obj
 0002:0002833c       ??_R3MaterialSceneObject@@8 004b533c     trimesh.obj
 0002:0002834c       ??_R2MaterialSceneObject@@8 004b534c     trimesh.obj
 0002:00028360       ??_R1A@?0A@EA@MaterialSceneObject@@8 004b5360     trimesh.obj
 0002:0002837c       ??_R4TrimeshFace@@6B@      004b537c     trimesh.obj
 0002:00028390       ??_R3TrimeshFace@@8        004b5390     trimesh.obj
 0002:000283a0       ??_R2TrimeshFace@@8        004b53a0     trimesh.obj
 0002:000283b8       ??_R1A@?0A@EA@TrimeshFace@@8 004b53b8     trimesh.obj
 0002:000283d4       ??_R4Trimesh@@6B@          004b53d4     trimesh.obj
 0002:000283e8       ??_R3Trimesh@@8            004b53e8     trimesh.obj
 0002:000283f8       ??_R2Trimesh@@8            004b53f8     trimesh.obj
 0002:00028410       ??_R1A@?0A@EA@Trimesh@@8   004b5410     trimesh.obj
 0002:0002842c       ??_R4?$basic_stringbuf@DU?$char_traits@D@std@@V?$allocator@D@2@@std@@6B@ 004b542c     Parser.obj
 0002:00028440       ??_R3?$basic_stringbuf@DU?$char_traits@D@std@@V?$allocator@D@2@@std@@8 004b5440     Parser.obj
 0002:00028450       ??_R2?$basic_stringbuf@DU?$char_traits@D@std@@V?$allocator@D@2@@std@@8 004b5450     Parser.obj
 0002:0002845c       ??_R1A@?0A@EA@?$basic_stringbuf@DU?$char_traits@D@std@@V?$allocator@D@2@@std@@8 004b545c     Parser.obj
 0002:00028478       ??_R4?$basic_ostringstream@DU?$char_traits@D@std@@V?$allocator@D@2@@std@@6B@ 004b5478     Parser.obj
 0002:0002848c       ??_R3?$basic_ostringstream@DU?$char_traits@D@std@@V?$allocator@D@2@@std@@8 004b548c     Parser.obj
 0002:0002849c       ??_R2?$basic_ostringstream@DU?$char_traits@D@std@@V?$allocator@D@2@@std@@8 004b549c     Parser.obj
 0002:000284b4       ??_R1A@?0A@EA@?$basic_ostringstream@DU?$char_traits@D@std@@V?$allocator@D@2@@std@@8 004b54b4     Parser.obj
 0002:000284d0       ??_R1A@?0A@EA@?$basic_ostream@DU?$char_traits@D@std@@@std@@8 004b54d0     Parser.obj
 0002:000284ec       ??_R3?$basic_ostream@DU?$char_traits@D@std@@@std@@8 004b54ec     Parser.obj
 0002:000284fc       ??_R2?$basic_ostream@DU?$char_traits@D@std@@@std@@8 004b54fc     Parser.obj
 0002:00028510       ??_R4Light@@6B@            004b5510     Parser.obj
 0002:00028524       ??_R3Light@@8              004b5524     Parser.obj
 0002:00028534       ??_R2Light@@8              004b5534     Parser.obj
 0002:00028540       ??_R1A@?0A@EA@Light@@8     004b5540     Parser.obj
 0002:0002855c       ??_R4DirectionalLight@@6B@ 004b555c     Parser.obj
 0002:00028570       ??_R3DirectionalLight@@8   004b5570     Parser.obj
 0002:00028580       ??_R2DirectionalLight@@8   004b5580     Parser.obj
 0002:00028590       ??_R1A@?0A@EA@DirectionalLight@@8 004b5590     Parser.obj
 0002:000285ac       ??_R4PointLight@@6B@       004b55ac     Parser.obj
 0002:000285c0       ??_R3PointLight@@8         004b55c0     Parser.obj
 0002:000285d0       ??_R2PointLight@@8         004b55d0     Parser.obj
 0002:000285e0       ??_R1A@?0A@EA@PointLight@@8 004b55e0     Parser.obj
 0002:000285fc       ??_R4Box@@6B@              004b55fc     Parser.obj
 0002:00028610       ??_R3Box@@8                004b5610     Parser.obj
 0002:00028620       ??_R2Box@@8                004b5620     Parser.obj
 0002:00028638       ??_R1A@?0A@EA@Box@@8       004b5638     Parser.obj
 0002:00028654       ??_R4Cone@@6B@             004b5654     Parser.obj
 0002:00028668       ??_R3Cone@@8               004b5668     Parser.obj
 0002:00028678       ??_R2Cone@@8               004b5678     Parser.obj
 0002:00028690       ??_R1A@?0A@EA@Cone@@8      004b5690     Parser.obj
 0002:000286ac       ??_R4Cylinder@@6B@         004b56ac     Parser.obj
 0002:000286c0       ??_R3Cylinder@@8           004b56c0     Parser.obj
 0002:000286d0       ??_R2Cylinder@@8           004b56d0     Parser.obj
 0002:000286e8       ??_R1A@?0A@EA@Cylinder@@8  004b56e8     Parser.obj
 0002:00028704       ??_R4Sphere@@6B@           004b5704     Parser.obj
 0002:00028718       ??_R3Sphere@@8             004b5718     Parser.obj
 0002:00028728       ??_R2Sphere@@8             004b5728     Parser.obj
 0002:00028740       ??_R1A@?0A@EA@Sphere@@8    004b5740     Parser.obj
 0002:0002875c       ??_R4Square@@6B@           004b575c     Parser.obj
 0002:00028770       ??_R3Square@@8             004b5770     Parser.obj
 0002:00028780       ??_R2Square@@8             004b5780     Parser.obj
 0002:00028798       ??_R1A@?0A@EA@Square@@8    004b5798     Parser.obj
 0002:000287b4       ??_R4Token@@6B@            004b57b4     Tokenizer.obj
 0002:000287c8       ??_R3Token@@8              004b57c8     Tokenizer.obj
 0002:000287d8       ??_R2Token@@8              004b57d8     Tokenizer.obj
 0002:000287e0       ??_R1A@?0A@EA@Token@@8     004b57e0     Tokenizer.obj
 0002:000287fc       ??_R4IdentToken@@6B@       004b57fc     Tokenizer.obj
 0002:00028810       ??_R3IdentToken@@8         004b5810     Tokenizer.obj
 0002:00028820       ??_R2IdentToken@@8         004b5820     Tokenizer.obj
 0002:0002882c       ??_R1A@?0A@EA@IdentToken@@8 004b582c     Tokenizer.obj
 0002:00028848       ??_R4ScalarToken@@6B@      004b5848     Tokenizer.obj
 0002:0002885c       ??_R3ScalarToken@@8        004b585c     Tokenizer.obj
 0002:0002886c       ??_R2ScalarToken@@8        004b586c     Tokenizer.obj
 0002:00028878       ??_R1A@?0A@EA@ScalarToken@@8 004b5878     Tokenizer.obj
 0002:00028894       ??_R4TraceGLWindow@@6B@    004b5894     TraceGLWindow.obj
 0002:000288a8       ??_R3TraceGLWindow@@8      004b58a8     TraceGLWindow.obj
 0002:000288b8       ??_R2TraceGLWindow@@8      004b58b8     TraceGLWindow.obj
 0002:000288d0       ??_R1A@?0A@EA@TraceGLWindow@@8 004b58d0     TraceGLWindow.obj
 0002:000288ec       ??_R4Fl_Image@@6B@         004b58ec     fltk:Fl.obj
 0002:00028900       ??_R3Fl_Image@@8           004b5900     fltk:Fl.obj
 0002:00028910       ??_R2Fl_Image@@8           004b5910     fltk:Fl.obj
 0002:00028918       ??_R1A@?0A@EA@Fl_Image@@8  004b5918     fltk:Fl.obj
 0002:00028934       ??_R4Fl_RGB_Image@@6B@     004b5934     fltk:Fl.obj
 0002:00028948       ??_R3Fl_RGB_Image@@8       004b5948     fltk:Fl.obj
 0002:00028958       ??_R2Fl_RGB_Image@@8       004b5958     fltk:Fl.obj
 0002:00028964       ??_R1A@?0A@EA@Fl_RGB_Image@@8 004b5964     fltk:Fl.obj
 0002:00028980       ??_R4Fl_GDI_Graphics_Driver@@6B@ 004b5980     fltk:Fl.obj
 0002:00028994       ??_R3Fl_GDI_Graphics_Driver@@8 004b5994     fltk:Fl.obj
 0002:000289a4       ??_R2Fl_GDI_Graphics_Driver@@8 004b59a4     fltk:Fl.obj
 0002:000289b4       ??_R1A@?0A@EA@Fl_GDI_Graphics_Driver@@8 004b59b4     fltk:Fl.obj
 0002:000289d0       ??_R1A@?0A@EA@Fl_Graphics_Driver@@8 004b59d0     fltk:Fl.obj
 0002:000289ec       ??_R3Fl_Graphics_Driver@@8 004b59ec     fltk:Fl.obj
 0002:000289fc       ??_R2Fl_Graphics_Driver@@8 004b59fc     fltk:Fl.obj
 0002:00028a08       ??_R1A@?0A@EA@Fl_Device@@8 004b5a08     fltk:Fl.obj
 0002:00028a24       ??_R3Fl_Device@@8          004b5a24     fltk:Fl.obj
 0002:00028a34       ??_R2Fl_Device@@8          004b5a34     fltk:Fl.obj
 0002:00028a3c       ??_R4Fl_Graphics_Driver@@6B@ 004b5a3c     fltk:Fl.obj
 0002:00028a50       ??_R4Fl_Device@@6B@        004b5a50     fltk:Fl.obj
 0002:00028a64       ??_R4Fl_Window@@6B@        004b5a64     fltk:Fl_Window.obj
 0002:00028a78       ??_R4Fl_Group@@6B@         004b5a78     fltk:Fl_Group.obj
 0002:00028a8c       ??_R4Fl_Input_Choice@@6B@  004b5a8c     fltk:Fl_Group.obj
 0002:00028aa0       ??_R3Fl_Input_Choice@@8    004b5aa0     fltk:Fl_Group.obj
 0002:00028ab0       ??_R2Fl_Input_Choice@@8    004b5ab0     fltk:Fl_Group.obj
 0002:00028ac0       ??_R1A@?0A@EA@Fl_Input_Choice@@8 004b5ac0     fltk:Fl_Group.obj
 0002:00028adc       ??_R4InputMenuButton@Fl_Input_Choice@@6B@ 004b5adc     fltk:Fl_Group.obj
 0002:00028af0       ??_R3InputMenuButton@Fl_Input_Choice@@8 004b5af0     fltk:Fl_Group.obj
 0002:00028b00       ??_R2InputMenuButton@Fl_Input_Choice@@8 004b5b00     fltk:Fl_Group.obj
 0002:00028b14       ??_R1A@?0A@EA@InputMenuButton@Fl_Input_Choice@@8 004b5b14     fltk:Fl_Group.obj
 0002:00028b30       ??_R1A@?0A@EA@Fl_Menu_Button@@8 004b5b30     fltk:Fl_Group.obj
 0002:00028b4c       ??_R3Fl_Menu_Button@@8     004b5b4c     fltk:Fl_Group.obj
 0002:00028b5c       ??_R2Fl_Menu_Button@@8     004b5b5c     fltk:Fl_Group.obj
 0002:00028b6c       ??_R1A@?0A@EA@Fl_Menu_@@8  004b5b6c     fltk:Fl_Group.obj
 0002:00028b88       ??_R3Fl_Menu_@@8           004b5b88     fltk:Fl_Group.obj
 0002:00028b98       ??_R2Fl_Menu_@@8           004b5b98     fltk:Fl_Group.obj
 0002:00028ba4       ??_R4Fl_Spinner@@6B@       004b5ba4     fltk:Fl_Group.obj
 0002:00028bb8       ??_R3Fl_Spinner@@8         004b5bb8     fltk:Fl_Group.obj
 0002:00028bc8       ??_R2Fl_Spinner@@8         004b5bc8     fltk:Fl_Group.obj
 0002:00028bd8       ??_R1A@?0A@EA@Fl_Spinner@@8 004b5bd8     fltk:Fl_Group.obj
 0002:00028bf4       ??_R4Fl_Menu_@@6B@         004b5bf4     fltk:Fl_Menu_.obj
 0002:00028c08       ??_R4Fl_Menu_Bar@@6B@      004b5c08     fltk:Fl_Menu_Bar.obj
 0002:00028c1c       ??_R3Fl_Menu_Bar@@8        004b5c1c     fltk:Fl_Menu_Bar.obj
 0002:00028c2c       ??_R2Fl_Menu_Bar@@8        004b5c2c     fltk:Fl_Menu_Bar.obj
 0002:00028c3c       ??_R1A@?0A@EA@Fl_Menu_Bar@@8 004b5c3c     fltk:Fl_Menu_Bar.obj
 0002:00028c58       ??_R4Fl_Widget@@6B@        004b5c58     fltk:Fl_Widget.obj
 0002:00028c6c       ??_R4Fl_Valuator@@6B@      004b5c6c     fltk:Fl_Valuator.obj
 0002:00028c80       ??_R3Fl_Valuator@@8        004b5c80     fltk:Fl_Valuator.obj
 0002:00028c90       ??_R2Fl_Valuator@@8        004b5c90     fltk:Fl_Valuator.obj
 0002:00028c9c       ??_R1A@?0A@EA@Fl_Valuator@@8 004b5c9c     fltk:Fl_Valuator.obj
 0002:00028cb8       ??_R4Fl_Value_Slider@@6B@  004b5cb8     fltk:Fl_Value_Slider.obj
 0002:00028ccc       ??_R3Fl_Value_Slider@@8    004b5ccc     fltk:Fl_Value_Slider.obj
 0002:00028cdc       ??_R2Fl_Value_Slider@@8    004b5cdc     fltk:Fl_Value_Slider.obj
 0002:00028cf0       ??_R1A@?0A@EA@Fl_Value_Slider@@8 004b5cf0     fltk:Fl_Value_Slider.obj
 0002:00028d0c       ??_R1A@?0A@EA@Fl_Slider@@8 004b5d0c     fltk:Fl_Value_Slider.obj
 0002:00028d28       ??_R3Fl_Slider@@8          004b5d28     fltk:Fl_Value_Slider.obj
 0002:00028d38       ??_R2Fl_Slider@@8          004b5d38     fltk:Fl_Value_Slider.obj
 0002:00028d48       ??_R4Fl_Hor_Value_Slider@@6B@ 004b5d48     fltk:Fl_Value_Slider.obj
 0002:00028d5c       ??_R3Fl_Hor_Value_Slider@@8 004b5d5c     fltk:Fl_Value_Slider.obj
 0002:00028d6c       ??_R2Fl_Hor_Value_Slider@@8 004b5d6c     fltk:Fl_Value_Slider.obj
 0002:00028d84       ??_R1A@?0A@EA@Fl_Hor_Value_Slider@@8 004b5d84     fltk:Fl_Value_Slider.obj
 0002:00028da0       ??_R4Fl_Button@@6B@        004b5da0     fltk:Fl_Button.obj
 0002:00028db4       ??_R3Fl_Button@@8          004b5db4     fltk:Fl_Button.obj
 0002:00028dc4       ??_R2Fl_Button@@8          004b5dc4     fltk:Fl_Button.obj
 0002:00028dd0       ??_R1A@?0A@EA@Fl_Button@@8 004b5dd0     fltk:Fl_Button.obj
 0002:00028dec       ??_R4Fl_Radio_Button@@6B@  004b5dec     fltk:Fl_Button.obj
 0002:00028e00       ??_R3Fl_Radio_Button@@8    004b5e00     fltk:Fl_Button.obj
 0002:00028e10       ??_R2Fl_Radio_Button@@8    004b5e10     fltk:Fl_Button.obj
 0002:00028e20       ??_R1A@?0A@EA@Fl_Radio_Button@@8 004b5e20     fltk:Fl_Button.obj
 0002:00028e3c       ??_R4Fl_Toggle_Button@@6B@ 004b5e3c     fltk:Fl_Button.obj
 0002:00028e50       ??_R3Fl_Toggle_Button@@8   004b5e50     fltk:Fl_Button.obj
 0002:00028e60       ??_R2Fl_Toggle_Button@@8   004b5e60     fltk:Fl_Button.obj
 0002:00028e70       ??_R1A@?0A@EA@Fl_Toggle_Button@@8 004b5e70     fltk:Fl_Button.obj
 0002:00028e8c       ??_R4Fl_Check_Button@@6B@  004b5e8c     fltk:Fl_Check_Button.obj
 0002:00028ea0       ??_R3Fl_Check_Button@@8    004b5ea0     fltk:Fl_Check_Button.obj
 0002:00028eb0       ??_R2Fl_Check_Button@@8    004b5eb0     fltk:Fl_Check_Button.obj
 0002:00028ec4       ??_R1A@?0A@EA@Fl_Check_Button@@8 004b5ec4     fltk:Fl_Check_Button.obj
 0002:00028ee0       ??_R1A@?0A@EA@Fl_Light_Button@@8 004b5ee0     fltk:Fl_Check_Button.obj
 0002:00028efc       ??_R3Fl_Light_Button@@8    004b5efc     fltk:Fl_Check_Button.obj
 0002:00028f0c       ??_R2Fl_Light_Button@@8    004b5f0c     fltk:Fl_Check_Button.obj
 0002:00028f1c       ??_R4Fl_Input_@@6B@        004b5f1c     fltk:Fl_Input_.obj
 0002:00028f30       ??_R3Fl_Input_@@8          004b5f30     fltk:Fl_Input_.obj
 0002:00028f40       ??_R2Fl_Input_@@8          004b5f40     fltk:Fl_Input_.obj
 0002:00028f4c       ??_R1A@?0A@EA@Fl_Input_@@8 004b5f4c     fltk:Fl_Input_.obj
 0002:00028f68       ??_R4Fl_Bitmap@@6B@        004b5f68     fltk:Fl_File_Chooser.obj
 0002:00028f7c       ??_R3Fl_Bitmap@@8          004b5f7c     fltk:Fl_File_Chooser.obj
 0002:00028f8c       ??_R2Fl_Bitmap@@8          004b5f8c     fltk:Fl_File_Chooser.obj
 0002:00028f98       ??_R1A@?0A@EA@Fl_Bitmap@@8 004b5f98     fltk:Fl_File_Chooser.obj
 0002:00028fb4       ??_R4Fl_Input@@6B@         004b5fb4     fltk:Fl_Input.obj
 0002:00028fc8       ??_R3Fl_Input@@8           004b5fc8     fltk:Fl_Input.obj
 0002:00028fd8       ??_R2Fl_Input@@8           004b5fd8     fltk:Fl_Input.obj
 0002:00028fe8       ??_R1A@?0A@EA@Fl_Input@@8  004b5fe8     fltk:Fl_Input.obj
 0002:00029004       ??_R4Fl_Float_Input@@6B@   004b6004     fltk:Fl_Input.obj
 0002:00029018       ??_R3Fl_Float_Input@@8     004b6018     fltk:Fl_Input.obj
 0002:00029028       ??_R2Fl_Float_Input@@8     004b6028     fltk:Fl_Input.obj
 0002:0002903c       ??_R1A@?0A@EA@Fl_Float_Input@@8 004b603c     fltk:Fl_Input.obj
 0002:00029058       ??_R4Fl_Int_Input@@6B@     004b6058     fltk:Fl_Input.obj
 0002:0002906c       ??_R3Fl_Int_Input@@8       004b606c     fltk:Fl_Input.obj
 0002:0002907c       ??_R2Fl_Int_Input@@8       004b607c     fltk:Fl_Input.obj
 0002:00029090       ??_R1A@?0A@EA@Fl_Int_Input@@8 004b6090     fltk:Fl_Input.obj
 0002:000290ac       ??_R4Fl_Multiline_Input@@6B@ 004b60ac     fltk:Fl_Input.obj
 0002:000290c0       ??_R3Fl_Multiline_Input@@8 004b60c0     fltk:Fl_Input.obj
 0002:000290d0       ??_R2Fl_Multiline_Input@@8 004b60d0     fltk:Fl_Input.obj
 0002:000290e4       ??_R1A@?0A@EA@Fl_Multiline_Input@@8 004b60e4     fltk:Fl_Input.obj
 0002:00029100       ??_R4Fl_Output@@6B@        004b6100     fltk:Fl_Input.obj
 0002:00029114       ??_R3Fl_Output@@8          004b6114     fltk:Fl_Input.obj
 0002:00029124       ??_R2Fl_Output@@8          004b6124     fltk:Fl_Input.obj
 0002:00029138       ??_R1A@?0A@EA@Fl_Output@@8 004b6138     fltk:Fl_Input.obj
 0002:00029154       ??_R4Fl_Multiline_Output@@6B@ 004b6154     fltk:Fl_Input.obj
 0002:00029168       ??_R3Fl_Multiline_Output@@8 004b6168     fltk:Fl_Input.obj
 0002:00029178       ??_R2Fl_Multiline_Output@@8 004b6178     fltk:Fl_Input.obj
 0002:00029190       ??_R1A@?0A@EA@Fl_Multiline_Output@@8 004b6190     fltk:Fl_Input.obj
 0002:000291ac       ??_R4Fl_Secret_Input@@6B@  004b61ac     fltk:Fl_Input.obj
 0002:000291c0       ??_R3Fl_Secret_Input@@8    004b61c0     fltk:Fl_Input.obj
 0002:000291d0       ??_R2Fl_Secret_Input@@8    004b61d0     fltk:Fl_Input.obj
 0002:000291e4       ??_R1A@?0A@EA@Fl_Secret_Input@@8 004b61e4     fltk:Fl_Input.obj
 0002:00029200       ??_R4Fl_Text_Display@@6B@  004b6200     fltk:Fl_Text_Display.obj
 0002:00029214       ??_R3Fl_Text_Display@@8    004b6214     fltk:Fl_Text_Display.obj
 0002:00029224       ??_R2Fl_Text_Display@@8    004b6224     fltk:Fl_Text_Display.obj
 0002:00029234       ??_R1A@?0A@EA@Fl_Text_Display@@8 004b6234     fltk:Fl_Text_Display.obj
 0002:00029250       ??_R4Fl_TooltipBox@@6B@    004b6250     fltk:Fl_Tooltip.obj
 0002:00029264       ??_R3Fl_TooltipBox@@8      004b6264     fltk:Fl_Tooltip.obj
 0002:00029274       ??_R2Fl_TooltipBox@@8      004b6274     fltk:Fl_Tooltip.obj
 0002:00029290       ??_R1A@?0A@EA@Fl_TooltipBox@@8 004b6290     fltk:Fl_Tooltip.obj
 0002:000292ac       ??_R1A@?0A@EA@Fl_Menu_Window@@8 004b62ac     fltk:Fl_Tooltip.obj
 0002:000292c8       ??_R3Fl_Menu_Window@@8     004b62c8     fltk:Fl_Tooltip.obj
 0002:000292d8       ??_R2Fl_Menu_Window@@8     004b62d8     fltk:Fl_Tooltip.obj
 0002:000292f0       ??_R1A@?0A@EA@Fl_Single_Window@@8 004b62f0     fltk:Fl_Tooltip.obj
 0002:0002930c       ??_R3Fl_Single_Window@@8   004b630c     fltk:Fl_Tooltip.obj
 0002:0002931c       ??_R2Fl_Single_Window@@8   004b631c     fltk:Fl_Tooltip.obj
 0002:00029330       ??_R4Fl_Double_Window@@6B@ 004b6330     fltk:Fl_Double_Window.obj
 0002:00029344       ??_R3Fl_Double_Window@@8   004b6344     fltk:Fl_Double_Window.obj
 0002:00029354       ??_R2Fl_Double_Window@@8   004b6354     fltk:Fl_Double_Window.obj
 0002:00029368       ??_R1A@?0A@EA@Fl_Double_Window@@8 004b6368     fltk:Fl_Double_Window.obj
 0002:00029384       ??_R4Fl_Overlay_Window@@6B@ 004b6384     fltk:Fl_Double_Window.obj
 0002:00029398       ??_R3Fl_Overlay_Window@@8  004b6398     fltk:Fl_Double_Window.obj
 0002:000293a8       ??_R2Fl_Overlay_Window@@8  004b63a8     fltk:Fl_Double_Window.obj
 0002:000293c0       ??_R1A@?0A@EA@Fl_Overlay_Window@@8 004b63c0     fltk:Fl_Double_Window.obj
 0002:000293dc       ??_R4Fl_Preferences@@6B@   004b63dc     fltk:Fl_Preferences.obj
 0002:000293f0       ??_R3Fl_Preferences@@8     004b63f0     fltk:Fl_Preferences.obj
 0002:00029400       ??_R2Fl_Preferences@@8     004b6400     fltk:Fl_Preferences.obj
 0002:00029408       ??_R1A@?0A@EA@Fl_Preferences@@8 004b6408     fltk:Fl_Preferences.obj
 0002:00029424       ??_R4Fl_Plugin@@6B@        004b6424     fltk:Fl_Preferences.obj
 0002:00029438       ??_R3Fl_Plugin@@8          004b6438     fltk:Fl_Preferences.obj
 0002:00029448       ??_R2Fl_Plugin@@8          004b6448     fltk:Fl_Preferences.obj
 0002:00029450       ??_R1A@?0A@EA@Fl_Plugin@@8 004b6450     fltk:Fl_Preferences.obj
 0002:0002946c       ??_R4Fl_Plugin_Manager@@6B@ 004b646c     fltk:Fl_Preferences.obj
 0002:00029480       ??_R3Fl_Plugin_Manager@@8  004b6480     fltk:Fl_Preferences.obj
 0002:00029490       ??_R2Fl_Plugin_Manager@@8  004b6490     fltk:Fl_Preferences.obj
 0002:0002949c       ??_R1A@?0A@EA@Fl_Plugin_Manager@@8 004b649c     fltk:Fl_Preferences.obj
 0002:000294b8       ??_R4Fl_Surface_Device@@6B@ 004b64b8     fltk:Fl_Device.obj
 0002:000294cc       ??_R3Fl_Surface_Device@@8  004b64cc     fltk:Fl_Device.obj
 0002:000294dc       ??_R2Fl_Surface_Device@@8  004b64dc     fltk:Fl_Device.obj
 0002:000294e8       ??_R1A@?0A@EA@Fl_Surface_Device@@8 004b64e8     fltk:Fl_Device.obj
 0002:00029504       ??_R4Fl_Display_Device@@6B@ 004b6504     fltk:Fl_Device.obj
 0002:00029518       ??_R3Fl_Display_Device@@8  004b6518     fltk:Fl_Device.obj
 0002:00029528       ??_R2Fl_Display_Device@@8  004b6528     fltk:Fl_Device.obj
 0002:00029538       ??_R1A@?0A@EA@Fl_Display_Device@@8 004b6538     fltk:Fl_Device.obj
 0002:00029554       ??_R4Fl_Pixmap@@6B@        004b6554     fltk:Fl_Pixmap.obj
 0002:00029568       ??_R3Fl_Pixmap@@8          004b6568     fltk:Fl_Pixmap.obj
 0002:00029578       ??_R2Fl_Pixmap@@8          004b6578     fltk:Fl_Pixmap.obj
 0002:00029584       ??_R1A@?0A@EA@Fl_Pixmap@@8 004b6584     fltk:Fl_Pixmap.obj
 0002:000295a0       ??_R3IUnknown@@8           004b65a0     fltk:fl_dnd.obj
 0002:000295b0       ??_R2IUnknown@@8           004b65b0     fltk:fl_dnd.obj
 0002:000295b8       ??_R1A@?0A@EA@IUnknown@@8  004b65b8     fltk:fl_dnd.obj
 0002:000295d4       ??_R3IDataObject@@8        004b65d4     fltk:fl_dnd.obj
 0002:000295e4       ??_R2IDataObject@@8        004b65e4     fltk:fl_dnd.obj
 0002:000295f0       ??_R1A@?0A@EA@IDataObject@@8 004b65f0     fltk:fl_dnd.obj
 0002:0002960c       ??_R3IDropSource@@8        004b660c     fltk:fl_dnd.obj
 0002:0002961c       ??_R2IDropSource@@8        004b661c     fltk:fl_dnd.obj
 0002:00029628       ??_R1A@?0A@EA@IDropSource@@8 004b6628     fltk:fl_dnd.obj
 0002:00029644       ??_R3IDropTarget@@8        004b6644     fltk:fl_dnd.obj
 0002:00029654       ??_R2IDropTarget@@8        004b6654     fltk:fl_dnd.obj
 0002:00029660       ??_R1A@?0A@EA@IDropTarget@@8 004b6660     fltk:fl_dnd.obj
 0002:0002967c       ??_R4FLDropTarget@@6B@     004b667c     fltk:fl_dnd.obj
 0002:00029690       ??_R3FLDropTarget@@8       004b6690     fltk:fl_dnd.obj
 0002:000296a0       ??_R2FLDropTarget@@8       004b66a0     fltk:fl_dnd.obj
 0002:000296b0       ??_R1A@?0A@EA@FLDropTarget@@8 004b66b0     fltk:fl_dnd.obj
 0002:000296cc       ??_R4FLDropSource@@6B@     004b66cc     fltk:fl_dnd.obj
 0002:000296e0       ??_R3FLDropSource@@8       004b66e0     fltk:fl_dnd.obj
 0002:000296f0       ??_R2FLDropSource@@8       004b66f0     fltk:fl_dnd.obj
 0002:00029700       ??_R1A@?0A@EA@FLDropSource@@8 004b6700     fltk:fl_dnd.obj
 0002:0002971c       ??_R4FLDataObject@@6B@     004b671c     fltk:fl_dnd.obj
 0002:00029730       ??_R3FLDataObject@@8       004b6730     fltk:fl_dnd.obj
 0002:00029740       ??_R2FLDataObject@@8       004b6740     fltk:fl_dnd.obj
 0002:00029750       ??_R1A@?0A@EA@FLDataObject@@8 004b6750     fltk:fl_dnd.obj
 0002:0002976c       ??_R4Fl_Menu_Button@@6B@   004b676c     fltk:Fl_Menu_Button.obj
 0002:00029780       ??_R4Fl_Repeat_Button@@6B@ 004b6780     fltk:Fl_Repeat_Button.obj
 0002:00029794       ??_R3Fl_Repeat_Button@@8   004b6794     fltk:Fl_Repeat_Button.obj
 0002:000297a4       ??_R2Fl_Repeat_Button@@8   004b67a4     fltk:Fl_Repeat_Button.obj
 0002:000297b4       ??_R1A@?0A@EA@Fl_Repeat_Button@@8 004b67b4     fltk:Fl_Repeat_Button.obj
 0002:000297d0       ??_R4menutitle@@6B@        004b67d0     fltk:Fl_Menu.obj
 0002:000297e4       ??_R3menutitle@@8          004b67e4     fltk:Fl_Menu.obj
 0002:000297f4       ??_R2menutitle@@8          004b67f4     fltk:Fl_Menu.obj
 0002:00029810       ??_R1A@?0A@EA@menutitle@@8 004b6810     fltk:Fl_Menu.obj
 0002:0002982c       ??_R4menuwindow@@6B@       004b682c     fltk:Fl_Menu.obj
 0002:00029840       ??_R3menuwindow@@8         004b6840     fltk:Fl_Menu.obj
 0002:00029850       ??_R2menuwindow@@8         004b6850     fltk:Fl_Menu.obj
